0:Math_pow
1:abort
2:enlargeMemory
3:getTotalMemory
4:abortOnCannotGrowMemory
5:invoke_diii
6:invoke_fifffi
7:invoke_fiffi
8:invoke_fiii
9:invoke_i
10:invoke_ii
11:invoke_iifi
12:invoke_iii
13:invoke_iiii
14:invoke_iiiii
15:invoke_iiiiii
16:invoke_iiiiiii
17:invoke_iiiiiiii
18:invoke_iiiiiiiiiii
19:invoke_v
20:invoke_vi
21:invoke_viffffi
22:invoke_vifi
23:invoke_vii
24:invoke_viidi
25:invoke_viiff
26:invoke_viiffi
27:invoke_viifi
28:invoke_viii
29:invoke_viiii
30:invoke_viiiii
31:invoke_viiiiii
32:invoke_viiiiiii
33:invoke_viiiiiiii
34:_JS_Cursor_SetImage
35:_JS_Cursor_SetShow
36:_JS_Eval_ClearTimeout
37:_JS_Eval_SetTimeout
38:_JS_FileSystem_SetSyncInterval
39:_JS_FileSystem_Sync
40:_JS_Log_StackTrace
41:_JS_Sound_Create_Channel
42:_JS_Sound_GetLength
43:_JS_Sound_GetLoadState
44:_JS_Sound_Init
45:_JS_Sound_Load
46:_JS_Sound_Load_PCM
47:_JS_Sound_Play
48:_JS_Sound_ReleaseInstance
49:_JS_Sound_Set3D
50:_JS_Sound_SetListenerOrientation
51:_JS_Sound_SetListenerPosition
52:_JS_Sound_SetLoop
53:_JS_Sound_SetLoopPoints
54:_JS_Sound_SetPitch
55:_JS_Sound_SetPosition
56:_JS_Sound_SetVolume
57:_JS_Sound_Stop
58:_JS_SystemInfo_GetBrowserName
59:_JS_SystemInfo_GetBrowserVersionString
60:_JS_SystemInfo_GetCurrentCanvasHeight
61:_JS_SystemInfo_GetCurrentCanvasWidth
62:_JS_SystemInfo_GetDocumentURL
63:_JS_SystemInfo_GetGPUInfo
64:_JS_SystemInfo_GetHeight
65:_JS_SystemInfo_GetLanguage
66:_JS_SystemInfo_GetMemory
67:_JS_SystemInfo_GetOS
68:_JS_SystemInfo_GetWidth
69:_JS_SystemInfo_HasCursorLock
70:_JS_SystemInfo_HasFullscreen
71:_JS_SystemInfo_HasWebGL
72:_JS_UNETWebSockets_AddHost
73:_JS_UNETWebSockets_Init
74:_JS_UNETWebSockets_IsHostCorrect
75:_JS_UNETWebSockets_IsHostReadyToConnect
76:_JS_UNETWebSockets_SocketCleanEvntFromHost
77:_JS_UNETWebSockets_SocketClose
78:_JS_UNETWebSockets_SocketCreate
79:_JS_UNETWebSockets_SocketRecvEvntBuffFromHost
80:_JS_UNETWebSockets_SocketRecvEvntBuffLengthFromHost
81:_JS_UNETWebSockets_SocketRecvEvntTypeFromHost
82:_JS_UNETWebSockets_SocketSend
83:_JS_UNETWebSockets_SocketStop
84:_JS_WebGL_InitContextAttributes
85:_JS_WebRequest_Abort
86:_JS_WebRequest_Create
87:_JS_WebRequest_GetResponseHeaders
88:_JS_WebRequest_Release
89:_JS_WebRequest_Send
90:_JS_WebRequest_SetProgressHandler
91:_JS_WebRequest_SetRequestHeader
92:_JS_WebRequest_SetResponseHandler
93:_JS_WebRequest_SetTimeout
94:_SDL_GL_SwapBuffers
95:___cxa_allocate_exception
96:___cxa_begin_catch
97:___cxa_end_catch
98:___cxa_find_matching_catch_2
99:___cxa_find_matching_catch_3
100:___cxa_find_matching_catch_4
101:___cxa_free_exception
102:___cxa_pure_virtual
103:___cxa_rethrow
104:___cxa_throw
105:___lock
106:___map_file
107:___resumeException
108:___setErrNo
109:___syscall10
110:___syscall122
111:___syscall140
112:___syscall145
113:___syscall146
114:___syscall15
115:___syscall168
116:___syscall183
117:___syscall192
118:___syscall193
119:___syscall194
120:___syscall195
121:___syscall196
122:___syscall197
123:___syscall199
124:___syscall220
125:___syscall221
126:___syscall268
127:___syscall3
128:___syscall33
129:___syscall38
130:___syscall39
131:___syscall4
132:___syscall40
133:___syscall41
134:___syscall42
135:___syscall5
136:___syscall54
137:___syscall6
138:___syscall85
139:___syscall91
140:___unlock
141:_abort
142:_atexit
143:_clock
144:_clock_getres
145:_clock_gettime
146:_difftime
147:_emscripten_asm_const_iii
148:_emscripten_exit_fullscreen
149:_emscripten_exit_pointerlock
150:_emscripten_get_fullscreen_status
151:_emscripten_get_gamepad_status
152:_emscripten_get_main_loop_timing
153:_emscripten_get_now
154:_emscripten_get_num_gamepads
155:_emscripten_glActiveTexture
156:_emscripten_glAttachShader
157:_emscripten_glBindAttribLocation
158:_emscripten_glBindBuffer
159:_emscripten_glBindFramebuffer
160:_emscripten_glBindProgramARB
161:_emscripten_glBindRenderbuffer
162:_emscripten_glBindTexture
163:_emscripten_glBindVertexArray
164:_emscripten_glBlendColor
165:_emscripten_glBlendEquation
166:_emscripten_glBlendEquationSeparate
167:_emscripten_glBlendFunc
168:_emscripten_glBlendFuncSeparate
169:_emscripten_glBufferData
170:_emscripten_glBufferSubData
171:_emscripten_glCheckFramebufferStatus
172:_emscripten_glClear
173:_emscripten_glClearColor
174:_emscripten_glClearDepth
175:_emscripten_glClearDepthf
176:_emscripten_glClearStencil
177:_emscripten_glClientActiveTexture
178:_emscripten_glColorMask
179:_emscripten_glColorPointer
180:_emscripten_glCompileShader
181:_emscripten_glCompressedTexImage2D
182:_emscripten_glCompressedTexSubImage2D
183:_emscripten_glCopyTexImage2D
184:_emscripten_glCopyTexSubImage2D
185:_emscripten_glCreateProgram
186:_emscripten_glCreateShader
187:_emscripten_glCullFace
188:_emscripten_glDeleteBuffers
189:_emscripten_glDeleteFramebuffers
190:_emscripten_glDeleteObjectARB
191:_emscripten_glDeleteProgram
192:_emscripten_glDeleteRenderbuffers
193:_emscripten_glDeleteShader
194:_emscripten_glDeleteTextures
195:_emscripten_glDeleteVertexArrays
196:_emscripten_glDepthFunc
197:_emscripten_glDepthMask
198:_emscripten_glDepthRange
199:_emscripten_glDepthRangef
200:_emscripten_glDetachShader
201:_emscripten_glDisable
202:_emscripten_glDisableVertexAttribArray
203:_emscripten_glDrawArrays
204:_emscripten_glDrawArraysInstanced
205:_emscripten_glDrawBuffers
206:_emscripten_glDrawElements
207:_emscripten_glDrawElementsInstanced
208:_emscripten_glDrawRangeElements
209:_emscripten_glEnable
210:_emscripten_glEnableClientState
211:_emscripten_glEnableVertexAttribArray
212:_emscripten_glFinish
213:_emscripten_glFlush
214:_emscripten_glFramebufferRenderbuffer
215:_emscripten_glFramebufferTexture2D
216:_emscripten_glFrontFace
217:_emscripten_glFrustum
218:_emscripten_glGenBuffers
219:_emscripten_glGenFramebuffers
220:_emscripten_glGenRenderbuffers
221:_emscripten_glGenTextures
222:_emscripten_glGenVertexArrays
223:_emscripten_glGenerateMipmap
224:_emscripten_glGetActiveAttrib
225:_emscripten_glGetActiveUniform
226:_emscripten_glGetAttachedShaders
227:_emscripten_glGetAttribLocation
228:_emscripten_glGetBooleanv
229:_emscripten_glGetBufferParameteriv
230:_emscripten_glGetError
231:_emscripten_glGetFloatv
232:_emscripten_glGetFramebufferAttachmentParameteriv
233:_emscripten_glGetInfoLogARB
234:_emscripten_glGetIntegerv
235:_emscripten_glGetObjectParameterivARB
236:_emscripten_glGetPointerv
237:_emscripten_glGetProgramInfoLog
238:_emscripten_glGetProgramiv
239:_emscripten_glGetRenderbufferParameteriv
240:_emscripten_glGetShaderInfoLog
241:_emscripten_glGetShaderPrecisionFormat
242:_emscripten_glGetShaderSource
243:_emscripten_glGetShaderiv
244:_emscripten_glGetString
245:_emscripten_glGetTexParameterfv
246:_emscripten_glGetTexParameteriv
247:_emscripten_glGetUniformLocation
248:_emscripten_glGetUniformfv
249:_emscripten_glGetUniformiv
250:_emscripten_glGetVertexAttribPointerv
251:_emscripten_glGetVertexAttribfv
252:_emscripten_glGetVertexAttribiv
253:_emscripten_glHint
254:_emscripten_glIsBuffer
255:_emscripten_glIsEnabled
256:_emscripten_glIsFramebuffer
257:_emscripten_glIsProgram
258:_emscripten_glIsRenderbuffer
259:_emscripten_glIsShader
260:_emscripten_glIsTexture
261:_emscripten_glIsVertexArray
262:_emscripten_glLineWidth
263:_emscripten_glLinkProgram
264:_emscripten_glLoadIdentity
265:_emscripten_glLoadMatrixf
266:_emscripten_glMatrixMode
267:_emscripten_glNormalPointer
268:_emscripten_glPixelStorei
269:_emscripten_glPolygonOffset
270:_emscripten_glReadPixels
271:_emscripten_glReleaseShaderCompiler
272:_emscripten_glRenderbufferStorage
273:_emscripten_glRotatef
274:_emscripten_glSampleCoverage
275:_emscripten_glScissor
276:_emscripten_glShaderBinary
277:_emscripten_glShaderSource
278:_emscripten_glStencilFunc
279:_emscripten_glStencilFuncSeparate
280:_emscripten_glStencilMask
281:_emscripten_glStencilMaskSeparate
282:_emscripten_glStencilOp
283:_emscripten_glStencilOpSeparate
284:_emscripten_glTexCoordPointer
285:_emscripten_glTexImage2D
286:_emscripten_glTexParameterf
287:_emscripten_glTexParameterfv
288:_emscripten_glTexParameteri
289:_emscripten_glTexParameteriv
290:_emscripten_glTexSubImage2D
291:_emscripten_glUniform1f
292:_emscripten_glUniform1fv
293:_emscripten_glUniform1i
294:_emscripten_glUniform1iv
295:_emscripten_glUniform2f
296:_emscripten_glUniform2fv
297:_emscripten_glUniform2i
298:_emscripten_glUniform2iv
299:_emscripten_glUniform3f
300:_emscripten_glUniform3fv
301:_emscripten_glUniform3i
302:_emscripten_glUniform3iv
303:_emscripten_glUniform4f
304:_emscripten_glUniform4fv
305:_emscripten_glUniform4i
306:_emscripten_glUniform4iv
307:_emscripten_glUniformMatrix2fv
308:_emscripten_glUniformMatrix3fv
309:_emscripten_glUniformMatrix4fv
310:_emscripten_glUseProgram
311:_emscripten_glValidateProgram
312:_emscripten_glVertexAttrib1f
313:_emscripten_glVertexAttrib1fv
314:_emscripten_glVertexAttrib2f
315:_emscripten_glVertexAttrib2fv
316:_emscripten_glVertexAttrib3f
317:_emscripten_glVertexAttrib3fv
318:_emscripten_glVertexAttrib4f
319:_emscripten_glVertexAttrib4fv
320:_emscripten_glVertexAttribDivisor
321:_emscripten_glVertexAttribPointer
322:_emscripten_glVertexPointer
323:_emscripten_glViewport
324:_emscripten_is_webgl_context_lost
325:_emscripten_memcpy_big
326:_emscripten_request_fullscreen
327:_emscripten_request_pointerlock
328:_emscripten_set_blur_callback
329:_emscripten_set_canvas_size
330:_emscripten_set_devicemotion_callback
331:_emscripten_set_deviceorientation_callback
332:_emscripten_set_focus_callback
333:_emscripten_set_fullscreenchange_callback
334:_emscripten_set_keydown_callback
335:_emscripten_set_keypress_callback
336:_emscripten_set_keyup_callback
337:_emscripten_set_main_loop
338:_emscripten_set_main_loop_timing
339:_emscripten_set_mousedown_callback
340:_emscripten_set_mousemove_callback
341:_emscripten_set_mouseup_callback
342:_emscripten_set_touchcancel_callback
343:_emscripten_set_touchend_callback
344:_emscripten_set_touchmove_callback
345:_emscripten_set_touchstart_callback
346:_emscripten_set_wheel_callback
347:_emscripten_webgl_create_context
348:_emscripten_webgl_destroy_context
349:_emscripten_webgl_enable_extension
350:_emscripten_webgl_get_current_context
351:_emscripten_webgl_make_context_current
352:_exit
353:_flock
354:_getenv
355:_getpwuid
356:_gettimeofday
357:_glActiveTexture
358:_glAttachShader
359:_glBeginQuery
360:_glBeginTransformFeedback
361:_glBindAttribLocation
362:_glBindBuffer
363:_glBindBufferBase
364:_glBindFramebuffer
365:_glBindRenderbuffer
366:_glBindSampler
367:_glBindTexture
368:_glBindTransformFeedback
369:_glBindVertexArray
370:_glBlendEquation
371:_glBlendEquationSeparate
372:_glBlendFuncSeparate
373:_glBlitFramebuffer
374:_glBufferData
375:_glBufferSubData
376:_glCheckFramebufferStatus
377:_glClear
378:_glClearColor
379:_glClearDepthf
380:_glClearStencil
381:_glColorMask
382:_glCompileShader
383:_glCompressedTexImage2D
384:_glCompressedTexSubImage2D
385:_glCompressedTexSubImage3D
386:_glCopyBufferSubData
387:_glCopyTexImage2D
388:_glCopyTexSubImage2D
389:_glCreateProgram
390:_glCreateShader
391:_glCullFace
392:_glDeleteBuffers
393:_glDeleteFramebuffers
394:_glDeleteProgram
395:_glDeleteQueries
396:_glDeleteRenderbuffers
397:_glDeleteSamplers
398:_glDeleteShader
399:_glDeleteSync
400:_glDeleteTextures
401:_glDeleteTransformFeedbacks
402:_glDeleteVertexArrays
403:_glDepthFunc
404:_glDepthMask
405:_glDetachShader
406:_glDisable
407:_glDisableVertexAttribArray
408:_glDrawArrays
409:_glDrawArraysInstanced
410:_glDrawBuffers
411:_glDrawElements
412:_glDrawElementsInstanced
413:_glEnable
414:_glEnableVertexAttribArray
415:_glEndQuery
416:_glEndTransformFeedback
417:_glFenceSync
418:_glFinish
419:_glFlush
420:_glFlushMappedBufferRange
421:_glFramebufferRenderbuffer
422:_glFramebufferTexture2D
423:_glFramebufferTextureLayer
424:_glFrontFace
425:_glGenBuffers
426:_glGenFramebuffers
427:_glGenQueries
428:_glGenRenderbuffers
429:_glGenSamplers
430:_glGenTextures
431:_glGenTransformFeedbacks
432:_glGenVertexArrays
433:_glGenerateMipmap
434:_glGetActiveAttrib
435:_glGetActiveUniform
436:_glGetActiveUniformBlockName
437:_glGetActiveUniformBlockiv
438:_glGetActiveUniformsiv
439:_glGetAttribLocation
440:_glGetError
441:_glGetFramebufferAttachmentParameteriv
442:_glGetIntegeri_v
443:_glGetIntegerv
444:_glGetProgramBinary
445:_glGetProgramInfoLog
446:_glGetProgramiv
447:_glGetRenderbufferParameteriv
448:_glGetShaderInfoLog
449:_glGetShaderPrecisionFormat
450:_glGetShaderSource
451:_glGetShaderiv
452:_glGetString
453:_glGetStringi
454:_glGetTexParameteriv
455:_glGetUniformBlockIndex
456:_glGetUniformIndices
457:_glGetUniformLocation
458:_glGetUniformiv
459:_glGetVertexAttribiv
460:_glInvalidateFramebuffer
461:_glIsEnabled
462:_glIsVertexArray
463:_glLinkProgram
464:_glMapBufferRange
465:_glPixelStorei
466:_glPolygonOffset
467:_glProgramBinary
468:_glProgramParameteri
469:_glReadBuffer
470:_glReadPixels
471:_glRenderbufferStorage
472:_glRenderbufferStorageMultisample
473:_glSamplerParameteri
474:_glScissor
475:_glShaderSource
476:_glStencilFuncSeparate
477:_glStencilMask
478:_glStencilOpSeparate
479:_glTexImage2D
480:_glTexImage3D
481:_glTexParameterf
482:_glTexParameteri
483:_glTexParameteriv
484:_glTexStorage2D
485:_glTexStorage3D
486:_glTexSubImage2D
487:_glTexSubImage3D
488:_glTransformFeedbackVaryings
489:_glUniform1fv
490:_glUniform1i
491:_glUniform1iv
492:_glUniform1uiv
493:_glUniform2fv
494:_glUniform2iv
495:_glUniform2uiv
496:_glUniform3fv
497:_glUniform3iv
498:_glUniform3uiv
499:_glUniform4fv
500:_glUniform4iv
501:_glUniform4uiv
502:_glUniformBlockBinding
503:_glUniformMatrix3fv
504:_glUniformMatrix4fv
505:_glUnmapBuffer
506:_glUseProgram
507:_glValidateProgram
508:_glVertexAttrib4f
509:_glVertexAttrib4fv
510:_glVertexAttribIPointer
511:_glVertexAttribPointer
512:_glViewport
513:_gmtime
514:_llvm_eh_typeid_for
515:_llvm_exp2_f32
516:_llvm_trap
517:_localtime
518:_longjmp
519:_mktime
520:_pthread_attr_destroy
521:_pthread_attr_init
522:_pthread_cond_destroy
523:_pthread_cond_init
524:_pthread_cond_signal
525:_pthread_cond_timedwait
526:_pthread_cond_wait
527:_pthread_create
528:_pthread_detach
529:_pthread_getspecific
530:_pthread_key_create
531:_pthread_key_delete
532:_pthread_mutex_destroy
533:_pthread_mutex_init
534:_pthread_mutexattr_destroy
535:_pthread_mutexattr_init
536:_pthread_mutexattr_settype
537:_pthread_once
538:_pthread_rwlock_init
539:_pthread_rwlock_rdlock
540:_pthread_rwlock_unlock
541:_pthread_rwlock_wrlock
542:_pthread_setspecific
543:_sched_yield
544:_setenv
545:_strftime
546:_sysconf
547:_time
548:_unsetenv
549:_utime
550:legalimport$invoke_iiiiij
551:legalimport$invoke_iiijii
552:legalimport$invoke_iij
553:legalimport$invoke_j
554:legalimport$invoke_ji
555:legalimport$invoke_jii
556:legalimport$invoke_jiii
557:legalimport$invoke_jiiji
558:legalimport$invoke_viiiji
559:legalimport$invoke_viij
560:legalimport$invoke_viji
561:legalimport$invoke_vijii
562:legalimport$_glClientWaitSync
563:__growWasmMemory
564:stackAlloc
565:stackSave
566:stackRestore
567:establishStackSpace
568:setThrew
569:setTempRet0
570:getTempRet0
571:__GLOBAL__sub_I_AccessibilityScriptingClasses_cpp
572:__ZL54__ManagedRegistrationHelperFunction_VisionUtilityProxyPv
573:__ZN9Scripting11UnityEngine13Accessibility18VisionUtilityProxy9InitProxyEv
574:__ZN9Scripting11UnityEngine13Accessibility18VisionUtilityProxy12CleanupProxyEv
575:__ZN17CallbackArrayBaseIPFvvEPFvPKvEE8RegisterES1_S5_S3_
576:__GLOBAL__sub_I_AIScriptingClasses_cpp
577:__ZL48__ManagedRegistrationHelperFunction_NavMeshProxyPv
578:__ZL59__ManagedRegistrationHelperFunction_NavMeshBuildSourceProxyPv
579:__ZL61__ManagedRegistrationHelperFunction_NavMeshTriangulationProxyPv
580:__ZN9Scripting11UnityEngine2AI25NavMeshTriangulationProxy9InitProxyEv
581:__ZN9Scripting11UnityEngine2AI25NavMeshTriangulationProxy12CleanupProxyEv
582:__ZN9Scripting11UnityEngine2AI23NavMeshBuildSourceProxy9InitProxyEv
583:__ZN9Scripting11UnityEngine2AI23NavMeshBuildSourceProxy12CleanupProxyEv
584:__ZN9Scripting11UnityEngine2AI12NavMeshProxy9InitProxyEv
585:__ZN9Scripting11UnityEngine2AI12NavMeshProxy12CleanupProxyEv
586:__ZN6Object21AwakeFromLoadThreadedEv
587:__ZN6Object17IsAScriptedObjectEv
588:__ZNK16LevelGameManager7GetNameEv
589:__ZN6Object7SetNameEPKc
590:__ZN6Object12SetHideFlagsENS_9HideFlagsE
591:__ZNK9Behaviour10HasEnabledEv
592:__ZNK9Behaviour10GetEnabledEv
593:__ZNSt3__213__tree_removeIPNS_16__tree_node_baseIPvEEEEvT_S5_
594:__Z17CalculateGlobalRS23TransformAccessReadOnly
595:__Z23CalculateGlobalPosition23TransformAccessReadOnly
596:__ZN15EditorExtensionD2Ev
597:__ZN15EditorExtensionD0Ev
598:__ZNK15EditorExtension22GetTypeVirtualInternalEv
599:__ZNK6Object7GetNameEv
600:__ZN8Vector3f8TransferI14SafeBinaryReadEEvRT_
601:__ZN4PPtrI9TransformE8TransferI14SafeBinaryReadEEvRT_
602:__ZN4PPtrI9TransformE8TransferI18StreamedBinaryReadEEvRT_
603:__ZN4PPtrI9TransformE8TransferI19StreamedBinaryWriteEEvRT_
604:__ZNK4PPtrI9TransformEcvPS0_Ev
605:__ZNK4PPtrI9TransformEptEv
606:__ZNK11NamedObject7GetNameEv
607:__ZN4AABB8TransferI14SafeBinaryReadEEvRT_
608:__ZN11Quaternionf8TransferI14SafeBinaryReadEEvRT_
609:__ZN14SafeBinaryRead21TransferSTLStyleArrayI13dynamic_arrayI8Vector3fLj0EEEEvRT_17TransferMetaFlags
610:__ZN14SafeBinaryRead21TransferSTLStyleArrayI13dynamic_arrayIiLj0EEEEvRT_17TransferMetaFlags
611:__ZN13dynamic_arrayIiLj0EE18resize_initializedEj12ResizePolicy
612:__ZN14SafeBinaryRead21TransferSTLStyleArrayI13dynamic_arrayIhLj0EEEEvRT_17TransferMetaFlags
613:__ZN7Hash1288TransferI14SafeBinaryReadEEvRT_
614:__ZN11Quaternionf8TransferI24GenerateTypeTreeTransferEEvRT_
615:__ZN7Hash1288TransferI24GenerateTypeTreeTransferEEvRT_
616:__ZN4AABB8TransferI18StreamedBinaryReadEEvRT_
617:__ZN18StreamedBinaryRead8TransferI11QuaternionfEEvRT_PKc17TransferMetaFlags
618:__ZN18StreamedBinaryRead21TransferSTLStyleArrayI13dynamic_arrayI8Vector3fLj0EEEEvRT_17TransferMetaFlags
619:__ZN18StreamedBinaryRead21TransferSTLStyleArrayI13dynamic_arrayIhLj0EEEEvRT_17TransferMetaFlags
620:__ZN7Hash1288TransferI18StreamedBinaryReadEEvRT_
621:__ZN4AABB8TransferI19StreamedBinaryWriteEEvRT_
622:__ZN7Hash1288TransferI19StreamedBinaryWriteEEvRT_
623:__ZN4core20StringStorageDefaultIcE6assignEPKcj
624:__ZN14SafeBinaryRead21TransferSTLStyleArrayINSt3__26vectorIN4core12basic_stringIcNS3_20StringStorageDefaultIcEEEENS1_9allocatorIS7_EEEEEEvRT_17TransferMetaFlags
625:__ZNSt3__26vectorIN4core12basic_stringIcNS1_20StringStorageDefaultIcEEEENS_9allocatorIS5_EEE8__appendEj
626:__Z14resize_trimmedINSt3__26vectorIN4core12basic_stringIcNS2_20StringStorageDefaultIcEEEENS0_9allocatorIS6_EEEEEvRT_j
627:__ZN14SafeBinaryRead21TransferSTLStyleArrayIN4core12basic_stringIcNS1_20StringStorageDefaultIcEEEEEEvRT_17TransferMetaFlags
628:__ZN4core20StringStorageDefaultIcE10reallocateEj
629:__ZNSt3__26vectorIN4core12basic_stringIcNS1_20StringStorageDefaultIcEEEENS_9allocatorIS5_EEE7reserveEj
630:__ZNSt3__26vectorIN4core12basic_stringIcNS1_20StringStorageDefaultIcEEEENS_9allocatorIS5_EEE6assignINS_11__wrap_iterIPS5_EEEENS_9enable_ifIXaasr21__is_forward_iteratorIT_EE5valuesr16is_constructibleIS5_NS_15iterator_traitsISE_E9referenceEEE5valueEvE4typeESE_SE_
631:__ZN18StreamedBinaryRead21TransferSTLStyleArrayIN4core12basic_stringIcNS1_20StringStorageDefaultIcEEEEEEvRT_17TransferMetaFlags
632:__ZN19StreamedBinaryWrite21TransferSTLStyleArrayIN4core12basic_stringIcNS1_20StringStorageDefaultIcEEEEEEvRT_17TransferMetaFlags
633:__ZNK4PPtrI6ObjectEcvPS0_Ev
634:__ZNSt3__227__tree_balance_after_insertIPNS_16__tree_node_baseIPvEEEEvT_S5_
635:__ZNSt3__26vectorIN4core12basic_stringIcNS1_20StringStorageDefaultIcEEEENS_9allocatorIS5_EEE21__push_back_slow_pathIRKS5_EEvOT_
636:__ZN14SharedMeshDataD2Ev
637:__Z18TransformDirection23TransformAccessReadOnlyRKN4math7_float3E
638:__Z24InverseTransformRotationRK23TransformAccessReadOnlyRKN4math7_float4E
639:__Z9SetLocalR15TransformAccessRKN4math7_float4Ey
640:__Z24InverseTransformPosition23TransformAccessReadOnlyRKN4math7_float3E
641:__Z25InverseTransformDirection23TransformAccessReadOnlyRKN4math7_float3Eb
642:__ZN13dynamic_arrayIhLj0EE18resize_initializedEjRKh12ResizePolicy
643:__GLOBAL__sub_I_AnimationScriptingClasses_cpp
644:__GLOBAL__sub_I_Runtime_Animation_0_cpp
645:__GLOBAL__sub_I_Runtime_Animation_1_cpp
646:__GLOBAL__sub_I_Runtime_Animation_4_cpp
647:__GLOBAL__sub_I_AnimationClip_cpp
648:__GLOBAL__sub_I_Avatar_cpp
649:__GLOBAL__sub_I_ConstraintManager_cpp
650:__ZN13RuntimeStaticI17ConstraintManagerLb0EE16StaticInitializeEPv
651:__ZN13RuntimeStaticI17ConstraintManagerLb0EE13StaticDestroyEPv
652:__ZZN17ConstraintManager15InitializeClassEvEN47PreLateUpdateConstraintManagerUpdateRegistrator7ForwardEv
653:__ZN17ConstraintManagerD2Ev
654:__ZN17ConstraintManagerD0Ev
655:__ZN17ConstraintManager6UpdateEv
656:i32u-div
657:__ZN4core8hash_setINS_4pairIKPK10GameObjectiLb0EEENS_9hash_pairINS_4hashIS4_EES5_iEENS_10equal_pairINSt3__28equal_toIS4_EES5_iEEE4growEi
658:__ZN4core8hash_mapIPK10GameObjectiNS_4hashIS3_EENSt3__28equal_toIS3_EEEixERKS3_
659:__ZL32GetComponentsInConstraintSourcesRK11IConstraintPFbRKN5Unity9ComponentEERN4core8hash_setIPS3_NS8_4hashISA_EENSt3__28equal_toISA_EEEE
660:__ZN4core8hash_setIPN5Unity9ComponentENS_4hashIS3_EENSt3__28equal_toIS3_EEE4growEi
661:__ZL23GetComponentsInChildrenRK10GameObjectPFbRKN5Unity9ComponentEERN4core8hash_setIPS3_NS8_4hashISA_EENSt3__28equal_toISA_EEEE
662:__ZNSt3__26__sortIR23DependencySortPredicatePN4core4pairIiP9BehaviourLb0EEEEEvT0_S9_T_
663:__ZN13dynamic_arrayIN4math4trsXELj0EE18resize_initializedEjRKS1_12ResizePolicy
664:f32-to-int
665:__ZN13ConstraintJob18ComputeConstraintsEPNS_17ConstraintJobDataEj
666:__ZN13ConstraintJob23ConstraintComponentDataC2ERKS0_
667:__ZN13ConstraintJob23ConstraintComponentDataD2Ev
668:__Z11SetLocalTRS15TransformAccessRKN4math7_float3ERKNS0_7_float4ES3_y
669:__ZN13ConstraintJob23ConstraintComponentDataC2ERK16LookAtConstraint
670:__ZL21InitConstraintSourcesRK13dynamic_arrayI16ConstraintSourceLj0EERS_I23TransformAccessReadOnlyLj0EERS_IfLj0EE
671:__ZN13dynamic_arrayIN4math14float3_storageELj0EE18resize_initializedEjRKS1_12ResizePolicy
672:__ZN13dynamic_arrayI23TransformAccessReadOnlyLj0EE4growEv
673:__ZN13dynamic_arrayIfLj0EE4growEv
674:__ZN13ConstraintJob23ConstraintComponentDataC2ERK16ParentConstraint
675:__ZN13ConstraintJob23ConstraintComponentDataC2ERK13AimConstraint
676:__ZN13ConstraintJob23ConstraintComponentDataC2ERK15ScaleConstraint
677:__ZN13ConstraintJob23ConstraintComponentDataC2ERK18RotationConstraint
678:__ZN13ConstraintJob23ConstraintComponentDataC2ERK18PositionConstraint
679:__Z21InverseTransformScale23TransformAccessReadOnlyRKN4math7_float3E
680:__Z34CalculateGlobalPositionAndRotation23TransformAccessReadOnlyRKN4math7_float3ERKNS0_7_float4E
681:__ZL17quatArcRotateSafeRKN4math7_float3ES2_
682:__ZNSt3__27__sort4IR23DependencySortPredicatePN4core4pairIiP9BehaviourLb0EEEEEjT0_S9_S9_S9_T_
683:__ZNSt3__227__insertion_sort_incompleteIR23DependencySortPredicatePN4core4pairIiP9BehaviourLb0EEEEEbT0_S9_T_
684:__ZN4core8hash_setIPN5Unity9ComponentENS_4hashIS3_EENSt3__28equal_toIS3_EEE6insertERKS3_
685:__ZL22GetComponentsInParentsRK10GameObjectPFbRKN5Unity9ComponentEERN4core8hash_setIPS3_NS8_4hashISA_EENSt3__28equal_toISA_EEEE
686:__ZN13RuntimeStaticI15AnimationBinderLb0EE16StaticInitializeEPv
687:__ZN13RuntimeStaticI15AnimationBinderLb0EE13StaticDestroyEPv
688:__ZN15AnimationBinderD2Ev
689:__ZNSt3__26__treeINS_12__value_typeIPKN5Unity4TypeEPK8TypeTreeEENS_19__map_value_compareIS5_S9_NS_4lessIS5_EELb1EEENS_9allocatorIS9_EEE7destroyEPNS_11__tree_nodeIS9_PvEE
690:__ZN11UnityEngine9Animation38InitializeGenericAnimationBindingCacheEPv
691:__ZN11UnityEngine9Animation35CleanupGenericAnimationBindingCacheEPv
692:__ZN11UnityEngine9Animation28GenericAnimationBindingCacheD2Ev
693:__ZN11UnityEngine9Animation28GenericAnimationBindingCache15DidReloadDomainE19AssemblyLoadFailure
694:__ZN11UnityEngine9Animation28GenericAnimationBindingCacheC2Ev
695:__ZN13dynamic_arrayIPN11UnityEngine9Animation23CachedComponentBindingsELj0EE18resize_initializedEjRKS3_12ResizePolicy
696:__ZL55__ManagedRegistrationHelperFunction_AnimationEventProxyPv
697:__ZL54__ManagedRegistrationHelperFunction_AimConstraintProxyPv
698:__ZL62__ManagedRegistrationHelperFunction_AnimationClipPlayableProxyPv
699:__ZL68__ManagedRegistrationHelperFunction_AnimationLayerMixerPlayableProxyPv
700:__ZL63__ManagedRegistrationHelperFunction_AnimationMixerPlayableProxyPv
701:__ZL72__ManagedRegistrationHelperFunction_AnimationMotionXToDeltaPlayableProxyPv
702:__ZL64__ManagedRegistrationHelperFunction_AnimationOffsetPlayableProxyPv
703:__ZL64__ManagedRegistrationHelperFunction_AnimationPlayableOutputProxyPv
704:__ZL67__ManagedRegistrationHelperFunction_AnimatorControllerPlayableProxyPv
705:__ZL57__ManagedRegistrationHelperFunction_ConstraintSourceProxyPv
706:__ZL57__ManagedRegistrationHelperFunction_LookAtConstraintProxyPv
707:__ZL57__ManagedRegistrationHelperFunction_ParentConstraintProxyPv
708:__ZL59__ManagedRegistrationHelperFunction_PositionConstraintProxyPv
709:__ZL59__ManagedRegistrationHelperFunction_RotationConstraintProxyPv
710:__ZL56__ManagedRegistrationHelperFunction_ScaleConstraintProxyPv
711:__ZL55__ManagedRegistrationHelperFunction_AnimationStateProxyPv
712:__ZL49__ManagedRegistrationHelperFunction_AnimatorProxyPv
713:__ZL57__ManagedRegistrationHelperFunction_AnimatorClipInfoProxyPv
714:__ZL68__ManagedRegistrationHelperFunction_AnimatorControllerParameterProxyPv
715:__ZL66__ManagedRegistrationHelperFunction_RuntimeAnimatorControllerProxyPv
716:__ZL67__ManagedRegistrationHelperFunction_AnimatorOverrideControllerProxyPv
717:__ZL58__ManagedRegistrationHelperFunction_AnimatorStateInfoProxyPv
718:__ZL63__ManagedRegistrationHelperFunction_AnimatorTransitionInfoProxyPv
719:__ZL47__ManagedRegistrationHelperFunction_AvatarProxyPv
720:__ZL51__ManagedRegistrationHelperFunction_AvatarMaskProxyPv
721:__ZL61__ManagedRegistrationHelperFunction_AnimationHumanStreamProxyPv
722:__ZL64__ManagedRegistrationHelperFunction_AnimationScriptPlayableProxyPv
723:__ZL56__ManagedRegistrationHelperFunction_AnimationStreamProxyPv
724:__ZL50__ManagedRegistrationHelperFunction_HumanBoneProxyPv
725:__ZL72__ManagedRegistrationHelperFunction_SharedBetweenAnimatorsAttributeProxyPv
726:__ZL53__ManagedRegistrationHelperFunction_SkeletonBoneProxyPv
727:__ZL62__ManagedRegistrationHelperFunction_StateMachineBehaviourProxyPv
728:__ZN9Scripting11UnityEngine26StateMachineBehaviourProxy9InitProxyEv
729:__ZN9Scripting11UnityEngine26StateMachineBehaviourProxy12CleanupProxyEv
730:__ZN9Scripting11UnityEngine17SkeletonBoneProxy9InitProxyEv
731:__ZN9Scripting11UnityEngine17SkeletonBoneProxy12CleanupProxyEv
732:__ZN9Scripting11UnityEngine36SharedBetweenAnimatorsAttributeProxy9InitProxyEv
733:__ZN9Scripting11UnityEngine36SharedBetweenAnimatorsAttributeProxy12CleanupProxyEv
734:__ZN9Scripting11UnityEngine14HumanBoneProxy9InitProxyEv
735:__ZN9Scripting11UnityEngine14HumanBoneProxy12CleanupProxyEv
736:__ZN9Scripting11UnityEngine12Experimental10Animations20AnimationStreamProxy9InitProxyEv
737:__ZN9Scripting11UnityEngine12Experimental10Animations20AnimationStreamProxy12CleanupProxyEv
738:__ZN9Scripting11UnityEngine12Experimental10Animations28AnimationScriptPlayableProxy9InitProxyEv
739:__ZN9Scripting11UnityEngine12Experimental10Animations28AnimationScriptPlayableProxy12CleanupProxyEv
740:__ZN9Scripting11UnityEngine12Experimental10Animations25AnimationHumanStreamProxy9InitProxyEv
741:__ZN9Scripting11UnityEngine12Experimental10Animations25AnimationHumanStreamProxy12CleanupProxyEv
742:__ZN9Scripting11UnityEngine15AvatarMaskProxy9InitProxyEv
743:__ZN9Scripting11UnityEngine15AvatarMaskProxy12CleanupProxyEv
744:__ZN9Scripting11UnityEngine11AvatarProxy9InitProxyEv
745:__ZN9Scripting11UnityEngine11AvatarProxy12CleanupProxyEv
746:__ZN9Scripting11UnityEngine27AnimatorTransitionInfoProxy9InitProxyEv
747:__ZN9Scripting11UnityEngine27AnimatorTransitionInfoProxy12CleanupProxyEv
748:__ZN9Scripting11UnityEngine22AnimatorStateInfoProxy9InitProxyEv
749:__ZN9Scripting11UnityEngine22AnimatorStateInfoProxy12CleanupProxyEv
750:__ZN9Scripting11UnityEngine31AnimatorOverrideControllerProxy9InitProxyEv
751:__ZN9Scripting11UnityEngine31AnimatorOverrideControllerProxy12CleanupProxyEv
752:__ZN9Scripting11UnityEngine30RuntimeAnimatorControllerProxy9InitProxyEv
753:__ZN9Scripting11UnityEngine30RuntimeAnimatorControllerProxy12CleanupProxyEv
754:__ZN9Scripting11UnityEngine32AnimatorControllerParameterProxy9InitProxyEv
755:__ZN9Scripting11UnityEngine32AnimatorControllerParameterProxy12CleanupProxyEv
756:__ZN9Scripting11UnityEngine21AnimatorClipInfoProxy9InitProxyEv
757:__ZN9Scripting11UnityEngine21AnimatorClipInfoProxy12CleanupProxyEv
758:__ZN9Scripting11UnityEngine13AnimatorProxy9InitProxyEv
759:__ZN9Scripting11UnityEngine13AnimatorProxy12CleanupProxyEv
760:__ZN9Scripting11UnityEngine19AnimationStateProxy9InitProxyEv
761:__ZN9Scripting11UnityEngine19AnimationStateProxy12CleanupProxyEv
762:__ZN9Scripting11UnityEngine10Animations20ScaleConstraintProxy9InitProxyEv
763:__ZN9Scripting11UnityEngine10Animations20ScaleConstraintProxy12CleanupProxyEv
764:__ZN9Scripting11UnityEngine10Animations23RotationConstraintProxy9InitProxyEv
765:__ZN9Scripting11UnityEngine10Animations23RotationConstraintProxy12CleanupProxyEv
766:__ZN9Scripting11UnityEngine10Animations23PositionConstraintProxy9InitProxyEv
767:__ZN9Scripting11UnityEngine10Animations23PositionConstraintProxy12CleanupProxyEv
768:__ZN9Scripting11UnityEngine10Animations21ParentConstraintProxy9InitProxyEv
769:__ZN9Scripting11UnityEngine10Animations21ParentConstraintProxy12CleanupProxyEv
770:__ZN9Scripting11UnityEngine10Animations21LookAtConstraintProxy9InitProxyEv
771:__ZN9Scripting11UnityEngine10Animations21LookAtConstraintProxy12CleanupProxyEv
772:__ZN9Scripting11UnityEngine10Animations21ConstraintSourceProxy9InitProxyEv
773:__ZN9Scripting11UnityEngine10Animations21ConstraintSourceProxy12CleanupProxyEv
774:__ZN9Scripting11UnityEngine10Animations31AnimatorControllerPlayableProxy9InitProxyEv
775:__ZN9Scripting11UnityEngine10Animations31AnimatorControllerPlayableProxy12CleanupProxyEv
776:__ZN9Scripting11UnityEngine10Animations28AnimationPlayableOutputProxy9InitProxyEv
777:__ZN9Scripting11UnityEngine10Animations28AnimationPlayableOutputProxy12CleanupProxyEv
778:__ZN9Scripting11UnityEngine10Animations28AnimationOffsetPlayableProxy9InitProxyEv
779:__ZN9Scripting11UnityEngine10Animations28AnimationOffsetPlayableProxy12CleanupProxyEv
780:__ZN9Scripting11UnityEngine10Animations36AnimationMotionXToDeltaPlayableProxy9InitProxyEv
781:__ZN9Scripting11UnityEngine10Animations36AnimationMotionXToDeltaPlayableProxy12CleanupProxyEv
782:__ZN9Scripting11UnityEngine10Animations27AnimationMixerPlayableProxy9InitProxyEv
783:__ZN9Scripting11UnityEngine10Animations27AnimationMixerPlayableProxy12CleanupProxyEv
784:__ZN9Scripting11UnityEngine10Animations32AnimationLayerMixerPlayableProxy9InitProxyEv
785:__ZN9Scripting11UnityEngine10Animations32AnimationLayerMixerPlayableProxy12CleanupProxyEv
786:__ZN9Scripting11UnityEngine10Animations26AnimationClipPlayableProxy9InitProxyEv
787:__ZN9Scripting11UnityEngine10Animations26AnimationClipPlayableProxy12CleanupProxyEv
788:__ZN9Scripting11UnityEngine10Animations18AimConstraintProxy9InitProxyEv
789:__ZN9Scripting11UnityEngine10Animations18AimConstraintProxy12CleanupProxyEv
790:__ZN9Scripting11UnityEngine19AnimationEventProxy9InitProxyEv
791:__ZN9Scripting11UnityEngine19AnimationEventProxy12CleanupProxyEv
792:__ZN16MecanimAnimation19PathHashesToIndicesERN5Unity9ComponentEPKjjPt
793:__ZN16MecanimAnimation25RegisterIAnimationBindingEPKN5Unity4TypeEiP17IAnimationBinding
794:__ZN16MecanimAnimation40GetReadWriteGlobalSpaceSkeletonPoseFenceEPN5Unity9ComponentE
795:__ZN16MecanimAnimation23BuildAnimatedPropertiesEPK6Object18ScriptingObjectPtr
796:__ZN16MecanimAnimation24DeleteAnimatedPropertiesERP26IAnimatedPropertyEvaluator
797:__ZN16MecanimAnimationD0Ev
798:__ZN23AnimatedPropertyBuilder5BuildEP13AnimationClip18ScriptingObjectPtr
799:__ZN25AnimatedPropertyEvaluator25BuildFromScriptableObjectEP13AnimationClip18ScriptingObjectPtr
800:__ZN25AnimatedPropertyEvaluator29BindCurveToScriptingObjectPtrERKN13AnimationClip10FloatCurveEj18ScriptingObjectPtrb
801:__ZN16AnimatedPropertyC2ERK16PropertyAccessorRK17AnimationCurveTplIfE
802:__ZN25AnimatedPropertyEvaluatorD2Ev
803:__ZN25AnimatedPropertyEvaluatorD0Ev
804:__ZN25AnimatedPropertyEvaluator10UpdateSyncEf18ScriptingObjectPtr
805:__ZN16AnimatedProperty6UpdateEf18ScriptingObjectPtr
806:__ZN16AnimatedPropertyD2Ev
807:__ZN11UnityEngine9Animation28GenericAnimationBindingCache25RegisterIAnimationBindingEPKN5Unity4TypeEiP17IAnimationBinding
808:__ZN8Animator17GetAvatarConstantEv
809:__ZN7mecanim8skeleton16SkeletonFindNodeEPKNS0_8SkeletonEj
810:__ZN8Animator18SetupAvatarDataSetEPKN7mecanim9animation14AvatarConstantERNS_13AvatarDataSetEb
811:__ZN7mecanim9animation20CreateAvatarConstantEPNS_8skeleton8SkeletonEPNS1_13SkeletonPoseTIN4math4trsXEEES8_PNS_5human5HumanES3_iRKS6_R20RuntimeBaseAllocator
812:__ZN7mecanim9animation18CreateAvatarMemoryEPKNS0_14AvatarConstantER20RuntimeBaseAllocator
813:__ZN7mecanim9animation17CreateAvatarInputEPKNS0_14AvatarConstantER20RuntimeBaseAllocator
814:__ZN7mecanim9animation21CreateAvatarWorkspaceEPKNS0_14AvatarConstantER20RuntimeBaseAllocator
815:__ZN7mecanim9animation18CreateAvatarOutputEPKNS0_14AvatarConstantEbbR20RuntimeBaseAllocator
816:__ZN8Animator13GetAvatarRootEv
817:__ZN11UnityEngine9Animation27CreateAvatarBindingConstantER9TransformPKN7mecanim9animation14AvatarConstantER20RuntimeBaseAllocator
818:__ZN11UnityEngine9Animation30CreateAvatarBindingConstantOptER9TransformPKN7mecanim9animation14AvatarConstantER20RuntimeBaseAllocator
819:__Z17CalculateGlobalSM23TransformAccessReadOnlyRKN4math7_float4E
820:__ZN11UnityEngine9Animation36GenerateTransformBindingMapRecursiveER9TransformRK5crc32R13dynamic_arrayINS0_14BoundTransformELj0EEPKN7mecanim9animation14AvatarConstantEb
821:__ZN11UnityEngine9Animation28RegisterAvatarBindingObjectsEPNS0_21AvatarBindingConstantE
822:__ZN11UnityEngine9Animation21AvatarBindingCallbackEPvS1_i
823:__Z16AppendPathToHashRK5crc32PKc
824:__ZN7mecanim8skeleton18CreateSkeletonPoseIN4math4trsXEEEPNS0_13SkeletonPoseTIT_EEPKNS0_8SkeletonER20RuntimeBaseAllocator
825:__Z14FindAvatarRootPKN7mecanim8skeleton8SkeletonEPKjR9Transformb
826:__Z18BuildTransformListR9TransformR13dynamic_arrayIPS_Lj0EE
827:__Z15HiearchyMatchesP9TransformPKN7mecanim8skeleton8SkeletonEiRK5crc32
828:__ZN7mecanim8skeleton18CreateSkeletonPoseIN4math7affineXEEEPNS0_13SkeletonPoseTIT_EEPKNS0_8SkeletonER20RuntimeBaseAllocator
829:__ZN7mecanim5human9HumanPoseC2Ev
830:__ZN7mecanim4hand8HandPoseC2Ev
831:__ZN7mecanim8skeleton23SkeletonBuildIndexArrayEPiPKNS0_8SkeletonES4_
832:__ZN7mecanim8skeleton30SkeletonBuildReverseIndexArrayEPiPKiPKNS0_8SkeletonES6_
833:__ZN25RuntimeAnimatorControllerD2Ev
834:__ZN25RuntimeAnimatorControllerD0Ev
835:__ZN25RuntimeAnimatorController17MainThreadCleanupEv
836:__ZNK25RuntimeAnimatorController22GetTypeVirtualInternalEv
837:__ZN25RuntimeAnimatorController23VirtualRedirectTransferER19StreamedBinaryWrite
838:__ZN25RuntimeAnimatorController23VirtualRedirectTransferER18StreamedBinaryRead
839:__ZN25RuntimeAnimatorController23VirtualRedirectTransferER17RemapPPtrTransfer
840:__ZN25RuntimeAnimatorController23VirtualRedirectTransferER24GenerateTypeTreeTransfer
841:__ZN25RuntimeAnimatorController23VirtualRedirectTransferER14SafeBinaryRead
842:__ZN25RuntimeAnimatorController22RegisterAnimationClipsEv
843:__ZN6MotionD2Ev
844:__ZN6Motion17MainThreadCleanupEv
845:__ZNK6Motion22GetTypeVirtualInternalEv
846:__ZN6Motion21AddSelfToDependenciesER8UserList
847:__ZN8AnimatorD2Ev
848:__ZN8AnimatorD0Ev
849:__ZN8Animator17MainThreadCleanupEv
850:__ZN8Animator13AwakeFromLoadE17AwakeFromLoadMode
851:__ZN8Animator5ResetEv
852:__ZNK8Animator22GetTypeVirtualInternalEv
853:__ZN8Animator23VirtualRedirectTransferER19StreamedBinaryWrite
854:__ZN8Animator23VirtualRedirectTransferER18StreamedBinaryRead
855:__ZN8Animator23VirtualRedirectTransferER17RemapPPtrTransfer
856:__ZN8Animator23VirtualRedirectTransferER24GenerateTypeTreeTransfer
857:__ZN8Animator23VirtualRedirectTransferER14SafeBinaryRead
858:__ZN8Animator10DeactivateE19DeactivateOperation
859:__ZN8Animator12AddToManagerEv
860:__ZN8Animator17RemoveFromManagerEv
861:__ZN8Animator15SetPrepareStageEv
862:__ZNK8Animator25GetStateMachineBehavioursEv
863:__ZN8Animator19CreatePlayableGraphEv
864:__ZN8Animator32CreateInternalControllerPlayableEv
865:__ZN26AnimatorControllerPlayable21SetAnimatorControllerEP25RuntimeAnimatorController
866:__ZN26AnimatorControllerPlayable14AllocateMemoryEv
867:__ZN26AnimatorControllerPlayable13GenerateGraphEv
868:__ZN17AnimationPlayable23RequestAllocateBindingsEv
869:__ZN26AnimatorControllerPlayable13ClearPlayableEv
870:__ZN17AnimationPlayable23ConnectNoTopologyChangeEPS_S0_ii
871:__ZN26AnimationBlendTreePlayable12CreateInputsER13PlayableGraphj
872:__ZN26AnimatorControllerPlayable18SetLayerAutoWeightEv
873:__ZN7mecanim12statemachine29SetStateMachineInInitialStateERKNS0_20StateMachineConstantERKNS0_17StateMachineInputERNS0_18StateMachineOutputERNS0_18StateMachineMemoryERNS0_21StateMachineWorkspaceE
874:__ZN26AnimationBlendTreePlayable21ConfigureFromConstantEPKN7mecanim9animation17BlendTreeConstantEPKNS0_12statemachine13StateConstantEPKNS1_12AnimationSetE
875:__ZN7mecanim12statemachine13EvaluateStateERKNS_18ValueArrayConstantERKNS0_13StateConstantERKNS0_17StateMachineInputERNS0_18StateMachineOutputERNS0_18StateMachineMemoryERNS0_11StateOutputERNS0_14StateWorkspaceEbb
876:__ZN7mecanim12statemachine21EvaluateStateDurationERKNS0_13StateConstantERNS0_11StateOutputERNS0_14StateWorkspaceERKNS_18ValueArrayConstantERKNS0_17StateMachineInputEb
877:__ZN7mecanim14FindValueIndexEPKNS_18ValueArrayConstantEj
878:__ZN26AnimationBlendTreePlayable37PropagateStateMachineInfoToChildClipsEfffRfS0_b
879:__ZN26AnimationBlendTreePlayable18SetUsePosePlayableEb
880:__ZN26AnimationBlendTreePlayable21DoBlendTreeEvaluationEPKN7mecanim9animation17BlendTreeConstantERKNS0_12statemachine13StateConstantEPNS1_14BlendTreeInputEPNS1_15BlendTreeOutputEPNS1_18BlendTreeWorkspaceERKNS5_17StateMachineInputEfb
881:__ZN7mecanim9animation17EvaluateBlendTreeERKNS0_17BlendTreeConstantERKNS0_14BlendTreeInputERNS0_15BlendTreeOutputERNS0_18BlendTreeWorkspaceERKNS0_12AnimationSetE
882:__ZN7mecanim9animation10GetWeightsERKNS0_21BlendTreeNodeConstantERNS0_18BlendTreeWorkspaceEPfff
883:__ZN7mecanim9animation27GetWeightsSimpleDirectionalERKNS0_19Blend2dDataConstantEPfPiP8Vector2fffb
884:__ZN7mecanim9animation29GetWeightsFreeformDirectionalERKNS0_19Blend2dDataConstantEPfPiP8Vector2fffb
885:__ZN7mecanim9animation27GetWeightsFreeformCartesianERKNS0_19Blend2dDataConstantEPfPiP8Vector2fffb
886:__ZN7mecanim9animation28GetWeightFreeformDirectionalERKNS0_19Blend2dDataConstantEP8Vector2fiiS4_
887:__ZN27AnimationLayerMixerPlayable14SetLayerWeightEjf
888:__ZN27AnimationLayerMixerPlayable16SetLayerAdditiveEjb
889:__ZN27AnimationLayerMixerPlayable21UpdateLayerParametersEv
890:__ZN13PlayableGraph17ConstructPlayableI21AnimationClipPlayableEEPT_18DirectorPlayerTypePK17JobReflectionData
891:__ZN17AnimationPlayableC2E18DirectorPlayerType
892:__ZN21AnimationClipPlayableD2Ev
893:__ZN21AnimationClipPlayableD0Ev
894:__ZNK8Playable17IsMultithreadableEv
895:__ZN8Playable11GetLeadTimeEv
896:__ZN21AnimationClipPlayable7SetTimeEd
897:__ZNK8Playable7GetTimeEv
898:__ZNK21AnimationClipPlayable7GetTypeEv
899:__ZNK21AnimationClipPlayable11DerivesFromE17ScriptingClassPtr
900:__ZN8Playable20GetAdditionalPayloadEv
901:__ZN17AnimationPlayable19DeallocateResourcesEv
902:__ZN21AnimationClipPlayable13OnAdvanceTimeEd
903:__ZN17AnimationPlayable18SetInputConnectionEP8Playableii
904:__ZN17AnimationPlayable25AnimationPlayableAllocateEP35AnimationPlayableEvaluationConstant
905:__ZN21AnimationClipPlayable17ProcessRootMotionEP35AnimationPlayableEvaluationConstantP32AnimationPlayableEvaluationInputP33AnimationPlayableEvaluationOutput
906:__ZN21AnimationClipPlayable16ProcessAnimationEP35AnimationPlayableEvaluationConstantP32AnimationPlayableEvaluationInputP33AnimationPlayableEvaluationOutput
907:__ZN21AnimationClipPlayable17GetAnimationClipsER13dynamic_arrayIP13AnimationClipLj0EE
908:__ZN17AnimationPlayable19PreProcessAnimationEPK35AnimationPlayableEvaluationConstantPKN7mecanim9animation18AnimationNodeStateE
909:__ZN21AnimationClipPlayable22PrepareAnimationEventsEfR13dynamic_arrayI22AnimationClipEventInfoLj0EE
910:__ZN17AnimationPlayable34CollectAnimatorControllerPlayablesER13dynamic_arrayIP26AnimatorControllerPlayableLj0EE
911:__ZN21AnimationClipPlayable29CollectAnimationClipPlayablesER13dynamic_arrayIPS_Lj0EE
912:__ZN17AnimationPlayable13AddObjectUserER8UserList
913:__ZN21AnimationClipPlayable16AllocateBindingsEPK35AnimationPlayableEvaluationConstant
914:__ZN21AnimationClipPlayable18DeallocateBindingsEv
915:__ZN17AnimationPlayable28ComputeNeedsBindingRebuildedEv
916:__ZNK17AnimationPlayable15GetApplyMotionXEv
917:__ZNK21AnimationClipPlayable8GetAssetEv
918:__ZN21AnimationClipPlayable17SetInternalWeightEf
919:__ZNK17AnimationPlayable27GetNextCompatibleDescendantEj
920:__ZN7mecanim9animation17DestroyClipMemoryEPNS0_10ClipMemoryER20RuntimeBaseAllocator
921:__ZN7mecanim9animation15HasMotionCurvesERKNS0_18ClipMuscleConstantE
922:__ZN7mecanim9animation13HasRootCurvesERKNS0_18ClipMuscleConstantE
923:__ZN7mecanim9animation14HasHumanCurvesERKNS0_18ClipMuscleConstantE
924:__ZN7mecanim9animation16CreateClipMemoryEPKNS0_4ClipEiR20RuntimeBaseAllocator
925:__ZN7mecanim9animation16CreateClipOutputEPKNS0_4ClipER20RuntimeBaseAllocator
926:__ZN7mecanim9animation15ComputeClipTimeEffffbfRfS1_b
927:__ZN17AnimationPlayable17GetAnimationClipsER13dynamic_arrayIP13AnimationClipLj0EE
928:__ZN21AnimationClipPlayable20ProcessAnimationPassEPK35AnimationPlayableEvaluationConstantPK32AnimationPlayableEvaluationInputP33AnimationPlayableEvaluationOutput
929:__ZN21AnimationClipPlayable16ProcessHumanPassEPK35AnimationPlayableEvaluationConstantPK32AnimationPlayableEvaluationInputP33AnimationPlayableEvaluationOutput
930:__ZN7mecanim9animation17ClearMotionOutputEPNS0_18AnimationNodeStateE
931:__ZN7mecanim9animation15ClearHumanPosesEPNS0_18AnimationNodeStateE
932:__ZN7mecanim9animation16MotionOutputCopyEPNS0_12MotionOutputEPKS1_bbRKNS_6bitsetILj83EEE
933:__ZN7mecanim9animation13EvaluateHumanEPKNS0_18ClipMuscleConstantEPKNS0_15ClipMuscleInputEPKNS0_10ClipOutputEPNS0_18AnimationNodeStateEb
934:__ZN7mecanim9animation17EvaluateHumanPoseERKNS0_18ClipMuscleConstantERKNS0_15ClipMuscleInputEPKfRKNS0_12MotionOutputERNS_5human9HumanPoseE
935:__ZN7mecanim5human15HumanPoseMirrorERNS0_9HumanPoseERKS1_
936:__ZN7mecanim5human12HumanPoseSubERNS0_9HumanPoseERKS1_S4_
937:__ZN7mecanim5human13HumanPoseCopyERNS0_9HumanPoseERKS1_b
938:__ZN7mecanim4hand12HandPoseCopyEPKNS0_8HandPoseEPS1_
939:__ZN7mecanim9animation12GetHumanPoseINS0_10ValueDeltaEEEvRKNS0_18ClipMuscleConstantEPKT_RNS_5human9HumanPoseE
940:__ZN7mecanim9animation12GetHumanPoseIfEEvRKNS0_18ClipMuscleConstantEPKT_RNS_5human9HumanPoseE
941:__ZN7mecanim5human15HumanPoseWeightERNS0_9HumanPoseERKS1_f
942:__ZN7mecanim5human12HumanPoseAddERNS0_9HumanPoseERKS1_S4_
943:__ZN7mecanim5human14HumanPoseClearERNS0_9HumanPoseE
944:__ZN7mecanim9animation17MotionOutputClearEPNS0_12MotionOutputE
945:__ZN21AnimationClipPlayable22ProcessAnimationNoClipEPK35AnimationPlayableEvaluationConstantPK32AnimationPlayableEvaluationInputP33AnimationPlayableEvaluationOutput
946:__ZN7mecanim9animation14ValuesFromClipILb0EEEvRKNS_10ValueArrayERKNS0_10ClipOutputERKNS0_12ClipBindingsEiRS2_RNS_14ValueArrayMaskEbPKSC_
947:__ZN7mecanim9animation14EvaluateValuesEPKNS0_18ClipMuscleConstantEPKNS_18ValueArrayConstantEPKNS0_12ClipBindingsEPKNS0_14AvatarConstantEPKNS0_14SkeletonTQSMapEPKNS0_10ClipOutputEPKNS0_16MotionXReferenceEPNS0_18AnimationNodeStateEfbbb
948:__ZN7mecanim16CreateValueArrayEPKNS_18ValueArrayConstantER20RuntimeBaseAllocator
949:__ZN7mecanim9animation14DeltasFromClipILb0EEEvRKNS0_18ClipMuscleConstantERKNS0_12ClipBindingsERKNS_14ValueArrayMaskERNS_10ValueArrayESC_SC_
950:__ZN7mecanim9animation23ComputeRootMotionValuesERKNS0_14AvatarConstantERKNS0_14SkeletonTQSMapERKNS0_16MotionXReferenceERNS_10ValueArrayESB_SB_b
951:__ZN7mecanim13ValueArraySubILb0EEEvRKNS_10ValueArrayEPKNS_14ValueArrayMaskERS1_
952:__ZN7mecanim14ValueArrayLoopILb0EEEvRKNS_10ValueArrayES3_RKNS_14ValueArrayMaskERS1_f
953:__ZN7mecanim9animation19AdjustPoseForMotionERKNS0_14AvatarConstantERKNS0_14SkeletonTQSMapERKN4math4trsXERNS_10ValueArrayERNS_8skeleton13SkeletonPoseTIS8_EESG_
954:__ZN7mecanim8skeleton19DestroySkeletonPoseIN4math4trsXEEEvPNS0_13SkeletonPoseTIT_EER20RuntimeBaseAllocator
955:__ZN7mecanim9animation30SkeletonPoseFromValueRecursiveERKNS_8skeleton8SkeletonERKNS1_13SkeletonPoseTIN4math4trsXEEERKNS_10ValueArrayEPKNS0_14SkeletonTQSMapEPKiRS8_ii
956:__ZN7mecanim8skeleton25SkeletonPoseComputeGlobalIN4math4trsXEEEvPKNS0_8SkeletonEPKNS0_13SkeletonPoseTIT_EEPS9_
957:__ZN7mecanim8skeleton25SkeletonPoseComputeGlobalIN4math4trsXEEEvPKNS0_8SkeletonEPKNS0_13SkeletonPoseTIT_EEPS9_ii
958:__ZN7mecanim8skeleton24SkeletonPoseComputeLocalIN4math4trsXEEEvPKNS0_8SkeletonEPKNS0_13SkeletonPoseTIT_EEPS9_ii
959:__ZN7mecanim9animation30ValueFromSkeletonPoseRecursiveERKNS_8skeleton8SkeletonERKNS1_13SkeletonPoseTIN4math4trsXEEEPKNS0_14SkeletonTQSMapEPKiRNS_10ValueArrayEii
960:__ZN7mecanim6memory16InPlaceAllocator8AllocateEjj
961:__ZN7mecanim6memory13HeapAllocator8AllocateEjj
962:__ZN7mecanim6memory13HeapAllocator10DeallocateEPv
963:__ZN7mecanim12SetValueMaskILb0EEEvPNS_14ValueArrayMaskEb
964:__ZN7mecanim21SetTransformValueMaskEiiiPNS_14ValueArrayMaskEb
965:__ZN7mecanim13CopyValueMaskILb1EEEvPKNS_14ValueArrayMaskEPS1_
966:__ZN7mecanim14ValueArrayCopyILb0EEEvPKNS_10ValueArrayEPS1_PKNS_14ValueArrayMaskE
967:__ZN21AnimationClipPlayable30ProcessAnimationRootMotionPassEPK35AnimationPlayableEvaluationConstantPK32AnimationPlayableEvaluationInputP33AnimationPlayableEvaluationOutput
968:__ZN21AnimationClipPlayable31ProcessAnimationTargetMatchPassEPK35AnimationPlayableEvaluationConstantPK32AnimationPlayableEvaluationInputP33AnimationPlayableEvaluationOutput
969:__ZN7mecanim9animation15CloneClipMemoryEPKNS0_10ClipMemoryER20RuntimeBaseAllocator
970:__ZN7mecanim9animation12EvaluateClipEPKNS0_4ClipEPKNS0_9ClipInputEPNS0_10ClipMemoryEPNS0_10ClipOutputE
971:__ZN7mecanim9animation18EvaluateRootMotionERKNS0_18ClipMuscleConstantERKNS0_15ClipMuscleInputEPKfS8_RNS0_12MotionOutputEbPNS0_16MotionXReferenceE
972:__ZN7mecanim9animation13GetClipStartXERKNS0_18ClipMuscleConstantEi
973:__ZN7mecanim9animation12GetClipStopXERKNS0_18ClipMuscleConstantEi
974:__ZN7mecanim9animation9GetCycleXERKN4math4trsXES4_S4_if
975:__ZN7mecanim9animation11xformPrePowERKN4math4trsXEi
976:__ZN7mecanim9animation10SampleClipERKNS0_12StreamedClipERNS0_18StreamedClipMemoryEfPf
977:__ZN7mecanim9animation10SampleClipERKNS0_12ConstantClipEjPf
978:__ZN7mecanim9animation8SeekClipERKNS0_12StreamedClipERNS0_18StreamedClipMemoryEf
979:__ZN21AnimationClipPlayable23ProcessRootMotionNoClipEPK35AnimationPlayableEvaluationConstantPK32AnimationPlayableEvaluationInputP33AnimationPlayableEvaluationOutput
980:__ZN7mecanim9animation23TransformValuesFromClipEiiiRKNS_10ValueArrayERKNS0_10ClipOutputERKNS0_12ClipBindingsERS1_RNS_14ValueArrayMaskEb
981:__ZN7mecanim9animation14ValuesFromClipILb1EEEvRKNS_10ValueArrayERKNS0_10ClipOutputERKNS0_12ClipBindingsEiRS2_RNS_14ValueArrayMaskEbPKSC_
982:__ZN7mecanim9animation30MotionOutputClearAdditiveLayerEPNS0_12MotionOutputE
983:__ZN7mecanim9animation23TransformDeltasFromClipEiiiRKNS0_18ClipMuscleConstantERKNS0_12ClipBindingsERKNS_14ValueArrayMaskERN4math4trsXESC_SC_
984:__ZN7mecanim22TransformValueArraySubEiiiRKN4math4trsXERNS_10ValueArrayE
985:__ZN7mecanim23TransformValueArrayLoopEiiiRKN4math4trsXES3_RNS_10ValueArrayEf
986:__ZN7mecanim9animation19EvaluateFloatValuesEPKNS0_18ClipMuscleConstantEPKNS_18ValueArrayConstantEPKNS0_12ClipBindingsEPKNS0_10ClipOutputEPNS0_18AnimationNodeStateEfbb
987:__ZN7mecanim21CreateFloatValueArrayEPKNS_18ValueArrayConstantER20RuntimeBaseAllocator
988:__ZN7mecanim9animation14DeltasFromClipILb1EEEvRKNS0_18ClipMuscleConstantERKNS0_12ClipBindingsERKNS_14ValueArrayMaskERNS_10ValueArrayESC_SC_
989:__ZN7mecanim13ValueArraySubILb1EEEvRKNS_10ValueArrayEPKNS_14ValueArrayMaskERS1_
990:__ZN7mecanim14ValueArrayLoopILb1EEEvRKNS_10ValueArrayES3_RKNS_14ValueArrayMaskERS1_f
991:__ZN7mecanim23TransformValueArrayCopyEiiiPKNS_10ValueArrayEPS0_
992:__ZN7mecanim14ValueArrayCopyILb1EEEvPKNS_10ValueArrayEPS1_PKNS_14ValueArrayMaskE
993:__Z28GetAnimationScriptingClassesv
994:__ZL35InitializeAnimationScriptingClassesv
995:__ZL32CleanupAnimationScriptingClassesv
996:__ZNK17AnimationPlayable11DerivesFromE17ScriptingClassPtr
997:__ZN17AnimationPlayable17ProcessRootMotionEP35AnimationPlayableEvaluationConstantP32AnimationPlayableEvaluationInputP33AnimationPlayableEvaluationOutput
998:__ZN17AnimationPlayable16ProcessAnimationEP35AnimationPlayableEvaluationConstantP32AnimationPlayableEvaluationInputP33AnimationPlayableEvaluationOutput
999:__ZN17AnimationPlayable22PrepareAnimationEventsEfR13dynamic_arrayI22AnimationClipEventInfoLj0EE
1000:__ZN17AnimationPlayable29CollectAnimationClipPlayablesER13dynamic_arrayIP21AnimationClipPlayableLj0EE
1001:__ZN17AnimationPlayable16AllocateBindingsEPK35AnimationPlayableEvaluationConstant
1002:__ZN17AnimationPlayable18DeallocateBindingsEv
1003:__ZN17AnimationPlayable17SetInternalWeightEf
1004:__ZN21AnimationPosePlayableC2E18DirectorPlayerType
1005:__ZN21AnimationPosePlayable17ProcessRootMotionEP35AnimationPlayableEvaluationConstantP32AnimationPlayableEvaluationInputP33AnimationPlayableEvaluationOutput
1006:__ZN21AnimationPosePlayable16ProcessAnimationEP35AnimationPlayableEvaluationConstantP32AnimationPlayableEvaluationInputP33AnimationPlayableEvaluationOutput
1007:__ZN21AnimationPosePlayable19PreProcessAnimationEPK35AnimationPlayableEvaluationConstantPKN7mecanim9animation18AnimationNodeStateE
1008:__ZN21AnimationPosePlayable16AllocateBindingsEPK35AnimationPlayableEvaluationConstant
1009:__ZN21AnimationPosePlayable18DeallocateBindingsEv
1010:__ZN7mecanim9animation25DestroyAnimationNodeStateEPNS0_18AnimationNodeStateER20RuntimeBaseAllocator
1011:__ZN7mecanim9animation24CreateAnimationNodeStateERKNS_18ValueArrayConstantEbbbR20RuntimeBaseAllocator
1012:__ZN7mecanim20CreateValueArrayMaskEPKNS_18ValueArrayConstantER20RuntimeBaseAllocator
1013:__ZN7mecanim9animation22CopyAnimationNodeStateEPKNS0_18AnimationNodeStateEPS1_bbRKNS_6bitsetILj83EEE
1014:__ZN7mecanim14ValueArrayCopyILb0EEEvPKNS_10ValueArrayEPS1_
1015:__ZN7mecanim13CopyValueMaskILb0EEEvPKNS_14ValueArrayMaskEPS1_
1016:__ZN7mecanim5human13HumanPoseCopyERNS0_9HumanPoseERKS1_RKNS_6bitsetILj83EEE
1017:__ZN7mecanim11OrValueMaskILb0EEEvPKNS_14ValueArrayMaskEPS1_
1018:__ZN7mecanim9animation14CopyHumanPosesEPKNS0_18AnimationNodeStateEPS1_RKNS_6bitsetILj83EEE
1019:__ZN7mecanim9animation16CopyMotionOutputEPKNS0_18AnimationNodeStateEPS1_bbRKNS_6bitsetILj83EEE
1020:__ZN7mecanim22CopyTransformValueMaskEiiiPKNS_14ValueArrayMaskEPS0_
1021:__ZN7mecanim11OrValueMaskILb1EEEvPKNS_14ValueArrayMaskEPS1_
1022:__ZN26AnimationBlendTreePlayableC2E18DirectorPlayerType
1023:__ZNK26AnimationBlendTreePlayable7GetTypeEv
1024:__ZNK26AnimationBlendTreePlayable11DerivesFromE17ScriptingClassPtr
1025:__ZN22AnimationMixerPlayable18SetInputConnectionEP8Playableii
1026:__ZN22AnimationMixerPlayable17ProcessRootMotionEP35AnimationPlayableEvaluationConstantP32AnimationPlayableEvaluationInputP33AnimationPlayableEvaluationOutput
1027:__ZN22AnimationMixerPlayable16ProcessAnimationEP35AnimationPlayableEvaluationConstantP32AnimationPlayableEvaluationInputP33AnimationPlayableEvaluationOutput
1028:__Z26ProcessAnimationEmptyMixerP35AnimationPlayableEvaluationConstantP32AnimationPlayableEvaluationInputP33AnimationPlayableEvaluationOutput
1029:__Z24ProcessAnimationMixBeginP35AnimationPlayableEvaluationConstantP32AnimationPlayableEvaluationInputP33AnimationPlayableEvaluationOutput
1030:__Z19ProcessAnimationMixP33AnimationPlayableEvaluationOutputP35AnimationPlayableEvaluationConstantP32AnimationPlayableEvaluationInputS0_PN7mecanim16ValueArrayWeightEf
1031:__Z22ProcessAnimationMixEndP35AnimationPlayableEvaluationConstantP32AnimationPlayableEvaluationInputP33AnimationPlayableEvaluationOutputPN7mecanim16ValueArrayWeightEf
1032:__ZN22AnimationMixerPlayable12MixerProcessEP35AnimationPlayableEvaluationConstantP32AnimationPlayableEvaluationInputP33AnimationPlayableEvaluationOutputM17AnimationPlayableFvS1_S3_S5_EPFvS1_S3_S5_ESA_PFvS5_S1_S3_S5_PN7mecanim16ValueArrayWeightEfEPFvS1_S3_S5_SD_fE
1033:__ZN7mecanim22CreateValueArrayWeightEPKNS_18ValueArrayConstantER20RuntimeBaseAllocator
1034:__ZN7mecanim18ValueArrayBlendEndILb0EEEvPKNS_10ValueArrayERKNS_14ValueArrayMaskERKNS_16ValueArrayWeightERS1_
1035:__ZN7mecanim5human17HumanPoseBlendEndERNS0_9HumanPoseERf
1036:__ZN7mecanim19ValueArrayBlendNodeILb0EEEvRKNS_10ValueArrayERKNS_14ValueArrayMaskERS1_RS4_RNS_16ValueArrayWeightEf
1037:__ZN7mecanim5human18HumanPoseBlendNodeERNS0_9HumanPoseEPS1_f
1038:__ZN7mecanim20ValueArrayBlendBeginILb0EEEvRNS_14ValueArrayMaskE
1039:__ZN7mecanim5human19HumanPoseBlendBeginERNS0_9HumanPoseE
1040:__Z27ProcessRootMotionEmptyMixerP35AnimationPlayableEvaluationConstantP32AnimationPlayableEvaluationInputP33AnimationPlayableEvaluationOutput
1041:__Z25ProcessRootMotionMixBeginP35AnimationPlayableEvaluationConstantP32AnimationPlayableEvaluationInputP33AnimationPlayableEvaluationOutput
1042:__Z20ProcessRootMotionMixP33AnimationPlayableEvaluationOutputP35AnimationPlayableEvaluationConstantP32AnimationPlayableEvaluationInputS0_PN7mecanim16ValueArrayWeightEf
1043:__Z23ProcessRootMotionMixEndP35AnimationPlayableEvaluationConstantP32AnimationPlayableEvaluationInputP33AnimationPlayableEvaluationOutputPN7mecanim16ValueArrayWeightEf
1044:__ZN7mecanim27TransformValueArrayBlendEndEiiiPKNS_10ValueArrayERKNS_14ValueArrayMaskERKNS_16ValueArrayWeightERS0_
1045:__ZN7mecanim18ValueArrayBlendEndILb1EEEvPKNS_10ValueArrayERKNS_14ValueArrayMaskERKNS_16ValueArrayWeightERS1_
1046:__ZN7mecanim9animation20MotionOutputBlendEndEPNS0_12MotionOutputEbbRKNS_6bitsetILj83EEERf
1047:__ZN7mecanim9animation21MotionOutputBlendNodeEPNS0_12MotionOutputES2_fbbRKNS_6bitsetILj83EEE
1048:__ZN7mecanim28TransformValueArrayBlendNodeEiiiRKNS_10ValueArrayERKNS_14ValueArrayMaskERS0_RS3_RNS_16ValueArrayWeightEf
1049:__ZN7mecanim19ValueArrayBlendNodeILb1EEEvRKNS_10ValueArrayERKNS_14ValueArrayMaskERS1_RS4_RNS_16ValueArrayWeightEf
1050:__ZN7mecanim9animation22MotionOutputBlendBeginEPNS0_12MotionOutputEbb
1051:__ZN7mecanim29TransformValueArrayBlendBeginEiiiRNS_14ValueArrayMaskE
1052:__ZN7mecanim20ValueArrayBlendBeginILb1EEEvRNS_14ValueArrayMaskE
1053:__ZN7mecanim12SetValueMaskILb1EEEvPNS_14ValueArrayMaskEb
1054:__ZNK22AnimationMixerPlayable11DerivesFromE17ScriptingClassPtr
1055:__ZN27AnimationLayerMixerPlayableC2E18DirectorPlayerType
1056:__ZN27AnimationLayerMixerPlayableD2Ev
1057:__ZN27AnimationLayerMixerPlayableD0Ev
1058:__ZN27AnimationLayerMixerPlayable13SetInputCountEi
1059:__ZN27AnimationLayerMixerPlayable14SetInputWeightEif
1060:__ZNK27AnimationLayerMixerPlayable7GetTypeEv
1061:__ZNK27AnimationLayerMixerPlayable11DerivesFromE17ScriptingClassPtr
1062:__ZN27AnimationLayerMixerPlayable19DeallocateResourcesEv
1063:__ZN27AnimationLayerMixerPlayable18SetInputConnectionEP8Playableii
1064:__ZN27AnimationLayerMixerPlayable17ProcessRootMotionEP35AnimationPlayableEvaluationConstantP32AnimationPlayableEvaluationInputP33AnimationPlayableEvaluationOutput
1065:__ZN27AnimationLayerMixerPlayable16ProcessAnimationEP35AnimationPlayableEvaluationConstantP32AnimationPlayableEvaluationInputP33AnimationPlayableEvaluationOutput
1066:__ZN27AnimationLayerMixerPlayable22PrepareAnimationEventsEfR13dynamic_arrayI22AnimationClipEventInfoLj0EE
1067:__ZN27AnimationLayerMixerPlayable16AllocateBindingsEPK35AnimationPlayableEvaluationConstant
1068:__ZN27AnimationLayerMixerPlayable18DeallocateBindingsEv
1069:__ZN27AnimationLayerMixerPlayable13ClearBindingsEv
1070:__ZN27AnimationLayerMixerPlayable18GetLayerParametersEj
1071:__ZN27AnimationLayerMixerPlayable6Memory20CreateNodeStateArrayEiRKN7mecanim18ValueArrayConstantEbbbR20RuntimeBaseAllocator
1072:__ZN27AnimationLayerMixerPlayable27ProcessAnimationSingleLayerEP35AnimationPlayableEvaluationConstantP32AnimationPlayableEvaluationInputP33AnimationPlayableEvaluationOutput
1073:__ZN27AnimationLayerMixerPlayable26ProcessAnimationLayerBeginEP35AnimationPlayableEvaluationConstantP32AnimationPlayableEvaluationInputP33AnimationPlayableEvaluationOutput
1074:__ZN27AnimationLayerMixerPlayable24ProcessAnimationLayerMixEP33AnimationPlayableEvaluationOutputP35AnimationPlayableEvaluationConstantP32AnimationPlayableEvaluationInputS1_if
1075:__ZN27AnimationLayerMixerPlayable17LayerMixerProcessEP35AnimationPlayableEvaluationConstantP32AnimationPlayableEvaluationInputP33AnimationPlayableEvaluationOutputM17AnimationPlayableFvS1_S3_S5_EMS_FvS1_S3_S5_ESA_MS_FvS5_S1_S3_S5_ifE
1076:__ZN7mecanim12AndValueMaskILb0EEEvPKNS_14ValueArrayMaskEPS1_
1077:__ZN7mecanim13ValueArrayAddILb0EEEvPKNS_10ValueArrayES3_PKNS_14ValueArrayMaskEfbPS1_PS4_
1078:__ZN27AnimationLayerMixerPlayable8MixHumanEP33AnimationPlayableEvaluationOutputP35AnimationPlayableEvaluationConstantP32AnimationPlayableEvaluationInputS1_f
1079:__ZN7mecanim5human25HumanPoseAddAdditiveLayerERNS0_9HumanPoseERKS1_fRKNS_6bitsetILj83EEE
1080:__ZN7mecanim5human25HumanPoseAddOverrideLayerERNS0_9HumanPoseERKS1_fRKNS_6bitsetILj83EEE
1081:__ZN7mecanim5human14HumanPoseClearERNS0_9HumanPoseERKNS_6bitsetILj83EEE
1082:__ZN27AnimationLayerMixerPlayable28ProcessRootMotionSingleLayerEP35AnimationPlayableEvaluationConstantP32AnimationPlayableEvaluationInputP33AnimationPlayableEvaluationOutput
1083:__ZN27AnimationLayerMixerPlayable27ProcessRootMotionLayerBeginEP35AnimationPlayableEvaluationConstantP32AnimationPlayableEvaluationInputP33AnimationPlayableEvaluationOutput
1084:__ZN27AnimationLayerMixerPlayable25ProcessRootMotionLayerMixEP33AnimationPlayableEvaluationOutputP35AnimationPlayableEvaluationConstantP32AnimationPlayableEvaluationInputS1_if
1085:__ZN7mecanim22TransformValueArrayAddEiiiPKNS_10ValueArrayES2_PKNS_14ValueArrayMaskEfbPS0_PS3_
1086:__ZN7mecanim13ValueArrayAddILb1EEEvPKNS_10ValueArrayES3_PKNS_14ValueArrayMaskEfbPS1_PS4_
1087:__ZN7mecanim9animation22MotionAddOverrideLayerEPNS0_12MotionOutputEPKS1_fbbRKNS_6bitsetILj83EEE
1088:__ZN7mecanim14ValueArrayCopyILb1EEEvPKNS_10ValueArrayEPS1_
1089:__ZN7mecanim9animation21CreateControllerInputEPKNS0_18ControllerConstantER20RuntimeBaseAllocator
1090:__ZN7mecanim9animation22CreateControllerMemoryEPKNS0_18ControllerConstantER20RuntimeBaseAllocator
1091:__ZN7mecanim9animation25CreateControllerWorkspaceEPKNS0_18ControllerConstantER20RuntimeBaseAllocator
1092:__ZN7mecanim12statemachine24CreateStateMachineOutputEPKNS0_20StateMachineConstantEjR20RuntimeBaseAllocator
1093:__ZN7mecanim12statemachine27CreateStateMachineWorkspaceEPKNS0_20StateMachineConstantEjR20RuntimeBaseAllocator
1094:__ZN7mecanim12statemachine20GetBlendTreeConstantERKNS0_13StateConstantEi
1095:__ZN7mecanim12statemachine20CreateStateWorkspaceEjjjR20RuntimeBaseAllocator
1096:__ZN7mecanim9animation21CreateBlendTreeOutputEjR20RuntimeBaseAllocator
1097:__ZN7mecanim9animation24CreateBlendTreeWorkspaceEjR20RuntimeBaseAllocator
1098:__ZN7mecanim12statemachine24CreateStateMachineMemoryEPKNS0_20StateMachineConstantER20RuntimeBaseAllocator
1099:__ZN26AnimatorControllerPlayableC2E18DirectorPlayerType
1100:__ZN26AnimatorControllerPlayableD2Ev
1101:__ZN26AnimatorControllerPlayableD0Ev
1102:__ZNK26AnimatorControllerPlayable17IsMultithreadableEv
1103:__ZN26AnimatorControllerPlayable12PrepareFrameERK19DirectorVisitorInfo
1104:__ZNK26AnimatorControllerPlayable7GetTypeEv
1105:__ZNK26AnimatorControllerPlayable11DerivesFromE17ScriptingClassPtr
1106:__ZN26AnimatorControllerPlayable19DeallocateResourcesEv
1107:__ZN26AnimatorControllerPlayable17ProcessRootMotionEP35AnimationPlayableEvaluationConstantP32AnimationPlayableEvaluationInputP33AnimationPlayableEvaluationOutput
1108:__ZN26AnimatorControllerPlayable16ProcessAnimationEP35AnimationPlayableEvaluationConstantP32AnimationPlayableEvaluationInputP33AnimationPlayableEvaluationOutput
1109:__ZN26AnimatorControllerPlayable17GetAnimationClipsER13dynamic_arrayIP13AnimationClipLj0EE
1110:__ZN26AnimatorControllerPlayable19PreProcessAnimationEPK35AnimationPlayableEvaluationConstantPKN7mecanim9animation18AnimationNodeStateE
1111:__ZN26AnimatorControllerPlayable22PrepareAnimationEventsEfR13dynamic_arrayI22AnimationClipEventInfoLj0EE
1112:__ZN26AnimatorControllerPlayable34CollectAnimatorControllerPlayablesER13dynamic_arrayIPS_Lj0EE
1113:__ZN26AnimatorControllerPlayable13AddObjectUserER8UserList
1114:__ZN26AnimatorControllerPlayable16AllocateBindingsEPK35AnimationPlayableEvaluationConstant
1115:__ZN26AnimatorControllerPlayable18DeallocateBindingsEv
1116:__ZNK26AnimatorControllerPlayable8GetAssetEv
1117:__ZN26AnimatorControllerPlayable27SetupStateMachineBehavioursEv
1118:__ZN26AnimatorControllerPlayable29CleanupStateMachineBehavioursEv
1119:__ZN26AnimatorControllerPlayable8GetFloatEiRf
1120:__ZN26AnimatorControllerPlayable8SetFloatEiRKf
1121:__ZN26AnimatorControllerPlayable10GetIntegerEiRi
1122:__ZN26AnimatorControllerPlayable10SetIntegerEiRKi
1123:__ZN26AnimatorControllerPlayable7GetBoolEiRb
1124:__ZN26AnimatorControllerPlayable7SetBoolEiRKb
1125:__ZN26AnimatorControllerPlayable12ResetTriggerEi
1126:__ZN26AnimatorControllerPlayable10SetTriggerEi
1127:__ZNK26AnimatorControllerPlayable24HasStateMachineBehaviourEv
1128:__ZNK26AnimatorControllerPlayable25GetStateMachineBehavioursEv
1129:__ZNK26AnimatorControllerPlayable41GetStateMachineBehaviourVectorDescriptionEv
1130:__ZNK26AnimatorControllerPlayable13IsInitializedEv
1131:__ZThn156_NK26AnimatorControllerPlayable13IsInitializedEv
1132:__ZThn156_NK26AnimatorControllerPlayable24HasStateMachineBehaviourEv
1133:__ZThn156_NK26AnimatorControllerPlayable25GetStateMachineBehavioursEv
1134:__ZThn156_NK26AnimatorControllerPlayable41GetStateMachineBehaviourVectorDescriptionEv
1135:__ZN13dynamic_arrayI4PPtrI13MonoBehaviourELj0EE9push_backERKS2_
1136:__ZN7mecanim9animation22DestroyControllerInputEPNS0_15ControllerInputER20RuntimeBaseAllocator
1137:__ZN7mecanim9animation23DestroyControllerMemoryEPNS0_16ControllerMemoryER20RuntimeBaseAllocator
1138:__ZN7mecanim9animation26DestroyControllerWorkspaceEPNS0_19ControllerWorkspaceER20RuntimeBaseAllocator
1139:__ZN7mecanim12statemachine28DestroyStateMachineWorkspaceEPNS0_21StateMachineWorkspaceER20RuntimeBaseAllocator
1140:__ZN7mecanim12statemachine21DestroyStateWorkspaceEPNS0_14StateWorkspaceER20RuntimeBaseAllocator
1141:__ZN7mecanim9animation25DestroyBlendTreeWorkspaceEPNS0_18BlendTreeWorkspaceER20RuntimeBaseAllocator
1142:__ZN7mecanim21ValueArrayReverseCopyEPKNS_18ValueArrayConstantEPKNS_10ValueArrayES2_PS3_PKi
1143:__ZN27AnimationLayerMixerPlayable16SetLayerMaskCopyEjRKN7mecanim6bitsetILj83EEEPKNS0_8skeleton12SkeletonMaskE
1144:__ZN7mecanim8skeleton18CreateSkeletonMaskEjPKNS0_19SkeletonMaskElementER20RuntimeBaseAllocator
1145:__ZN7mecanim14ValueArrayCopyEPKNS_18ValueArrayConstantEPKNS_10ValueArrayES2_PS3_PKi
1146:__ZN26AnimatorControllerPlayable12PrepareFrameERK9FrameDataP8Playableb
1147:__ZN26AnimatorControllerPlayable11UpdateGraphEf
1148:__ZN7mecanim12statemachine20EvaluateStateMachineERKNS0_20StateMachineConstantERKNS0_17StateMachineInputERNS0_18StateMachineOutputERNS0_18StateMachineMemoryERNS0_21StateMachineWorkspaceE
1149:__ZN34AnimationStateMachineMixerPlayable13EndTransitionEv
1150:__ZN7mecanim12statemachine19EvaluateTransitionsERK9OffsetPtrIS1_INS0_18TransitionConstantEEEjRNS0_15TransitionInputERNS0_16TransitionOutputERNS0_16TransitionMemoryEPKNS0_20StateMachineConstantEPKNS0_17StateMachineInputEPNS0_18StateMachineOutputEPNS0_18StateMachineMemoryEPNS0_21StateMachineWorkspaceEi
1151:__ZN34AnimationStateMachineMixerPlayable26StartInterruptedTransitionEbb
1152:__ZN7mecanim12statemachine18EvaluateTransitionEPKNS0_18TransitionConstantEPKNS0_15TransitionInputEPNS0_16TransitionOutputEPKNS0_16TransitionMemoryEPNS0_21StateMachineWorkspaceE
1153:__ZN7mecanim12statemachine17EvaluateSelectorsEPKNS0_20StateMachineConstantEPKNS_18ValueArrayConstantEPNS_10ValueArrayEjPKNS0_17StateMachineInputEPNS0_18StateMachineMemoryEPNS0_21StateMachineWorkspaceE
1154:__ZNK27StateMachineBehaviourPlayer25FireStateMachineBehaviourEiiN7mecanim12statemachine19StateMachineMessageE
1155:__ZN7mecanim12statemachine17EvaluateConditionEPKNS0_17ConditionConstantEPKNS_18ValueArrayConstantEPKNS_10ValueArrayE
1156:__ZNK27StateMachineBehaviourPlayer13FireBehaviourER8StateKeyR18ScriptingArgumentsN7mecanim12statemachine19StateMachineMessageEb
1157:__Z24FindStateBehavioursRangeRK8StateKeyPK38StateMachineBehaviourVectorDescription
1158:__ZN21AnimationClipPlayable7SetClipEP13AnimationClip
1159:__ZN13PlayableGraph12CreateOutputI23AnimationPlayableOutputEEPT_PKc
1160:__ZN23AnimationPlayableOutput17SetTargetAnimatorEP8Animator
1161:__ZN8Animator16OnPlayableUnbindEP23AnimationPlayableOutput
1162:__ZN8Animator14OnPlayableBindEP23AnimationPlayableOutput
1163:__ZN13dynamic_arrayI13BoundPlayableLj0EE6insertEPS0_jRKS0_
1164:__ZN8Animator13ClearBindingsEv
1165:__ZN8Animator28BuildControllerPlayableCacheEv
1166:__ZN11UnityEngine9Animation30DestroyAnimatorGenericBindingsEPNS0_30AnimatorGenericBindingConstantER20RuntimeBaseAllocator
1167:__ZN17AnimationPlayable28UpdateInternalStateRecursiveILi1ELb0EEEvPK35AnimationPlayableEvaluationConstant
1168:__ZN11UnityEngine9Animation31UnregisterGenericBindingObjectsEPNS0_30AnimatorGenericBindingConstantE
1169:__ZN11UnityEngine9AnimationL22GenericBindingCallbackEPvS1_i
1170:__ZN14PlayableOutputD2Ev
1171:__ZNK23AnimationPlayableOutput7GetTypeEv
1172:__ZNK23AnimationPlayableOutput11DerivesFromE17ScriptingClassPtr
1173:__ZNK23AnimationPlayableOutput9GetStagesER13dynamic_arrayI16StageDescriptionLj0EE
1174:__ZN23AnimationPlayableOutput17SetSourcePlayableEP8Playable
1175:__ZN23AnimationPlayableOutput17OnPlayerDestroyedEP6Object
1176:__ZN23AnimationPlayableOutput19SetSourceOutputPortEi
1177:__ZN23AnimationPlayableOutput22OnConnectionHashChangeEv
1178:__ZN23AnimationPlayableOutput7DestroyEv
1179:__ZN8Animator22OnGraphTopologyChangedEP8Playablei
1180:__ZN8Animator25WriteDefaultValuesNoDirtyEv
1181:__ZN8Animator14CreateBindingsEv
1182:__ZN8Animator20CreatePlayableMemoryEv
1183:__ZN8Animator21SetupPlayableConstantEv
1184:__ZN21AnimationHandleBinder10ResolveAllERK35AnimationPlayableEvaluationConstant
1185:__ZN31AnimationStreamHandleDefinition7ResolveERK35AnimationPlayableEvaluationConstant
1186:__ZN21AnimationHandleBinder22ResolveAllSceneHandlesERK35AnimationPlayableEvaluationConstant
1187:__ZN11UnityEngine9Animation28GenericAnimationBindingCache11BindGenericERKNS0_14GenericBindingER9TransformRNS0_10BoundCurveE
1188:__ZL48InvalidatePropertySceneHandleBoundCurvesCallbackPvS_i
1189:__ZNK11UnityEngine9Animation28GenericAnimationBindingCache10BindCustomERKNS0_14GenericBindingER9TransformRNS0_10BoundCurveE
1190:__ZN11UnityEngine9Animation28GenericAnimationBindingCache10BindScriptERKNS0_14GenericBindingER9TransformRNS0_10BoundCurveE
1191:__ZN11UnityEngine9Animation28GenericAnimationBindingCache20BindGenericComponentERKNS0_14GenericBindingER9TransformRNS0_10BoundCurveE
1192:__ZN11UnityEngine9AnimationL24GenerateComponentBindingEPKN5Unity4TypeE18ScriptingObjectPtr17ScriptingClassPtrP6Object
1193:__ZNSt3__26__sortIRNS_6__lessIN11UnityEngine9Animation13CachedBindingES4_EEPS4_EEvT0_S8_T_
1194:__ZN11UnityEngine9AnimationL22GenerateBindingRecurseERK16TypeTreeIterator18ScriptingObjectPtr5crc32R13dynamic_arrayINS0_13CachedBindingELj0EE
1195:__ZN11UnityEngine9Animation19GetTypeTreeBindTypeERK16TypeTreeIterator
1196:__ZNSt3__27__sort4IRNS_6__lessIN11UnityEngine9Animation13CachedBindingES4_EEPS4_EEjT0_S8_S8_S8_T_
1197:__ZNSt3__227__insertion_sort_incompleteIRNS_6__lessIN11UnityEngine9Animation13CachedBindingES4_EEPS4_EEbT0_S8_T_
1198:__ZN4coreplEPKcRKNS_12basic_stringIcNS_20StringStorageDefaultIcEEEE
1199:__ZN4coreplERKNS_12basic_stringIcNS_20StringStorageDefaultIcEEEEPKc
1200:__ZN4coreplERKNS_12basic_stringIcNS_20StringStorageDefaultIcEEEES5_
1201:__ZN17AnimationPlayable28UpdateInternalStateRecursiveILi3ELb0EEEvPK35AnimationPlayableEvaluationConstant
1202:__ZN11UnityEngine9Animation26CreateAnimationSetBindingsERK13dynamic_arrayIP13AnimationClipLj0EER20RuntimeBaseAllocator
1203:__ZN11UnityEngine9Animation27DestroyAnimationSetBindingsEPNS0_20AnimationSetBindingsER20RuntimeBaseAllocator
1204:__ZN7mecanim9animation32DeallocateAvatarOuputForBindingsEPNS0_12AvatarOutputER20RuntimeBaseAllocator
1205:__ZN8Animator20SetupBindingsDataSetEN4core8AllocPtrIN11UnityEngine9Animation20AnimationSetBindingsE20MecanimDestroyPolicyIS4_EEERNS_15BindingsDataSetERNS_13AvatarDataSetE
1206:__ZN11UnityEngine9Animation29CreateAnimatorGenericBindingsERKNS0_20AnimationSetBindingsER9TransformPKN7mecanim9animation14AvatarConstantEbR20RuntimeBaseAllocatorR8Animator
1207:__ZN11UnityEngine9Animation32CreateAnimatorGenericBindingsOptERKNS0_20AnimationSetBindingsER9TransformPKN7mecanim9animation14AvatarConstantEPKNS0_21AvatarBindingConstantEbR20RuntimeBaseAllocatorR8Animator
1208:__ZN7mecanim9animation30AllocateAvatarOuputForBindingsEPNS0_12AvatarOutputEbPKNS_18ValueArrayConstantER20RuntimeBaseAllocator
1209:__ZN11UnityEngine9AnimationL56CalculateTransformBindingSizeBasedOnConstantOptimizationERKNS0_20AnimationSetBindingsERK13dynamic_arrayINS0_14BoundTransformELj0EEPKiPKN7mecanim9animation14AvatarConstantEb
1210:__ZN11UnityEngine9Animation28GenericAnimationBindingCache15BindPPtrGenericERKNS0_14GenericBindingER9TransformRNS0_10BoundCurveE
1211:__ZN7mecanim28CreateValueArrayConstantCopyEPKNS_18ValueArrayConstantEjR20RuntimeBaseAllocator
1212:__ZN11UnityEngine9AnimationL29RegisterGenericBindingObjectsEPNS0_30AnimatorGenericBindingConstantE
1213:__ZN11UnityEngine9AnimationL23InitializeDefaultValuesERKNS0_30AnimatorGenericBindingConstantEPKN7mecanim9animation14AvatarConstantEb
1214:__ZN7mecanim9animation21ValueFromSkeletonPoseERKNS_8skeleton8SkeletonERKNS1_13SkeletonPoseTIN4math4trsXEEEPKNS0_14SkeletonTQSMapERNS_10ValueArrayE
1215:__ZN11UnityEngine9Animation23GetBoundCurveFloatValueERKNS0_10BoundCurveE
1216:__ZN11UnityEngine9Animation28GetBoundCurveInstanceIDValueERKNS0_10BoundCurveE
1217:__ZN7mecanim9animation19DestroyAnimationSetEPNS0_12AnimationSetER20RuntimeBaseAllocator
1218:__ZN7mecanim9animation18CreateAnimationSetEjR20RuntimeBaseAllocator
1219:__ZN4core8hash_mapIN11UnityEngine9Animation14GenericBindingENS2_10BoundIndexENS2_25GenericBindingHashFunctorENS2_30GenericBindingValueArrayUniqueEE6insertERKS3_RKS4_
1220:__ZNSt3__26__sortIRN11UnityEngine9Animation11BindingSortEPNS_4pairINS2_14GenericBindingEPNS2_10BoundIndexEEEEEvT0_SB_T_
1221:__ZN11UnityEngine9Animation15IsMuscleBindingERKNS0_14GenericBindingE
1222:__ZNK11UnityEngine9Animation30GenericBindingValueArrayUniqueclERKNS0_14GenericBindingES4_
1223:__ZN7mecanim24CreateValueArrayConstantENS_9ValueTypeEjR20RuntimeBaseAllocator
1224:__ZN11UnityEngine9AnimationltERKNS0_14GenericBindingES3_
1225:__ZNSt3__27__sort3IRN11UnityEngine9Animation11BindingSortEPNS_4pairINS2_14GenericBindingEPNS2_10BoundIndexEEEEEjT0_SB_SB_T_
1226:__ZNSt3__27__sort4IRN11UnityEngine9Animation11BindingSortEPNS_4pairINS2_14GenericBindingEPNS2_10BoundIndexEEEEEjT0_SB_SB_SB_T_
1227:__ZNSt3__27__sort5IRN11UnityEngine9Animation11BindingSortEPNS_4pairINS2_14GenericBindingEPNS2_10BoundIndexEEEEEjT0_SB_SB_SB_SB_T_
1228:__ZNSt3__218__insertion_sort_3IRN11UnityEngine9Animation11BindingSortEPNS_4pairINS2_14GenericBindingEPNS2_10BoundIndexEEEEEvT0_SB_T_
1229:__ZNSt3__227__insertion_sort_incompleteIRN11UnityEngine9Animation11BindingSortEPNS_4pairINS2_14GenericBindingEPNS2_10BoundIndexEEEEEbT0_SB_T_
1230:__ZN4core8hash_setINS_4pairIKN11UnityEngine9Animation14GenericBindingENS3_10BoundIndexELb0EEENS_9hash_pairINS3_25GenericBindingHashFunctorES5_S6_EENS_10equal_pairINS3_30GenericBindingValueArrayUniqueES5_S6_EEE4growEi
1231:__ZNK21AnimationHandleBinder36CreateAnimationStreamHandlesBindingsEv
1232:__ZNK21AnimationHandleBinder21BuildClipFromBindingsERK13dynamic_arrayI31AnimationStreamHandleDefinitionLj0EEP13AnimationClip
1233:__ZN13AnimationClip11ClearCurvesEv
1234:__ZN13AnimationClip18CleanupMecanimDataEv
1235:__ZN13AnimationClip26BuildMecanimDataMainThreadEv
1236:__ZN13AnimationClip16AddPositionCurveERK17AnimationCurveTplI8Vector3fERKN4core12basic_stringIcNS5_20StringStorageDefaultIcEEEE
1237:__ZN13AnimationClip18AddQuaternionCurveERK17AnimationCurveTplI11QuaternionfERKN4core12basic_stringIcNS5_20StringStorageDefaultIcEEEE
1238:__ZN13AnimationClip13AddScaleCurveERK17AnimationCurveTplI8Vector3fERKN4core12basic_stringIcNS5_20StringStorageDefaultIcEEEE
1239:__ZN13AnimationClip13AddFloatCurveERK17AnimationCurveTplIfERKN4core12basic_stringIcNS4_20StringStorageDefaultIcEEEEPKN5Unity4TypeESA_4PPtrI10MonoScriptE
1240:__ZN13AnimationClip10FloatCurveC2ERKS0_
1241:__ZNSt3__26vectorIN13AnimationClip10FloatCurveE13stl_allocatorIS2_L18MemLabelIdentifier26ELi16EEE21__push_back_slow_pathIS2_EEvOT_
1242:__ZNSt3__214__split_bufferIN13AnimationClip10FloatCurveER13stl_allocatorIS2_L18MemLabelIdentifier26ELi16EEED2Ev
1243:__ZNSt3__26vectorIN13AnimationClip12Vector3CurveE13stl_allocatorIS2_L18MemLabelIdentifier26ELi16EEE21__push_back_slow_pathIS2_EEvOT_
1244:__ZN17AnimationCurveTplI8Vector3fEC2ERKS1_
1245:__ZN13stl_allocatorIN13AnimationClip15QuaternionCurveEL18MemLabelIdentifier26ELi16EE9constructEPS1_RKS1_
1246:__ZNSt3__26vectorIN13AnimationClip15QuaternionCurveE13stl_allocatorIS2_L18MemLabelIdentifier26ELi16EEE21__push_back_slow_pathIS2_EEvOT_
1247:__ZN13AnimationClip18GenerateMuscleClipEv
1248:__ZN13AnimationClip8GetRangeEv
1249:__ZN7mecanim9animation15FindMuscleIndexEj
1250:__ZNSt3__26vectorIP17AnimationCurveTplI8Vector3fE13stl_allocatorIS4_L18MemLabelIdentifier1ELi16EEE21__push_back_slow_pathIS4_EEvOT_
1251:__Z32GenerateRootMotionPositionCurvesRNSt3__26vectorI15RootMotionCurve13stl_allocatorIS1_L18MemLabelIdentifier1ELi16EEEERK17AnimationCurveTplI8Vector3fE
1252:__Z29AddPositionCurveToClipBuilderR17AnimationCurveTplI8Vector3fERKN4core12basic_stringIcNS3_20StringStorageDefaultIcEEEER18MecanimClipBuilderb
1253:__Z32GenerateRootMotionRotationCurvesRNSt3__26vectorI15RootMotionCurve13stl_allocatorIS1_L18MemLabelIdentifier1ELi16EEEERK17AnimationCurveTplI11QuaternionfE
1254:__Z29AddRotationCurveToClipBuilderR17AnimationCurveTplI11QuaternionfERKN4core12basic_stringIcNS3_20StringStorageDefaultIcEEEER18MecanimClipBuilderb
1255:__Z32GenerateRootMotionRotationCurvesRNSt3__26vectorI15RootMotionCurve13stl_allocatorIS1_L18MemLabelIdentifier1ELi16EEEERK17AnimationCurveTplI8Vector3fEf
1256:__Z26AddEulerCurveToClipBuilderR17AnimationCurveTplI8Vector3fERKN4core12basic_stringIcNS3_20StringStorageDefaultIcEEEER18MecanimClipBuilderb
1257:__Z26AddScaleCurveToClipBuilderR17AnimationCurveTplI8Vector3fERKN4core12basic_stringIcNS3_20StringStorageDefaultIcEEEER18MecanimClipBuilderb
1258:__ZNK11UnityEngine9Animation28GenericAnimationBindingCache20CreateGenericBindingERKN4core12basic_stringIcNS2_20StringStorageDefaultIcEEEEPKN5Unity4TypeE4PPtrI10MonoScriptES8_bRNS0_14GenericBindingE
1259:__Z28AddGenericCurveToClipBuilderR17AnimationCurveTplIfERKN11UnityEngine9Animation14GenericBindingER18MecanimClipBuilderb
1260:__Z18PrepareClipBuilderR18MecanimClipBuilder
1261:__Z25AddPPtrCurveToClipBuilderR13dynamic_arrayI12PPtrKeyframeLj0EERKN11UnityEngine9Animation14GenericBindingER18MecanimClipBuilder
1262:__Z15BuildMuscleClipRK18MecanimClipBuilderRK21AnimationClipSettingsbRN11UnityEngine9Animation28AnimationClipBindingConstantER20RuntimeBaseAllocator
1263:__ZN9BlobWrite8TransferIN7mecanim9animation18ClipMuscleConstantEEEvRT_PKc17TransferMetaFlags
1264:__Z23PatchMuscleClipWithInfoP13AnimationClipRK21AnimationClipSettingsbPN7mecanim9animation18ClipMuscleConstantER20RuntimeBaseAllocator
1265:__ZN18MecanimClipBuilder6CurvesD2Ev
1266:__ZN7mecanim9animation25InitClipMuscleDeltaValuesERNS0_18ClipMuscleConstantEb
1267:__ZN7mecanim9animation26InitClipMuscleAverageSpeedERNS0_18ClipMuscleConstantEi
1268:__Z26InitClipMuscleAdditivePoseRN7mecanim9animation18ClipMuscleConstantES2_PN11UnityEngine9Animation20AnimationSetBindingsEfR20RuntimeBaseAllocator
1269:__ZN7mecanim9animation16CreateClipMemoryEPKNS0_4ClipER20RuntimeBaseAllocator
1270:__ZN7mecanim9animation18ClipMuscleConstant8TransferI8BlobSizeEEvRT_
1271:__ZN7mecanim9animation18ClipMuscleConstant8TransferI9BlobWriteEEvRT_
1272:__ZN9BlobWrite8TransferIN7mecanim5human9HumanPoseEEEvRT_PKc17TransferMetaFlags
1273:__ZN9BlobWrite8TransferIN4math4trsXEEEvRT_PKc17TransferMetaFlags
1274:__ZN9BlobWrite8TransferIKN4math7_float3EEEvRT_PKc17TransferMetaFlags
1275:__ZN9BlobWrite8TransferI9OffsetPtrIN7mecanim9animation4ClipEEEEvRT_PKc17TransferMetaFlags
1276:__ZN9BlobWrite8TransferIfEEvRT_PKc17TransferMetaFlags
1277:__ZN9BlobWrite8TransferI19StaticArrayTransferIiLi200EEEEvRT_PKc17TransferMetaFlags
1278:__ZN9BlobWrite8TransferI22OffsetPtrArrayTransferIN7mecanim9animation10ValueDeltaEEEEvRT_PKc17TransferMetaFlags
1279:__ZN9BlobWrite8TransferI22OffsetPtrArrayTransferIfEEEvRT_PKc17TransferMetaFlags
1280:__ZN9BlobWrite8TransferIbEEvRT_PKc17TransferMetaFlags
1281:__ZN34BlobWriteTransferSTLStyleArrayImplI22OffsetPtrArrayTransferIfEEclERS1_17TransferMetaFlagsR9BlobWrite
1282:__ZN34BlobWriteTransferSTLStyleArrayImplI22OffsetPtrArrayTransferIN7mecanim9animation10ValueDeltaEEEclERS4_17TransferMetaFlagsR9BlobWrite
1283:__ZN9BlobWrite8TransferIN7mecanim9animation10ValueDeltaEEEvRT_PKc17TransferMetaFlags
1284:__ZN9BlobWrite8TransferIN7mecanim9animation4ClipEEEvRT_PKc17TransferMetaFlags
1285:__ZN7mecanim9animation4Clip8TransferI8BlobSizeEEvRT_
1286:__ZN9BlobWrite8TransferIN7mecanim9animation12StreamedClipEEEvRT_PKc17TransferMetaFlags
1287:__ZN9BlobWrite8TransferIN7mecanim9animation9DenseClipEEEvRT_PKc17TransferMetaFlags
1288:__ZN9BlobWrite8TransferIN7mecanim9animation12ConstantClipEEEvRT_PKc17TransferMetaFlags
1289:__ZN9BlobWrite8TransferI9OffsetPtrIN7mecanim18ValueArrayConstantEEEEvRT_PKc17TransferMetaFlags
1290:__ZN9BlobWrite8TransferIN7mecanim18ValueArrayConstantEEEvRT_PKc17TransferMetaFlags
1291:__ZN9BlobWrite8TransferI22OffsetPtrArrayTransferIN7mecanim13ValueConstantEEEEvRT_PKc17TransferMetaFlags
1292:__ZN34BlobWriteTransferSTLStyleArrayImplI22OffsetPtrArrayTransferIN7mecanim13ValueConstantEEEclERS3_17TransferMetaFlagsR9BlobWrite
1293:__ZN9BlobWrite8TransferIN7mecanim13ValueConstantEEEvRT_PKc17TransferMetaFlags
1294:__ZN15SerializeTraitsIN4math4trsXEE8TransferI8BlobSizeEEvRS1_RT_
1295:__ZN9BlobWrite8TransferIKN4math7_float4EEEvRT_PKc17TransferMetaFlags
1296:__ZN7mecanim5human9HumanPose8TransferI8BlobSizeEEvRT_
1297:__ZN9BlobWrite8TransferI19StaticArrayTransferIN7mecanim5human9HumanGoalELi4EEEEvRT_PKc17TransferMetaFlags
1298:__ZN9BlobWrite8TransferIN7mecanim4hand8HandPoseEEEvRT_PKc17TransferMetaFlags
1299:__ZN9BlobWrite8TransferI19StaticArrayTransferIKN4math7_float3ELi21EEEEvRT_PKc17TransferMetaFlags
1300:__ZN9BlobWrite8TransferIN7mecanim5human9HumanGoalEEEvRT_PKc17TransferMetaFlags
1301:__ZN7mecanim5human9HumanGoal8TransferI8BlobSizeEEvRT_
1302:__ZN13dynamic_arrayIN11UnityEngine9Animation14GenericBindingELj0EE6insertEPS2_PKS2_S6_
1303:__ZN7mecanim9animation16CreateClipSimpleEjR20RuntimeBaseAllocator
1304:__Z25CreateStreamedClipBuilderjj
1305:__ZN7mecanim9animation18CreateConstantClipERNS0_12ConstantClipEjR20RuntimeBaseAllocator
1306:__Z15CreateDenseClipRN7mecanim9animation9DenseClipEjfffR20RuntimeBaseAllocator
1307:__Z22AddCurveToStreamedClipI8Vector3fEvP19StreamedClipBuilderiRK17AnimationCurveTplIT_E
1308:__Z19AddCurveToDenseClipI8Vector3fEvRN7mecanim9animation9DenseClipEiRK17AnimationCurveTplIT_E
1309:__Z22AddCurveToStreamedClipI11QuaternionfEvP19StreamedClipBuilderiRK17AnimationCurveTplIT_E
1310:__Z19AddCurveToDenseClipI11QuaternionfEvRN7mecanim9animation9DenseClipEiRK17AnimationCurveTplIT_E
1311:__Z22AddCurveToStreamedClipIfEvP19StreamedClipBuilderiRK17AnimationCurveTplIT_E
1312:__Z19AddCurveToDenseClipIfEvRN7mecanim9animation9DenseClipEiRK17AnimationCurveTplIT_E
1313:__ZL32AddMappedPPtrCurveToStreamedClipP19StreamedClipBuilderiRN11UnityEngine9Animation28AnimationClipBindingConstantERK13dynamic_arrayI12PPtrKeyframeLj0EE
1314:__Z24CreateStreamClipConstantP19StreamedClipBuilderRN7mecanim9animation12StreamedClipER20RuntimeBaseAllocator
1315:__Z26DestroyStreamedClipBuilderP19StreamedClipBuilder
1316:__ZN7mecanim9animation24CreateClipMuscleConstantEPNS0_4ClipER20RuntimeBaseAllocator
1317:__ZNSt3__26__sortIRNS_6__lessI13BuildCurveKeyS2_EEPS2_EEvT0_S6_T_
1318:__ZNSt3__27__sort4IRNS_6__lessI13BuildCurveKeyS2_EEPS2_EEjT0_S6_S6_S6_T_
1319:__ZNSt3__27__sort5IRNS_6__lessI13BuildCurveKeyS2_EEPS2_EEjT0_S6_S6_S6_S6_T_
1320:__ZNSt3__218__insertion_sort_3IRNS_6__lessI13BuildCurveKeyS2_EEPS2_EEvT0_S6_T_
1321:__ZNSt3__227__insertion_sort_incompleteIRNS_6__lessI13BuildCurveKeyS2_EEPS2_EEbT0_S6_T_
1322:__Z29AddIntegerCurveToStreamedClipP19StreamedClipBuilderiPfPii
1323:__Z23ConvertCacheToBuildKeysIfEvRN17AnimationCurveTplIT_E5CacheEiP19StreamedClipBuilder
1324:__Z23ConvertCacheToBuildKeysI11QuaternionfEvRN17AnimationCurveTplIT_E5CacheEiP19StreamedClipBuilder
1325:__Z23ConvertCacheToBuildKeysI8Vector3fEvRN17AnimationCurveTplIT_E5CacheEiP19StreamedClipBuilder
1326:__ZN11UnityEngine9Animation20IsDiscreteIntBindingE4PPtrI10MonoScriptERKN4core12basic_stringIcNS4_20StringStorageDefaultIcEEEEPKN5Unity4TypeE
1327:__ZL13ClassifyCurveI8Vector3fE11ClipOptTypeR17AnimationCurveTplIT_Ebf
1328:__ZN11UnityEngine9Animation22CreateTransformBindingERKN4core12basic_stringIcNS1_20StringStorageDefaultIcEEEEiRNS0_14GenericBindingE
1329:__ZNSt3__26vectorI15RootMotionCurve13stl_allocatorIS1_L18MemLabelIdentifier1ELi16EEE21__push_back_slow_pathIRKS1_EEvOT_
1330:__ZN18MecanimClipBuilderC2Ev
1331:__ZN6Motion17NotifyObjectUsersERK17MessageIdentifier
1332:__ZN13AnimationClipC2E10MemLabelId18ObjectCreationMode
1333:__ZN6MotionC2E10MemLabelId18ObjectCreationMode
1334:__ZN7mecanim6memory16ChainedAllocator8AllocateEjj
1335:__ZN13AnimationClipD2Ev
1336:__ZN13AnimationClipD0Ev
1337:__ZN13AnimationClip17MainThreadCleanupEv
1338:__ZN13AnimationClip13AwakeFromLoadE17AwakeFromLoadMode
1339:__ZNK13AnimationClip22GetTypeVirtualInternalEv
1340:__ZN13AnimationClip7SetNameEPKc
1341:__ZN13AnimationClip23VirtualRedirectTransferER19StreamedBinaryWrite
1342:__ZN13AnimationClip23VirtualRedirectTransferER18StreamedBinaryRead
1343:__ZN13AnimationClip23VirtualRedirectTransferER17RemapPPtrTransfer
1344:__ZN13AnimationClip23VirtualRedirectTransferER24GenerateTypeTreeTransfer
1345:__ZN13AnimationClip23VirtualRedirectTransferER14SafeBinaryRead
1346:__ZNK13AnimationClip18GetAverageDurationEv
1347:__ZNK13AnimationClip22GetAverageAngularSpeedEv
1348:__ZNK13AnimationClip15GetAverageSpeedEv
1349:__ZNK13AnimationClip16GetApparentSpeedEv
1350:__ZNK13AnimationClip13IsHumanMotionEv
1351:__ZNK13AnimationClip9IsLoopingEv
1352:__ZNK13AnimationClip17GetAnimationClipsEv
1353:__ZNK13AnimationClip8IsLegacyEv
1354:__ZN13AnimationClip8TransferI14SafeBinaryReadEEvRT_
1355:__ZN14SafeBinaryRead21TransferSTLStyleArrayINSt3__26vectorIN13AnimationClip15QuaternionCurveE13stl_allocatorIS4_L18MemLabelIdentifier26ELi16EEEEEEvRT_17TransferMetaFlags
1356:__ZN14SafeBinaryRead21TransferSTLStyleArrayINSt3__26vectorI24CompressedAnimationCurve13stl_allocatorIS3_L18MemLabelIdentifier26ELi16EEEEEEvRT_17TransferMetaFlags
1357:__ZN13stl_allocatorI24CompressedAnimationCurveL18MemLabelIdentifier26ELi16EE7destroyEPS0_
1358:__ZNSt3__26vectorIN13AnimationClip15QuaternionCurveE13stl_allocatorIS2_L18MemLabelIdentifier26ELi16EEE6resizeEj
1359:__ZN14SafeBinaryRead21TransferSTLStyleArrayINSt3__26vectorIN13AnimationClip12Vector3CurveE13stl_allocatorIS4_L18MemLabelIdentifier26ELi16EEEEEEvRT_17TransferMetaFlags
1360:__ZN14SafeBinaryRead21TransferSTLStyleArrayINSt3__26vectorIN13AnimationClip10FloatCurveE13stl_allocatorIS4_L18MemLabelIdentifier26ELi16EEEEEEvRT_17TransferMetaFlags
1361:__ZN14SafeBinaryRead21TransferSTLStyleArrayINSt3__26vectorIN13AnimationClip9PPtrCurveE13stl_allocatorIS4_L18MemLabelIdentifier26ELi16EEEEEEvRT_17TransferMetaFlags
1362:__ZL51RenameMotionCurvesToRootCurvesBackwardCompatibilityRNSt3__26vectorIN13AnimationClip10FloatCurveE13stl_allocatorIS2_L18MemLabelIdentifier26ELi16EEEE
1363:__Z21TransferBlobSerializeIN7mecanim9animation18ClipMuscleConstantE14SafeBinaryReadEvRPT_PKcRjS8_RT0_
1364:__ZN11UnityEngine9Animation28AnimationClipBindingConstant8TransferI14SafeBinaryReadEEvRT_
1365:__ZN14SafeBinaryRead21TransferSTLStyleArrayINSt3__26vectorI14AnimationEvent13stl_allocatorIS3_L18MemLabelIdentifier26ELi16EEEEEEvRT_17TransferMetaFlags
1366:__Z14resize_trimmedINSt3__26vectorI14AnimationEvent13stl_allocatorIS2_L18MemLabelIdentifier26ELi16EEEEEvRT_j
1367:__ZN14AnimationEvent8TransferI14SafeBinaryReadEEvRT_
1368:__ZNSt3__26vectorI14AnimationEvent13stl_allocatorIS1_L18MemLabelIdentifier26ELi16EEE7reserveEj
1369:__ZNSt3__26vectorI14AnimationEvent13stl_allocatorIS1_L18MemLabelIdentifier26ELi16EEE6assignINS_11__wrap_iterIPS1_EEEENS_9enable_ifIXaasr21__is_forward_iteratorIT_EE5valuesr16is_constructibleIS1_NS_15iterator_traitsISB_E9referenceEEE5valueEvE4typeESB_SB_
1370:__ZNSt3__26vectorI14AnimationEvent13stl_allocatorIS1_L18MemLabelIdentifier26ELi16EEE6resizeEj
1371:__ZNSt3__26vectorI14AnimationEvent13stl_allocatorIS1_L18MemLabelIdentifier26ELi16EEE8__appendEj
1372:__ZNSt3__26vectorI14AnimationEvent13stl_allocatorIS1_L18MemLabelIdentifier26ELi16EEE26__swap_out_circular_bufferERNS_14__split_bufferIS1_RS4_EE
1373:__ZN14AnimationEventaSERKS_
1374:__ZNSt3__26vectorI14AnimationEvent13stl_allocatorIS1_L18MemLabelIdentifier26ELi16EEE18__construct_at_endINS_11__wrap_iterIPS1_EEEENS_9enable_ifIXsr21__is_forward_iteratorIT_EE5valueEvE4typeESB_SB_j
1375:__ZNSt3__26vectorI14AnimationEvent13stl_allocatorIS1_L18MemLabelIdentifier26ELi16EEE10deallocateEv
1376:__ZN14SafeBinaryRead21TransferSTLStyleArrayI13dynamic_arrayIN11UnityEngine9Animation14GenericBindingELj0EEEEvRT_17TransferMetaFlags
1377:__ZN14SafeBinaryRead21TransferSTLStyleArrayI13dynamic_arrayI4PPtrI6ObjectELj0EEEEvRT_17TransferMetaFlags
1378:__ZN13dynamic_arrayIN11UnityEngine9Animation14GenericBindingELj0EE18resize_initializedEj12ResizePolicy
1379:__ZN11UnityEngine9Animation14GenericBinding8TransferI14SafeBinaryReadEEvRT_
1380:__ZN14SafeBinaryRead8TransferIPKN5Unity4TypeEEEvRT_PKc17TransferMetaFlags
1381:__ZN7mecanim6memory16ChainedAllocator7ReserveEj
1382:__ZN7mecanim9animation18ClipMuscleConstant8TransferI14SafeBinaryReadEEvRT_
1383:__ZN7mecanim5human9HumanPose8TransferI14SafeBinaryReadEEvRT_
1384:__ZN15SerializeTraitsIN4math4trsXEE8TransferI14SafeBinaryReadEEvRS1_RT_
1385:__ZN7mecanim9animation4Clip8TransferI14SafeBinaryReadEEvRT_
1386:__ZN14SafeBinaryRead21TransferSTLStyleArrayI19StaticArrayTransferIiLi200EEEEvRT_17TransferMetaFlags
1387:__ZN14SafeBinaryRead21TransferSTLStyleArrayI22OffsetPtrArrayTransferIN7mecanim9animation10ValueDeltaEEEEvRT_17TransferMetaFlags
1388:__ZN14SafeBinaryRead21TransferSTLStyleArrayI22OffsetPtrArrayTransferIfEEEvRT_17TransferMetaFlags
1389:__ZN7mecanim9animation10ValueDelta8TransferI14SafeBinaryReadEEvRT_
1390:__ZN14SafeBinaryRead21TransferSTLStyleArrayI22OffsetPtrArrayTransferIjEEEvRT_17TransferMetaFlags
1391:__ZN7mecanim9animation9DenseClip8TransferI14SafeBinaryReadEEvRT_
1392:__ZN15SerializeTraitsI9OffsetPtrIN7mecanim18ValueArrayConstantEEE8TransferI14SafeBinaryReadEEvRS3_RT_
1393:__ZN14SafeBinaryRead21TransferSTLStyleArrayI22OffsetPtrArrayTransferIN7mecanim13ValueConstantEEEEvRT_17TransferMetaFlags
1394:__ZN7mecanim13ValueConstant8TransferI14SafeBinaryReadEEvRT_
1395:__ZN14SafeBinaryRead21TransferSTLStyleArrayI19StaticArrayTransferIN7mecanim5human9HumanGoalELi4EEEEvRT_17TransferMetaFlags
1396:__ZN7mecanim4hand8HandPose8TransferI14SafeBinaryReadEEvRT_
1397:__ZN14SafeBinaryRead21TransferSTLStyleArrayI19StaticArrayTransferIfLi55EEEEvRT_17TransferMetaFlags
1398:__ZN14SafeBinaryRead21TransferSTLStyleArrayI19StaticArrayTransferIKN4math7_float3ELi21EEEEvRT_17TransferMetaFlags
1399:__ZN14SafeBinaryRead21TransferSTLStyleArrayI19StaticArrayTransferIfLi20EEEEvRT_17TransferMetaFlags
1400:__ZN7mecanim5human9HumanGoal8TransferI14SafeBinaryReadEEvRT_
1401:__Z14resize_trimmedINSt3__26vectorIN13AnimationClip9PPtrCurveE13stl_allocatorIS3_L18MemLabelIdentifier26ELi16EEEEEvRT_j
1402:__ZN13AnimationClip9PPtrCurve8TransferI14SafeBinaryReadEEvRT_
1403:__ZN14SafeBinaryRead21TransferSTLStyleArrayI13dynamic_arrayI12PPtrKeyframeLj0EEEEvRT_17TransferMetaFlags
1404:__ZN15SerializeTraitsI13dynamic_arrayI12PPtrKeyframeLj0EEE19ResizeSTLStyleArrayERS2_i
1405:__ZN12PPtrKeyframe8TransferI14SafeBinaryReadEEvRT_
1406:__ZN13AnimationClip9PPtrCurveC2ERKS0_
1407:__ZNSt3__214__split_bufferIN13AnimationClip9PPtrCurveER13stl_allocatorIS2_L18MemLabelIdentifier26ELi16EEED2Ev
1408:__ZNSt3__26vectorIN13AnimationClip9PPtrCurveE13stl_allocatorIS2_L18MemLabelIdentifier26ELi16EEE6assignINS_11__wrap_iterIPS2_EEEENS_9enable_ifIXaasr21__is_forward_iteratorIT_EE5valuesr16is_constructibleIS2_NS_15iterator_traitsISC_E9referenceEEE5valueEvE4typeESC_SC_
1409:__ZNSt3__26vectorIN13AnimationClip9PPtrCurveE13stl_allocatorIS2_L18MemLabelIdentifier26ELi16EEE6resizeEj
1410:__ZNSt3__213__vector_baseIN13AnimationClip9PPtrCurveE13stl_allocatorIS2_L18MemLabelIdentifier26ELi16EEED2Ev
1411:__ZNSt3__26vectorIN13AnimationClip9PPtrCurveE13stl_allocatorIS2_L18MemLabelIdentifier26ELi16EEE8__appendEj
1412:__ZN13AnimationClip9PPtrCurveaSERKS0_
1413:__ZNSt3__26vectorIN13AnimationClip9PPtrCurveE13stl_allocatorIS2_L18MemLabelIdentifier26ELi16EEE10deallocateEv
1414:__Z14resize_trimmedINSt3__26vectorIN13AnimationClip10FloatCurveE13stl_allocatorIS3_L18MemLabelIdentifier26ELi16EEEEEvRT_j
1415:__ZN13AnimationClip10FloatCurve8TransferI14SafeBinaryReadEEvRT_
1416:__ZN17AnimationCurveTplIfE8TransferI14SafeBinaryReadEEvRT_
1417:__ZN14SafeBinaryRead21TransferSTLStyleArrayI13dynamic_arrayI11KeyframeTplIfELj0EEEEvRT_17TransferMetaFlags
1418:__ZN15SerializeTraitsI13dynamic_arrayI11KeyframeTplIfELj0EEE19ResizeSTLStyleArrayERS3_i
1419:__ZN11KeyframeTplIfE8TransferI14SafeBinaryReadEEvRT_
1420:__ZNSt3__26vectorIN13AnimationClip10FloatCurveE13stl_allocatorIS2_L18MemLabelIdentifier26ELi16EEE6assignINS_11__wrap_iterIPS2_EEEENS_9enable_ifIXaasr21__is_forward_iteratorIT_EE5valuesr16is_constructibleIS2_NS_15iterator_traitsISC_E9referenceEEE5valueEvE4typeESC_SC_
1421:__ZNSt3__26vectorIN13AnimationClip10FloatCurveE13stl_allocatorIS2_L18MemLabelIdentifier26ELi16EEE6resizeEj
1422:__ZNSt3__213__vector_baseIN13AnimationClip10FloatCurveE13stl_allocatorIS2_L18MemLabelIdentifier26ELi16EEED2Ev
1423:__ZNSt3__26vectorIN13AnimationClip10FloatCurveE13stl_allocatorIS2_L18MemLabelIdentifier26ELi16EEE8__appendEj
1424:__ZN13AnimationClip10FloatCurveaSERKS0_
1425:__ZNSt3__26vectorIN13AnimationClip10FloatCurveE13stl_allocatorIS2_L18MemLabelIdentifier26ELi16EEE10deallocateEv
1426:__Z14resize_trimmedINSt3__26vectorIN13AnimationClip12Vector3CurveE13stl_allocatorIS3_L18MemLabelIdentifier26ELi16EEEEEvRT_j
1427:__ZN13AnimationClip12Vector3Curve8TransferI14SafeBinaryReadEEvRT_
1428:__ZN17AnimationCurveTplI8Vector3fE8TransferI14SafeBinaryReadEEvRT_
1429:__ZN14SafeBinaryRead21TransferSTLStyleArrayI13dynamic_arrayI11KeyframeTplI8Vector3fELj0EEEEvRT_17TransferMetaFlags
1430:__ZN13dynamic_arrayI11KeyframeTplI8Vector3fELj0EE18resize_initializedEj12ResizePolicy
1431:__ZN11KeyframeTplI8Vector3fE8TransferI14SafeBinaryReadEEvRT_
1432:__ZNSt3__26vectorIN13AnimationClip12Vector3CurveE13stl_allocatorIS2_L18MemLabelIdentifier26ELi16EEE7reserveEj
1433:__ZNSt3__26vectorIN13AnimationClip12Vector3CurveE13stl_allocatorIS2_L18MemLabelIdentifier26ELi16EEE6assignINS_11__wrap_iterIPS2_EEEENS_9enable_ifIXaasr21__is_forward_iteratorIT_EE5valuesr16is_constructibleIS2_NS_15iterator_traitsISC_E9referenceEEE5valueEvE4typeESC_SC_
1434:__ZNSt3__26vectorIN13AnimationClip12Vector3CurveE13stl_allocatorIS2_L18MemLabelIdentifier26ELi16EEE6resizeEj
1435:__ZNSt3__26vectorIN13AnimationClip12Vector3CurveE13stl_allocatorIS2_L18MemLabelIdentifier26ELi16EEEC2INS_11__wrap_iterIPS2_EEEET_SB_RKS5_PNS_9enable_ifIXaasr21__is_forward_iteratorISB_EE5valuesr16is_constructibleIS2_NS_15iterator_traitsISB_E9referenceEEE5valueEvE4typeE
1436:__ZNSt3__26vectorIN13AnimationClip12Vector3CurveE13stl_allocatorIS2_L18MemLabelIdentifier26ELi16EEE8__appendEj
1437:__ZNSt3__26vectorIN13AnimationClip12Vector3CurveE13stl_allocatorIS2_L18MemLabelIdentifier26ELi16EEE10deallocateEv
1438:__ZNSt3__26vectorIN13AnimationClip15QuaternionCurveE13stl_allocatorIS2_L18MemLabelIdentifier26ELi16EEE8__appendEj
1439:__Z14resize_trimmedINSt3__26vectorI24CompressedAnimationCurve13stl_allocatorIS2_L18MemLabelIdentifier26ELi16EEEEEvRT_j
1440:__ZN24CompressedAnimationCurve8TransferI14SafeBinaryReadEEvRT_
1441:__ZN15PackedIntVector8TransferI14SafeBinaryReadEEvRT_
1442:__ZN16PackedQuatVector8TransferI14SafeBinaryReadEEvRT_
1443:__ZN17PackedFloatVector8TransferI14SafeBinaryReadEEvRT_
1444:__ZNSt3__26vectorI24CompressedAnimationCurve13stl_allocatorIS1_L18MemLabelIdentifier26ELi16EEE7reserveEj
1445:__ZNSt3__26vectorI24CompressedAnimationCurve13stl_allocatorIS1_L18MemLabelIdentifier26ELi16EEE6assignINS_11__wrap_iterIPS1_EEEENS_9enable_ifIXaasr21__is_forward_iteratorIT_EE5valuesr16is_constructibleIS1_NS_15iterator_traitsISB_E9referenceEEE5valueEvE4typeESB_SB_
1446:__ZNSt3__26vectorI24CompressedAnimationCurve13stl_allocatorIS1_L18MemLabelIdentifier26ELi16EEE8__appendEj
1447:__ZN24CompressedAnimationCurveC2ERKS_
1448:__ZN24CompressedAnimationCurveaSERKS_
1449:__Z14resize_trimmedINSt3__26vectorIN13AnimationClip15QuaternionCurveE13stl_allocatorIS3_L18MemLabelIdentifier26ELi16EEEEEvRT_j
1450:__ZN13AnimationClip15QuaternionCurve8TransferI14SafeBinaryReadEEvRT_
1451:__ZN17AnimationCurveTplI11QuaternionfE8TransferI14SafeBinaryReadEEvRT_
1452:__ZN14SafeBinaryRead21TransferSTLStyleArrayI13dynamic_arrayI11KeyframeTplI11QuaternionfELj0EEEEvRT_17TransferMetaFlags
1453:__ZN13dynamic_arrayI11KeyframeTplI11QuaternionfELj0EE18resize_initializedEj12ResizePolicy
1454:__ZN11KeyframeTplI11QuaternionfE8TransferI14SafeBinaryReadEEvRT_
1455:__ZNSt3__26vectorIN13AnimationClip15QuaternionCurveE13stl_allocatorIS2_L18MemLabelIdentifier26ELi16EEE7reserveEj
1456:__ZNSt3__26vectorIN13AnimationClip15QuaternionCurveE13stl_allocatorIS2_L18MemLabelIdentifier26ELi16EEE6assignINS_11__wrap_iterIPS2_EEEENS_9enable_ifIXaasr21__is_forward_iteratorIT_EE5valuesr16is_constructibleIS2_NS_15iterator_traitsISC_E9referenceEEE5valueEvE4typeESC_SC_
1457:__ZNSt3__26vectorIN13AnimationClip15QuaternionCurveE13stl_allocatorIS2_L18MemLabelIdentifier26ELi16EEE10deallocateEv
1458:__ZN13AnimationClip8TransferI24GenerateTypeTreeTransferEEvRT_
1459:__ZN24GenerateTypeTreeTransfer21TransferSTLStyleArrayINSt3__26vectorIN13AnimationClip15QuaternionCurveE13stl_allocatorIS4_L18MemLabelIdentifier26ELi16EEEEEEvRT_17TransferMetaFlags
1460:__ZN24GenerateTypeTreeTransfer21TransferSTLStyleArrayINSt3__26vectorI24CompressedAnimationCurve13stl_allocatorIS3_L18MemLabelIdentifier26ELi16EEEEEEvRT_17TransferMetaFlags
1461:__ZN24GenerateTypeTreeTransfer21TransferSTLStyleArrayINSt3__26vectorIN13AnimationClip12Vector3CurveE13stl_allocatorIS4_L18MemLabelIdentifier26ELi16EEEEEEvRT_17TransferMetaFlags
1462:__ZN24GenerateTypeTreeTransfer21TransferSTLStyleArrayINSt3__26vectorIN13AnimationClip10FloatCurveE13stl_allocatorIS4_L18MemLabelIdentifier26ELi16EEEEEEvRT_17TransferMetaFlags
1463:__ZN24GenerateTypeTreeTransfer21TransferSTLStyleArrayINSt3__26vectorIN13AnimationClip9PPtrCurveE13stl_allocatorIS4_L18MemLabelIdentifier26ELi16EEEEEEvRT_17TransferMetaFlags
1464:__Z21TransferBlobSerializeIN7mecanim9animation18ClipMuscleConstantE24GenerateTypeTreeTransferEvRPT_PKcRjS8_RT0_
1465:__ZN11UnityEngine9Animation28AnimationClipBindingConstant8TransferI24GenerateTypeTreeTransferEEvRT_
1466:__ZN24GenerateTypeTreeTransfer21TransferSTLStyleArrayINSt3__26vectorI14AnimationEvent13stl_allocatorIS3_L18MemLabelIdentifier26ELi16EEEEEEvRT_17TransferMetaFlags
1467:__ZN14AnimationEvent8TransferI24GenerateTypeTreeTransferEEvRT_
1468:__ZN11UnityEngine9Animation14GenericBinding8TransferI24GenerateTypeTreeTransferEEvRT_
1469:__ZN7mecanim9animation18ClipMuscleConstant8TransferI24GenerateTypeTreeTransferEEvRT_
1470:__ZN7mecanim5human9HumanPose8TransferI24GenerateTypeTreeTransferEEvRT_
1471:__ZN24GenerateTypeTreeTransfer8TransferIN4math4trsXEEEvRT_PKc17TransferMetaFlags
1472:__ZN7mecanim9animation4Clip8TransferI24GenerateTypeTreeTransferEEvRT_
1473:__ZN7mecanim9animation9DenseClip8TransferI24GenerateTypeTreeTransferEEvRT_
1474:__Z17TransferOffsetPtrI9OffsetPtrIN7mecanim13ValueConstantEE24GenerateTypeTreeTransferEvRT_PKcRjRT0_
1475:__ZN7mecanim4hand8HandPose8TransferI24GenerateTypeTreeTransferEEvRT_
1476:__ZN24GenerateTypeTreeTransfer8TransferIN13AnimationClip9PPtrCurveEEEvRT_PKc17TransferMetaFlags
1477:__ZN13AnimationClip10FloatCurve8TransferI24GenerateTypeTreeTransferEEvRT_
1478:__ZN17AnimationCurveTplIfE8TransferI24GenerateTypeTreeTransferEEvRT_
1479:__ZN11KeyframeTplIfE8TransferI24GenerateTypeTreeTransferEEvRT_
1480:__ZN17AnimationCurveTplI8Vector3fE8TransferI24GenerateTypeTreeTransferEEvRT_
1481:__ZN11KeyframeTplI8Vector3fE8TransferI24GenerateTypeTreeTransferEEvRT_
1482:__ZN24CompressedAnimationCurve8TransferI24GenerateTypeTreeTransferEEvRT_
1483:__ZN24GenerateTypeTreeTransfer8TransferI15PackedIntVectorEEvRT_PKc17TransferMetaFlags
1484:__ZN17PackedFloatVector8TransferI24GenerateTypeTreeTransferEEvRT_
1485:__ZN17AnimationCurveTplI11QuaternionfE8TransferI24GenerateTypeTreeTransferEEvRT_
1486:__ZN11KeyframeTplI11QuaternionfE8TransferI24GenerateTypeTreeTransferEEvRT_
1487:__ZN13AnimationClip8TransferI17RemapPPtrTransferEEvRT_
1488:__ZN14AnimationEvent8TransferI17RemapPPtrTransferEEvRT_
1489:__ZN13AnimationClip8TransferI18StreamedBinaryReadEEvRT_
1490:__ZN18StreamedBinaryRead8TransferINSt3__26vectorIN13AnimationClip15QuaternionCurveE13stl_allocatorIS4_L18MemLabelIdentifier26ELi16EEEEEEvRT_PKc17TransferMetaFlags
1491:__ZN24CompressedAnimationCurve8TransferI18StreamedBinaryReadEEvRT_
1492:__ZN18StreamedBinaryRead8TransferINSt3__26vectorIN13AnimationClip12Vector3CurveE13stl_allocatorIS4_L18MemLabelIdentifier26ELi16EEEEEEvRT_PKc17TransferMetaFlags
1493:__ZN13AnimationClip10FloatCurve8TransferI18StreamedBinaryReadEEvRT_
1494:__ZN13AnimationClip9PPtrCurve8TransferI18StreamedBinaryReadEEvRT_
1495:__Z21TransferBlobSerializeIN7mecanim9animation18ClipMuscleConstantE18StreamedBinaryReadEvRPT_PKcRjS8_RT0_
1496:__ZN18StreamedBinaryRead8TransferIN11UnityEngine9Animation28AnimationClipBindingConstantEEEvRT_PKc17TransferMetaFlags
1497:__ZN14AnimationEvent8TransferI18StreamedBinaryReadEEvRT_
1498:__ZN11UnityEngine9Animation14GenericBinding8TransferI18StreamedBinaryReadEEvRT_
1499:__ZN18StreamedBinaryRead21TransferSTLStyleArrayI13dynamic_arrayI4PPtrI6ObjectELj0EEEEvRT_17TransferMetaFlags
1500:__ZN7mecanim9animation18ClipMuscleConstant8TransferI18StreamedBinaryReadEEvRT_
1501:__ZN7mecanim5human9HumanPose8TransferI18StreamedBinaryReadEEvRT_
1502:__ZN15SerializeTraitsIN4math4trsXEE8TransferI18StreamedBinaryReadEEvRS1_RT_
1503:__ZN7mecanim9animation4Clip8TransferI18StreamedBinaryReadEEvRT_
1504:__ZN18StreamedBinaryRead21TransferSTLStyleArrayI22OffsetPtrArrayTransferIN7mecanim9animation10ValueDeltaEEEEvRT_17TransferMetaFlags
1505:__ZN18StreamedBinaryRead8TransferIN7mecanim9animation12StreamedClipEEEvRT_PKc17TransferMetaFlags
1506:__ZN7mecanim9animation9DenseClip8TransferI18StreamedBinaryReadEEvRT_
1507:__ZN18StreamedBinaryRead21TransferSTLStyleArrayI22OffsetPtrArrayTransferIN7mecanim13ValueConstantEEEEvRT_17TransferMetaFlags
1508:__ZN7mecanim5human9HumanGoal8TransferI18StreamedBinaryReadEEvRT_
1509:__ZN7mecanim4hand8HandPose8TransferI18StreamedBinaryReadEEvRT_
1510:__ZN18StreamedBinaryRead21TransferSTLStyleArrayI19StaticArrayTransferIKN4math7_float3ELi21EEEEvRT_17TransferMetaFlags
1511:__ZN18StreamedBinaryRead8TransferI13dynamic_arrayI12PPtrKeyframeLj0EEEEvRT_PKc17TransferMetaFlags
1512:__ZN17AnimationCurveTplIfE8TransferI18StreamedBinaryReadEEvRT_
1513:__ZN17AnimationCurveTplI8Vector3fE8TransferI18StreamedBinaryReadEEvRT_
1514:__ZN17PackedFloatVector8TransferI18StreamedBinaryReadEEvRT_
1515:__ZN17AnimationCurveTplI11QuaternionfE8TransferI18StreamedBinaryReadEEvRT_
1516:__ZN13AnimationClip8TransferI19StreamedBinaryWriteEEvRT_
1517:__ZN17AnimationCurveTplI11QuaternionfE8TransferI19StreamedBinaryWriteEEvRT_
1518:__ZN24CompressedAnimationCurve8TransferI19StreamedBinaryWriteEEvRT_
1519:__ZN13AnimationClip14CompressCurvesERNSt3__26vectorI24CompressedAnimationCurve13stl_allocatorIS2_L18MemLabelIdentifier26ELi16EEEE
1520:__ZN17AnimationCurveTplI8Vector3fE8TransferI19StreamedBinaryWriteEEvRT_
1521:__ZN13AnimationClip10FloatCurve8TransferI19StreamedBinaryWriteEEvRT_
1522:__ZN13AnimationClip9PPtrCurve8TransferI19StreamedBinaryWriteEEvRT_
1523:__Z21TransferBlobSerializeIN7mecanim9animation18ClipMuscleConstantE19StreamedBinaryWriteEvRPT_PKcRjS8_RT0_
1524:__ZN11UnityEngine9Animation28AnimationClipBindingConstant8TransferI19StreamedBinaryWriteEEvRT_
1525:__ZN14AnimationEvent8TransferI19StreamedBinaryWriteEEvRT_
1526:__ZN11UnityEngine9Animation14GenericBinding8TransferI19StreamedBinaryWriteEEvRT_
1527:__ZN7mecanim9animation18ClipMuscleConstant8TransferI19StreamedBinaryWriteEEvRT_
1528:__ZN7mecanim5human9HumanPose8TransferI19StreamedBinaryWriteEEvRT_
1529:__ZN15SerializeTraitsIN4math4trsXEE8TransferI19StreamedBinaryWriteEEvRS1_RT_
1530:__ZN7mecanim9animation4Clip8TransferI19StreamedBinaryWriteEEvRT_
1531:__Z17TransferOffsetPtrI9OffsetPtrIN7mecanim9animation10ValueDeltaEE19StreamedBinaryWriteEvRT_PKcRjRT0_
1532:__ZN7mecanim9animation9DenseClip8TransferI19StreamedBinaryWriteEEvRT_
1533:__ZN15SerializeTraitsI22OffsetPtrArrayTransferIN7mecanim13ValueConstantEEE8TransferI19StreamedBinaryWriteEEvRS3_RT_
1534:__ZN7mecanim5human9HumanGoal8TransferI19StreamedBinaryWriteEEvRT_
1535:__ZN7mecanim4hand8HandPose8TransferI19StreamedBinaryWriteEEvRT_
1536:__Z13TransferArrayILi21EKN4math7_float3E19StreamedBinaryWriteEjRAT__T0_PKcRT1_
1537:__Z13TransferArrayILi20Ef19StreamedBinaryWriteEjRAT__T0_PKcRT1_
1538:__ZN17AnimationCurveTplIfE8TransferI19StreamedBinaryWriteEEvRT_
1539:__ZN11KeyframeTplIfE8TransferI19StreamedBinaryWriteEEvRT_
1540:__ZN11KeyframeTplI8Vector3fE8TransferI19StreamedBinaryWriteEEvRT_
1541:__ZN15PackedIntVector8TransferI19StreamedBinaryWriteEEvRT_
1542:__ZN15SerializeTraitsI16PackedQuatVectorE8TransferI19StreamedBinaryWriteEEvRS0_RT_
1543:__ZN17PackedFloatVector8TransferI19StreamedBinaryWriteEEvRT_
1544:__ZN11KeyframeTplI11QuaternionfE8TransferI19StreamedBinaryWriteEEvRT_
1545:__ZL25SetAdditionalCurvesValuesRN7mecanim10ValueArrayERKN11UnityEngine9Animation20AnimationSetBindingsERKNS_18ValueArrayConstantES9_RKS0_
1546:__ZN11UnityEngine9Animation29SetGenericFloatPropertyValuesERKNS0_30AnimatorGenericBindingConstantERKN7mecanim10ValueArrayE
1547:__ZN11UnityEngine9Animation28SetGenericPPtrPropertyValuesERKNS0_30AnimatorGenericBindingConstantERKN7mecanim10ValueArrayE
1548:__ZN11UnityEngine9Animation27SetGenericIntPropertyValuesERKNS0_30AnimatorGenericBindingConstantERKN7mecanim10ValueArrayE
1549:__ZN11UnityEngine9Animation31SetHumanTransformPropertyValuesERKNS0_21AvatarBindingConstantERKN7mecanim8skeleton13SkeletonPoseTIN4math4trsXEEEby
1550:__ZN11UnityEngine9Animation33SetGenericTransformPropertyValuesERKNS0_30AnimatorGenericBindingConstantERKN7mecanim10ValueArrayEP9Transformy
1551:__ZN11UnityEngine9Animation39SetGenericTransformPropertyValuesNoSyncERKNS0_30AnimatorGenericBindingConstantERKN7mecanim10ValueArrayEP9Transformy
1552:__Z10SetLocalTR15TransformAccessRKN4math7_float3ERKNS0_7_float4Ey
1553:__ZN11UnityEngine9Animation23SetBoundCurveFloatValueERKNS0_10BoundCurveEf
1554:__ZN11UnityEngine9Animation28SetBoundCurveInstanceIDValueERKNS0_10BoundCurveEi
1555:__Z20BindAdditionalCurvesRKN7mecanim18ValueArrayConstantEjPKN11UnityEngine9Animation14GenericBindingEPi
1556:__ZN8Animator13BatchedFKPassERK13dynamic_arrayIP14PlayableOutputLj0EE
1557:__ZN8Animator13BatchedIKPassERK13dynamic_arrayIP14PlayableOutputLj0EE
1558:__ZN8Animator13UpdateAvatarsERK13dynamic_arrayIP14PlayableOutputLj0EEbbb
1559:__ZN8Animator9BuildJobsERK13dynamic_arrayIP14PlayableOutputLj0EERS0_INS_11AnimatorJobELj0EEPS7_bb
1560:__ZN8Animator12CreateObjectEv
1561:__ZN8Animator23SetPlaybackTimeInternalEf
1562:__ZN21AnimationHandleBinder24ReadPropertySceneHandlesEv
1563:__ZN8Animator20ProcessRootMotionJobEPNS_11AnimatorJobEj
1564:__ZN8Animator19FireAnimationEventsERNS_11AnimatorJobE
1565:__ZN8Animator14FireBehavioursEN7mecanim12statemachine19StateMachineMessageERNS_11AnimatorJobE
1566:__ZN13dynamic_arrayIN8Animator11AnimatorJobELj0EED2Ev
1567:__ZN26AnimatorControllerPlayable24ClearFirstEvaluationFlagEv
1568:__ZN8Animator19ApplyOnAnimatorMoveERNS_11AnimatorJobE
1569:__ZN8Animator24SortJobsBasedOnHierarchyERK13dynamic_arrayINS_11AnimatorJobELj0EERS0_IS2_Lj0EE
1570:__ZN8Animator21ProcessAnimationsStepERNS_11AnimatorJobE
1571:__ZN7mecanim9animation22EvaluateAvatarRetargetEPKNS0_14AvatarConstantEPKNS0_11AvatarInputEPNS0_12AvatarOutputEPNS0_12AvatarMemoryEPNS0_15AvatarWorkspaceEb
1572:__ZN8Animator9WriteStepEy
1573:__ZN8Animator5IKJobEPNS_11AnimatorJobEj
1574:__ZN8Animator17ApplyOnAnimatorIKEiRNS_11AnimatorJobE
1575:__ZN8Animator15WritePropertiesEff
1576:__ZN21AnimationHandleBinder25WritePropertySceneHandlesEv
1577:__ZN14AvatarPlayback11RecordFrameEfPKN7mecanim9animation12AvatarMemoryEPNS1_16ControllerMemoryE
1578:__Z8CopyBlobIN7mecanim9animation12AvatarMemoryEEPT_RKS3_R20RuntimeBaseAllocatorRj
1579:__Z8CopyBlobIN7mecanim9animation16ControllerMemoryEEPT_RKS3_R20RuntimeBaseAllocatorRj
1580:__ZNSt3__26vectorI11AvatarFrameNS_9allocatorIS1_EEE21__push_back_slow_pathIRKS1_EEvOT_
1581:__ZN9BlobWrite8TransferIN7mecanim9animation16ControllerMemoryEEEvRT_PKc17TransferMetaFlags
1582:__ZN7mecanim9animation16ControllerMemory8TransferI8BlobSizeEEvRT_
1583:__ZN7mecanim9animation16ControllerMemory8TransferI9BlobWriteEEvRT_
1584:__ZN9BlobWrite8TransferI22OffsetPtrArrayTransferI9OffsetPtrIN7mecanim12statemachine18StateMachineMemoryEEEEEvRT_PKc17TransferMetaFlags
1585:__ZN9BlobWrite8TransferI9OffsetPtrIN7mecanim10ValueArrayEEEEvRT_PKc17TransferMetaFlags
1586:__ZN9BlobWrite8TransferIN7mecanim10ValueArrayEEEvRT_PKc17TransferMetaFlags
1587:__ZN7mecanim10ValueArray8TransferI8BlobSizeEEvRT_
1588:__ZN7mecanim10ValueArray8TransferI9BlobWriteEEvRT_
1589:__ZN9BlobWrite8TransferI22OffsetPtrArrayTransferIKN4math7_float3EEEEvRT_PKc17TransferMetaFlags
1590:__ZN9BlobWrite8TransferI22OffsetPtrArrayTransferIKN4math7_float4EEEEvRT_PKc17TransferMetaFlags
1591:__ZN9BlobWrite8TransferI22OffsetPtrArrayTransferIbEEEvRT_PKc17TransferMetaFlags
1592:__ZN34BlobWriteTransferSTLStyleArrayImplI22OffsetPtrArrayTransferIbEEclERS1_17TransferMetaFlagsR9BlobWrite
1593:__ZN34BlobWriteTransferSTLStyleArrayImplI22OffsetPtrArrayTransferIKN4math7_float4EEEclERS4_17TransferMetaFlagsR9BlobWrite
1594:__ZN34BlobWriteTransferSTLStyleArrayImplI22OffsetPtrArrayTransferIKN4math7_float3EEEclERS4_17TransferMetaFlagsR9BlobWrite
1595:__ZN34BlobWriteTransferSTLStyleArrayImplI22OffsetPtrArrayTransferI9OffsetPtrIN7mecanim12statemachine18StateMachineMemoryEEEEclERS6_17TransferMetaFlagsR9BlobWrite
1596:__ZN9BlobWrite8TransferI9OffsetPtrIN7mecanim12statemachine18StateMachineMemoryEEEEvRT_PKc17TransferMetaFlags
1597:__ZN9BlobWrite8TransferIN7mecanim12statemachine18StateMachineMemoryEEEvRT_PKc17TransferMetaFlags
1598:__ZN7mecanim12statemachine18StateMachineMemory8TransferI8BlobSizeEEvRT_
1599:__ZN7mecanim12statemachine18StateMachineMemory8TransferI9BlobWriteEEvRT_
1600:__ZN9BlobWrite8TransferIN7mecanim9animation12AvatarMemoryEEEvRT_PKc17TransferMetaFlags
1601:__ZN7mecanim9animation12AvatarMemory8TransferI8BlobSizeEEvRT_
1602:__ZN7mecanim9animation12AvatarMemory8TransferI9BlobWriteEEvRT_
1603:__ZN7mecanim9animation16EvaluateAvatarIKEPKNS0_14AvatarConstantEPKNS0_11AvatarInputEPNS0_12AvatarOutputEPNS0_12AvatarMemoryEPNS0_15AvatarWorkspaceEb
1604:__ZN7mecanim9animation17EvaluateAvatarEndEPKNS0_14AvatarConstantEPKNS0_11AvatarInputEPNS0_12AvatarOutputEPNS0_12AvatarMemoryEPNS0_15AvatarWorkspaceE
1605:__ZN7mecanim8skeleton16SkeletonPoseCopyIN4math4trsXES3_EEvPKNS0_13SkeletonPoseTIT_EEPNS4_IT0_EE
1606:__ZN7mecanim5human10TwistSolveEPKNS0_5HumanEPNS_8skeleton13SkeletonPoseTIN4math4trsXEEES9_
1607:__ZN7mecanim8skeleton16SkeletonPoseCopyIN4math4trsXES3_EEvPKNS0_13SkeletonPoseTIT_EEPNS4_IT0_EEjPKi
1608:__ZN7mecanim5human13HumanFixTwistEPKNS0_5HumanEPNS_8skeleton13SkeletonPoseTIN4math4trsXEEES9_iiRKf
1609:__ZN7mecanim8skeleton26SkeletonPoseComputeGlobalQEPKNS0_8SkeletonEPKNS0_13SkeletonPoseTIN4math4trsXEEEPS7_ii
1610:__ZN7mecanim8skeleton13SkeletonAlignEPKNS0_8SkeletonERKN4math7_float4ES7_i
1611:__ZN7mecanim8skeleton25SkeletonPoseComputeLocalQEPKNS0_8SkeletonEPKNS0_13SkeletonPoseTIN4math4trsXEEEPS7_ii
1612:__ZN7mecanim5human20HumanGetHintPositionEPKNS0_5HumanEPKNS_8skeleton13SkeletonPoseTIN4math4trsXEEENS0_4GoalE
1613:__ZN7mecanim5human13FullBodySolveEPKNS0_5HumanEPKNS0_9HumanPoseEPNS_8skeleton13SkeletonPoseTIN4math4trsXEEESC_SC_
1614:__ZN7mecanim5human15GetLookAtDeltaQERKN4math7_float3ES4_RKNS1_7_float4ES4_S4_RKf
1615:__ZN7mecanim8skeleton25Skeleton2BoneAdjustLengthEPKNS0_8SkeletonEiiiRKN4math7_float3ERKfPNS0_13SkeletonPoseTINS4_4trsXEEESD_
1616:__ZN7mecanim8skeleton15Skeleton2BoneIKEPKNS0_8SkeletonEiiiRKN4math7_float3EfPNS0_13SkeletonPoseTINS4_4trsXEEESB_
1617:__ZN7mecanim8skeleton23Skeleton2BoneAdjustHintEPKNS0_8SkeletonEiiiRKN4math7_float3EfPNS0_13SkeletonPoseTINS4_4trsXEEESB_f
1618:__ZN7mecanim5human17ReachGoalRotationEPKNS0_5HumanERKN4math7_float4EiPNS_8skeleton13SkeletonPoseTINS4_4trsXEEESC_SC_
1619:__ZN7mecanim5human14HumanFixEndDoFEPKNS0_5HumanEPNS_8skeleton13SkeletonPoseTIN4math4trsXEEES9_iifi
1620:__ZN7mecanim8skeleton14SkeletonGetDoFEPKNS0_8SkeletonEPKNS0_13SkeletonPoseTIN4math4trsXEEEi
1621:__ZN7mecanim8skeleton14SkeletonSetDoFEPKNS0_8SkeletonEPNS0_13SkeletonPoseTIN4math4trsXEEERKNS5_7_float3Ei
1622:__ZN11UnityEngine9Animation37SetHumanTransformPropertyValuesNoSyncERKNS0_21AvatarBindingConstantERKN7mecanim8skeleton13SkeletonPoseTIN4math4trsXEEEby
1623:__ZN7mecanim9animation21SkeletonPoseFromValueIN4math4trsXEEEvRKNS_8skeleton8SkeletonERKNS4_13SkeletonPoseTIS3_EERKNS_10ValueArrayEPKNS0_14SkeletonTQSMapERNS8_IT_EEPKib
1624:__ZN7mecanim8skeleton16SkeletonPoseCopyIN4math4trsXENS2_7affineXEEEvPKNS0_13SkeletonPoseTIT_EEPNS5_IT0_EE
1625:__ZN7mecanim8skeleton25SkeletonPoseComputeGlobalIN4math7affineXEEEvPKNS0_8SkeletonEPKNS0_13SkeletonPoseTIT_EEPS9_
1626:__Z34SetExposedSkeletonTransformsNoSyncRKN7mecanim9animation14AvatarConstantERKN11UnityEngine9Animation30AnimatorGenericBindingConstantERKNS_8skeleton13SkeletonPoseTIN4math4trsXEEERKNSA_INSB_7affineXEEERNS5_21AvatarBindingConstantEy
1627:__ZN7mecanim8skeleton25SkeletonGetGlobalRotationEPKNS0_8SkeletonEPKNS0_13SkeletonPoseTIN4math4trsXEEEi
1628:__ZN7mecanim5human10RetargetToEPKNS0_5HumanEPKNS0_9HumanPoseES6_RKN4math4trsXEPS4_PNS_8skeleton13SkeletonPoseTIS8_EESF_
1629:__ZN7mecanim9animation11SetIKOnFeetEbRKNS0_14AvatarConstantERKNS0_11AvatarInputERNS0_12AvatarMemoryERNS0_15AvatarWorkspaceERNS0_12AvatarOutputE
1630:__ZN7mecanim5human30HumanPoseAdjustForMissingBonesEPKNS0_5HumanEPNS0_9HumanPoseE
1631:__ZN7mecanim5human18Human2SkeletonPoseEPKNS0_5HumanEPKNS0_9HumanPoseEPNS_8skeleton13SkeletonPoseTIN4math4trsXEEE
1632:__ZN7mecanim5human14RetargetToTDoFEPKNS0_5HumanEPNS0_9HumanPoseEPKNS_8skeleton13SkeletonPoseTIN4math4trsXEEEPSA_SD_
1633:__ZN7mecanim5human26HumanComputeBoneMassCenterEPKNS0_5HumanEPKNS_8skeleton13SkeletonPoseTIN4math4trsXEEEi
1634:__ZN7mecanim5human23HumanComputeOrientationEPKNS0_5HumanEPKNS_8skeleton13SkeletonPoseTIN4math4trsXEEE
1635:__ZN7mecanim4hand17Hand2SkeletonPoseEPKNS0_4HandEPKNS_8skeleton8SkeletonEPKNS0_8HandPoseEPNS4_13SkeletonPoseTIN4math4trsXEEE
1636:__ZN12_GLOBAL__N_121ProcessAnimationBeginER35AnimationPlayableEvaluationConstantR32AnimationPlayableEvaluationInputR33AnimationPlayableEvaluationOutput
1637:__ZN12_GLOBAL__N_119ProcessAnimationMixER33AnimationPlayableEvaluationOutputR35AnimationPlayableEvaluationConstantR32AnimationPlayableEvaluationInputS1_f
1638:__ZN12_GLOBAL__N_119ProcessAnimationEndER35AnimationPlayableEvaluationConstantR32AnimationPlayableEvaluationInputR33AnimationPlayableEvaluationOutput
1639:__ZN12_GLOBAL__N_120ProcessPlayableGraphERN8Animator11AnimatorJobER35AnimationPlayableEvaluationConstantR32AnimationPlayableEvaluationInputR33AnimationPlayableEvaluationOutputPFvS4_R17AnimationPlayableEPFvS4_S6_S8_EPFvS8_S4_S6_S8_fESE_MS9_FvPS3_PS5_PS7_E
1640:__ZN17AnimationPlayable28UpdateInternalStateRecursiveILi3ELb1EEEvPK35AnimationPlayableEvaluationConstant
1641:__ZN7mecanim15InvertValueMaskILb0EEEvPNS_14ValueArrayMaskE
1642:__ZN27AnimationLayerMixerPlayable9MixValuesILb0EEEvP33AnimationPlayableEvaluationOutputP35AnimationPlayableEvaluationConstantP32AnimationPlayableEvaluationInputS2_f
1643:__ZL7JobSortPKN8Animator11AnimatorJobES2_
1644:__ZNSt3__26__sortIRPFbPKN8Animator11AnimatorJobES4_EPS4_EEvT0_S9_T_
1645:__ZN13dynamic_arrayIN8Animator11AnimatorJobELj0EE9push_backERKS1_
1646:__ZN15AllocatorTraitsIN8Animator11AnimatorJobELb0EE9ConstructIS1_EEvPS1_RKT_10MemLabelId
1647:__ZNSt3__27__sort4IRPFbPKN8Animator11AnimatorJobES4_EPS4_EEjT0_S9_S9_S9_T_
1648:__ZNSt3__218__insertion_sort_3IRPFbPKN8Animator11AnimatorJobES4_EPS4_EEvT0_S9_T_
1649:__ZNSt3__227__insertion_sort_incompleteIRPFbPKN8Animator11AnimatorJobES4_EPS4_EEbT0_S9_T_
1650:__ZN11UnityEngine9Animation23SetMotionXProperyValuesERKNS0_30AnimatorGenericBindingConstantERKN7mecanim9animation14AvatarConstantERKNS5_12AvatarOutputE15TransformAccessy
1651:__ZN8Animator22ApplyBuiltinRootMotionEv
1652:__ZN11UnityEngine9Animation37HasGenericRootTransformPropertyValuesERKNS0_30AnimatorGenericBindingConstantEb
1653:__ZN11UnityEngine9Animation37SetGenericRootTransformPropertyValuesERKNS0_30AnimatorGenericBindingConstantERKN7mecanim10ValueArrayER9Transformbb
1654:__Z35InverseTransformPositionAndRotationRK23TransformAccessReadOnlyRKN4math7_float3ERKNS2_7_float4E
1655:__ZNK26AnimatorControllerPlayable20GetAnimatorStateInfoEi14StateInfoIndexR17AnimatorStateInfo
1656:__ZNK27StateMachineBehaviourPlayer18FireStateBehaviourER17AnimatorStateInfoiN7mecanim12statemachine19StateMachineMessageE
1657:__ZNK26AnimatorControllerPlayable18ValidateLayerIndexEi
1658:__ZN13AnimationClip19FireAnimationEventsEP22AnimationClipEventInfoRN5Unity9ComponentE
1659:__Z9FireEventR14AnimationEventRN5Unity9ComponentEP14AnimationStateP17AnimatorStateInfoP16AnimatorClipInfo
1660:__Z20AnimationEventToMonoRK14AnimationEventR18MonoAnimationEvent
1661:__Z22AnimatorClipInfoToMonoRK16AnimatorClipInfoR20MonoAnimatorClipInfo
1662:__ZN8Animator21ProcessRootMotionStepERNS_11AnimatorJobE
1663:__ZNK13BoundPlayable20GetAnimationPlayableEv
1664:__ZN12_GLOBAL__N_120PreProcessRootMotionER35AnimationPlayableEvaluationConstantR17AnimationPlayable
1665:__ZN12_GLOBAL__N_122ProcessRootMotionBeginER35AnimationPlayableEvaluationConstantR32AnimationPlayableEvaluationInputR33AnimationPlayableEvaluationOutput
1666:__ZN12_GLOBAL__N_120ProcessRootMotionMixER33AnimationPlayableEvaluationOutputR35AnimationPlayableEvaluationConstantR32AnimationPlayableEvaluationInputS1_f
1667:__ZN12_GLOBAL__N_120ProcessRootMotionEndER35AnimationPlayableEvaluationConstantR32AnimationPlayableEvaluationInputR33AnimationPlayableEvaluationOutput
1668:__ZN7mecanim9animation16EvaluateAvatarDXEPKNS0_14AvatarConstantEPKNS0_11AvatarInputEPNS0_12AvatarMemoryEPNS0_15AvatarWorkspaceEPNS0_12AvatarOutputE
1669:__ZN8Animator11TargetMatchEv
1670:__ZN7mecanim9animation28MotionOutputGetDeltaPositionEPKNS0_12MotionOutputE
1671:__ZN7mecanim9animation28MotionOutputGetDeltaRotationEPKNS0_12MotionOutputE
1672:__ZN7mecanim9animation15EvaluateAvatarXEPKNS0_14AvatarConstantEPKNS0_11AvatarInputEPNS0_12AvatarOutputEPNS0_12AvatarMemoryEPNS0_15AvatarWorkspaceE
1673:__ZN7mecanim9animation29MotionOutputGetDeltaTransformEPKNS0_12MotionOutputE
1674:__ZNK26AnimatorControllerPlayable22IsInTransitionInternalEi
1675:__ZNK8Animator20IsInMatchTargetStateEv
1676:__ZN7mecanim5human29HumanGetGoalOrientationOffsetENS0_4GoalE
1677:__ZN7mecanim9animation29MotionOutputSetDeltaTransformEPNS0_12MotionOutputERKN4math4trsXE
1678:__ZNK26AnimatorControllerPlayable21GetStateMachineMemoryEi
1679:__ZN7mecanim9animation28MotionOutputSetDeltaPositionEPNS0_12MotionOutputERKN4math7_float3E
1680:__ZN27AnimationLayerMixerPlayable13MixRootMotionEP33AnimationPlayableEvaluationOutputP35AnimationPlayableEvaluationConstantP32AnimationPlayableEvaluationInputS1_fb
1681:__ZN27AnimationLayerMixerPlayable22MixRootTransformValuesEP33AnimationPlayableEvaluationOutputP35AnimationPlayableEvaluationConstantP32AnimationPlayableEvaluationInputS1_f
1682:__ZN27AnimationLayerMixerPlayable9MixValuesILb1EEEvP33AnimationPlayableEvaluationOutputP35AnimationPlayableEvaluationConstantP32AnimationPlayableEvaluationInputS2_f
1683:__ZN14AvatarPlayback9PlayFrameEfRPN7mecanim9animation12AvatarMemoryERPNS1_16ControllerMemoryE
1684:__ZN26AnimatorControllerPlayable18PrepareForPlaybackER20RuntimeBaseAllocator
1685:__ZN26AnimatorControllerPlayable15SetRecorderDataEPN7mecanim9animation16ControllerMemoryER20RuntimeBaseAllocator
1686:__ZN34AnimationStateMachineMixerPlayable16ArrangePlayablesEbb
1687:__ZN8Animator11ClearObjectEv
1688:__ZN8Animator24CollectAnimatedRenderersERKNS_15BindingsDataSetE
1689:__ZN8Animator13AvatarDataSet5ResetEv
1690:__ZN7mecanim9animation21DestroyAvatarConstantEPNS0_14AvatarConstantER20RuntimeBaseAllocator
1691:__ZN7mecanim9animation19DestroyAvatarOutputEPNS0_12AvatarOutputER20RuntimeBaseAllocator
1692:__ZN7mecanim9animation22DestroyAvatarWorkspaceEPNS0_15AvatarWorkspaceER20RuntimeBaseAllocator
1693:__ZN11UnityEngine9Animation28DestroyAvatarBindingConstantEPNS0_21AvatarBindingConstantER20RuntimeBaseAllocator
1694:__ZN8Animator11AnimatorJob11AddPlayableEP17AnimationPlayablef
1695:__ZN21AnimationHandleBinder31SyncSceneHandlesTransformAccessEv
1696:__ZNK6Avatar7IsHumanEv
1697:__ZN13dynamic_arrayI16WeightedPlayableLj0EE6insertEPS0_jRKS0_
1698:__ZN8Animator26AnimatorVisibilityCallbackEPvS0_i
1699:__ZN8Animator19SetVisibleRenderersEb
1700:__ZN8Animator8TransferI14SafeBinaryReadEEvRT_
1701:__ZN8Animator8TransferI24GenerateTypeTreeTransferEEvRT_
1702:__ZN8Animator8TransferI18StreamedBinaryReadEEvRT_
1703:__ZN8Animator8TransferI19StreamedBinaryWriteEEvRT_
1704:__ZN8Animator27InitializeVisibilityCullingEv
1705:__ZN8Animator34RecomputeContainedRenderersRecurseER9Transform
1706:__ZN21AnimationHandleBinder17MainThreadCleanupEv
1707:__ZL39InvalidateSceneHandleTransformsCallbackPvS_i
1708:__ZN25RuntimeAnimatorController23DestroyCustomControllerEPN7mecanim9animation18ControllerConstantER20RuntimeBaseAllocator
1709:__ZN21AnimationHandleBinderD2Ev
1710:__ZN7mecanim9animation24DestroyBlendTreeConstantEPNS0_17BlendTreeConstantER20RuntimeBaseAllocator
1711:__ZN7mecanim12statemachine20DestroyStateConstantEPNS0_13StateConstantER20RuntimeBaseAllocator
1712:__ZN7mecanim9animation25DestroyControllerConstantEPNS0_18ControllerConstantER20RuntimeBaseAllocator
1713:__ZN7mecanim9animation28DestroyBlendTreeNodeConstantEPNS0_21BlendTreeNodeConstantER20RuntimeBaseAllocator
1714:__ZN14AvatarPlaybackD2Ev
1715:__ZN14AvatarPlaybackD0Ev
1716:__ZN14SafeBinaryRead21TransferSTLStyleArrayI13dynamic_arrayIjLj0EEEEvRT_17TransferMetaFlags
1717:__ZN14SafeBinaryRead8TransferIjEEvRT_PKc17TransferMetaFlags
1718:__ZN18StreamedBinaryRead21TransferSTLStyleArrayI13dynamic_arrayIjLj0EEEEvRT_17TransferMetaFlags
1719:__ZN26AnimatorOverrideControllerD2Ev
1720:__ZN26AnimatorOverrideControllerD0Ev
1721:__ZN26AnimatorOverrideController17MainThreadCleanupEv
1722:__ZN26AnimatorOverrideController13AwakeFromLoadE17AwakeFromLoadMode
1723:__ZNK26AnimatorOverrideController22GetTypeVirtualInternalEv
1724:__ZN26AnimatorOverrideController23VirtualRedirectTransferER19StreamedBinaryWrite
1725:__ZN26AnimatorOverrideController23VirtualRedirectTransferER18StreamedBinaryRead
1726:__ZN26AnimatorOverrideController23VirtualRedirectTransferER17RemapPPtrTransfer
1727:__ZN26AnimatorOverrideController23VirtualRedirectTransferER24GenerateTypeTreeTransfer
1728:__ZN26AnimatorOverrideController23VirtualRedirectTransferER14SafeBinaryRead
1729:__ZN26AnimatorOverrideController8GetAssetEb
1730:__ZN26AnimatorOverrideController23GetAnimationSetBindingsEv
1731:__ZNK26AnimatorOverrideController17GetAnimationClipsEv
1732:__ZNK26AnimatorOverrideController12StringFromIDEj
1733:__ZNK26AnimatorOverrideController13GetBehavioursEv
1734:__ZNK26AnimatorOverrideController41GetStateMachineBehaviourVectorDescriptionEv
1735:__ZNK26AnimatorOverrideController28HasMultiThreadedStateMachineEv
1736:__ZNK26AnimatorOverrideController30GetAnimationClipOverrideVectorEv
1737:__ZNK26AnimatorOverrideController27GetAnimationClipsToRegisterEv
1738:__ZN26AnimatorOverrideController10BuildAssetEv
1739:__ZN26AnimatorOverrideController10ClearAssetEv
1740:__ZN11UnityEngine9Animation26CreateAnimationSetBindingsERK13dynamic_arrayI4PPtrI13AnimationClipELj0EER20RuntimeBaseAllocator
1741:__ZNK26AnimatorOverrideController16GetOverrideClipsEv
1742:__ZNK26AnimatorOverrideController16GetOriginalClipsEv
1743:__ZNSt3__26__sortIRNS_6__lessI4PPtrI13AnimationClipES4_EEPS4_EEvT0_S8_T_
1744:__ZNSt3__27__sort5IRNS_6__lessI4PPtrI13AnimationClipES4_EEPS4_EEjT0_S8_S8_S8_S8_T_
1745:__ZNSt3__227__insertion_sort_incompleteIRNS_6__lessI4PPtrI13AnimationClipES4_EEPS4_EEbT0_S8_T_
1746:__ZN26AnimatorOverrideController8TransferI14SafeBinaryReadEEvRT_
1747:__ZN14SafeBinaryRead21TransferSTLStyleArrayI13dynamic_arrayI21AnimationClipOverrideLj0EEEEvRT_17TransferMetaFlags
1748:__ZN21AnimationClipOverride8TransferI14SafeBinaryReadEEvRT_
1749:__ZN26AnimatorOverrideController8TransferI24GenerateTypeTreeTransferEEvRT_
1750:__ZN21AnimationClipOverride8TransferI24GenerateTypeTreeTransferEEvRT_
1751:__ZN18StreamedBinaryRead21TransferSTLStyleArrayI13dynamic_arrayI21AnimationClipOverrideLj0EEEEvRT_17TransferMetaFlags
1752:__ZN26AnimatorOverrideController8TransferI19StreamedBinaryWriteEEvRT_
1753:__ZN8Vector2f8TransferI14SafeBinaryReadEEvRT_
1754:__ZNSt3__26vectorIiNS_9allocatorIiEEE6insertENS_11__wrap_iterIPKiEERS5_
1755:__Z18RegisterUnityClassI8AnimatorEvPKc
1756:__Z18RegisterUnityClassI26AnimatorOverrideControllerEvPKc
1757:__Z18RegisterUnityClassI25RuntimeAnimatorControllerEvPKc
1758:__ZN13ProduceHelperI25RuntimeAnimatorControllerLb1EE7ProduceE10MemLabelId18ObjectCreationMode
1759:__ZN25RuntimeAnimatorController12CleanupClassEv
1760:__ZNK17IAnimationBinding38SerializedPropertyPathToCurveAttributeER6ObjectPKc
1761:__ZNK17IAnimationBinding30CurveAttributeToSerializedPathERKN11UnityEngine9Animation10BoundCurveE
1762:__ZN13ProduceHelperI26AnimatorOverrideControllerLb0EE7ProduceE10MemLabelId18ObjectCreationMode
1763:__ZN26AnimatorOverrideController15InitializeClassEv
1764:__ZZN26AnimatorOverrideController15InitializeClassEvEN42FunctorImpl_87kDidModifyAnimatorController4CallEPviR11MessageData
1765:__ZN25RuntimeAnimatorControllerC2E10MemLabelId18ObjectCreationMode
1766:__ZN13ProduceHelperI8AnimatorLb0EE7ProduceE10MemLabelId18ObjectCreationMode
1767:__ZN8Animator15InitializeClassEv
1768:__ZN8Animator12CleanupClassEv
1769:__ZN10HumanTrait12CleanupClassEv
1770:__ZN7mecanim9animation23CleanupMuscleClipTablesEv
1771:__ZN8Animator20RebindOnDomainReloadEv
1772:__ZZN8Animator15InitializeClassEvEN43FunctorImpl_449kDidModifyAnimatorController4CallEPviR11MessageData
1773:__ZZN8Animator15InitializeClassEvEN37FunctorImpl_450kDidModifyOverrideClip4CallEPviR11MessageData
1774:__ZZN8Animator15InitializeClassEvEN31FunctorImpl_452kDidModifyMotion4CallEPviR11MessageData
1775:__ZZN8Animator15InitializeClassEvEN31FunctorImpl_454kDidModifyAvatar4CallEPviR11MessageData
1776:__ZZN8Animator15InitializeClassEvEN31FunctorImpl_459kDidAddComponent4CallEPviR11MessageData
1777:__ZN7mecanim9animation26InitializeMuscleClipTablesEv
1778:__ZN10HumanTrait15InitializeClassEv
1779:__Z27StateChangeValidateCallback18ScriptingMethodPtr17ScriptingClassPtrP6Object
1780:__Z28StateMachineValidateCallback18ScriptingMethodPtr17ScriptingClassPtrP6Object
1781:__ZN10HumanTrait21InitializeMuscleNamesEv
1782:__ZN10HumanTrait19InitializeBoneNamesEv
1783:__ZN10HumanTrait21InitializeMonoIndicesEv
1784:__ZN7mecanim5human21ComputeHierarchicMassEiPf
1785:__ZN13dynamic_arrayIN4core12basic_stringIcNS0_20StringStorageDefaultIcEEEELj0EE9push_backERKS4_
1786:__ZN10HumanTrait13GetFingerNameEib
1787:__ZN10HumanTrait19GetFingerMuscleNameEib
1788:__ZN13dynamic_arrayIN4core12basic_stringIcNS0_20StringStorageDefaultIcEEEELj0EE18resize_initializedEj12ResizePolicy
1789:__ZN7mecanim9animationL25MuscleIndexIdSortFunctionENS0_13MuscleIndexIdES1_
1790:__ZNSt3__26__sortIRPFbN7mecanim9animation13MuscleIndexIdES3_EPS3_EEvT0_S8_T_
1791:__ZNSt3__27__sort3IRPFbN7mecanim9animation13MuscleIndexIdES3_EPS3_EEjT0_S8_S8_T_
1792:__ZNSt3__27__sort5IRPFbN7mecanim9animation13MuscleIndexIdES3_EPS3_EEjT0_S8_S8_S8_S8_T_
1793:__ZNSt3__227__insertion_sort_incompleteIRPFbN7mecanim9animation13MuscleIndexIdES3_EPS3_EEbT0_S8_T_
1794:__ZN26AnimatorControllerPlayable21OverrideClipPlayablesEv
1795:__ZN17AnimationPlayable28UpdateInternalStateRecursiveILi2ELb0EEEvPK35AnimationPlayableEvaluationConstant
1796:__ZN8Animator23ClearAnimatorControllerEv
1797:__ZN8AnimatorC2E10MemLabelId18ObjectCreationMode
1798:__ZN14AvatarPlaybackC2E10MemLabelId
1799:__ZN21AnimationHandleBinderC2Ev
1800:__ZN27AnimatorControllerParameterC2Ev
1801:__Z20SetGlobalMatrixLossy15TransformAccessRKN4math7_float3ERKNS0_7_float4ERKNS0_8float3x3E
1802:__Z24CalculateGlobalRSInverse23TransformAccessReadOnly
1803:__ZNSt3__26vectorIN4core12basic_stringIcNS1_20StringStorageDefaultIcEEEE13stl_allocatorIS5_L18MemLabelIdentifier1ELi16EEE21__push_back_slow_pathIS5_EEvOT_
1804:__ZN8Animator27FreeGlobalSpaceSkeletonPoseEPN7mecanim8skeleton13SkeletonPoseTIN4math7affineXEEE
1805:__ZNK8Animator26GetGlobalSpaceSkeletonPoseEPPN7mecanim8skeleton13SkeletonPoseTIN4math7affineXEEEiRKNS3_7_float4E23TransformAccessReadOnly
1806:__ZN8Animator22ScriptingStringToCRC32ERK11ICallString
1807:__ZN8Animator8SetFloatEif
1808:__ZN8Animator7SetBoolEib
1809:__ZN8Animator10SetIntegerEii
1810:__ZN8Animator8GetFloatEiRfb
1811:__ZN8Animator7GetBoolEiRb
1812:__ZN8Animator10GetIntegerEiRi
1813:__ZN8Animator12ResetTriggerEi
1814:__ZN8Animator10SetTriggerEi
1815:__ZN26AnimatorControllerPlayable13GetParametersEv
1816:__ZNSt3__26vectorI27AnimatorControllerParameterNS_9allocatorIS1_EEE7reserveEj
1817:__ZNSt3__26vectorI27AnimatorControllerParameterNS_9allocatorIS1_EEE21__push_back_slow_pathIRKS1_EEvOT_
1818:__ZNK8Animator13GetParametersEv
1819:__ZNK8Animator14IsInTransitionEi
1820:__ZNK26AnimatorControllerPlayable14IsInTransitionEi
1821:__ZNK8Animator20GetAnimatorStateInfoEi14StateInfoIndexR17AnimatorStateInfo
1822:__ZNK8Animator25GetAnimatorTransitionInfoEiR22AnimatorTransitionInfo
1823:__ZNK26AnimatorControllerPlayable25GetAnimatorTransitionInfoEiR22AnimatorTransitionInfo
1824:__ZN7mecanim12statemachine21GetTransitionConstantEPKNS0_20StateMachineConstantEPKNS0_18StateMachineMemoryE
1825:__ZN26AnimatorControllerPlayable17GotoStateInternalEiifffb
1826:__ZNK26AnimatorControllerPlayable17ValidateGoToStateERiS0_
1827:__ZN7mecanim12statemachine13GetStateIndexEPKNS0_20StateMachineConstantEj
1828:__ZN8Animator9GotoStateEiifff
1829:__ZN8Animator19ValidateParameterIDE17GetSetValueResulti
1830:__ZN8Animator23ValidateParameterStringE17GetSetValueResultRKN4core12basic_stringIcNS1_20StringStorageDefaultIcEEEE
1831:__Z31DoCalculateAnimatorSkinMatricesP25CalculateSkinMatricesTask
1832:__Z24RegisterModule_Animationv
1833:__ZL26InitializeModule_Animationv
1834:__ZL23CleanupModule_Animationv
1835:__Z32SetupMonoScriptCacheForAnimationP15MonoScriptCache
1836:__Z33AnimatorControllerParameterToMonoRK27AnimatorControllerParameterR31MonoAnimatorControllerParameter
1837:__ZN16AnimatorBindings13GetParametersEP8Animator
1838:__ZN11Marshalling39CreateNullExceptionForUnityEngineObjectE18ScriptingObjectPtr
1839:__ZN11Marshalling16StringMarshaller16EnsureMarshalledEv
1840:__ZN11Marshalling16StringMarshallerD2Ev
1841:__Z36Animator_CUSTOM_GetAnimatorStateInfoP12Il2CppObjecti14StateInfoIndexR17AnimatorStateInfo
1842:__Z41Animator_CUSTOM_GetAnimatorTransitionInfoP12Il2CppObjectiR22AnimatorTransitionInfo
1843:__Z30Animator_CUSTOM_IsInTransitionP12Il2CppObjecti
1844:__Z34Animator_Get_Custom_PropParametersP12Il2CppObject
1845:__Z20Animator_CUSTOM_PlayP12Il2CppObjectiif
1846:__Z41Animator_Get_Custom_PropHasBoundPlayablesP12Il2CppObject
1847:__Z28Animator_CUSTOM_StringToHashP12Il2CppString
1848:__Z26Animator_CUSTOM_SetFloatIDP12Il2CppObjectif
1849:__Z26Animator_CUSTOM_GetFloatIDP12Il2CppObjecti
1850:__Z25Animator_CUSTOM_SetBoolIDP12Il2CppObjectih
1851:__Z25Animator_CUSTOM_GetBoolIDP12Il2CppObjecti
1852:__Z28Animator_CUSTOM_SetIntegerIDP12Il2CppObjectii
1853:__Z28Animator_CUSTOM_GetIntegerIDP12Il2CppObjecti
1854:__Z32Animator_CUSTOM_SetTriggerStringP12Il2CppObjectP12Il2CppString
1855:__Z28Animator_CUSTOM_SetTriggerIDP12Il2CppObjecti
1856:__Z34Animator_CUSTOM_ResetTriggerStringP12Il2CppObjectP12Il2CppString
1857:__GLOBAL__sub_I_ARScriptingClasses_cpp
1858:__ZL60__ManagedRegistrationHelperFunction_CoordinateFramePairProxyPv
1859:__ZL50__ManagedRegistrationHelperFunction_GridIndexProxyPv
1860:__ZL65__ManagedRegistrationHelperFunction_MeshReconstructionConfigProxyPv
1861:__ZL65__ManagedRegistrationHelperFunction_MeshReconstructionServerProxyPv
1862:__ZL49__ManagedRegistrationHelperFunction_PoseDataProxyPv
1863:__ZL59__ManagedRegistrationHelperFunction_TangoInputTrackingProxyPv
1864:__ZN9Scripting11UnityEngine2XR5Tango23TangoInputTrackingProxy9InitProxyEv
1865:__ZN9Scripting11UnityEngine2XR5Tango23TangoInputTrackingProxy12CleanupProxyEv
1866:__ZN9Scripting11UnityEngine2XR5Tango13PoseDataProxy9InitProxyEv
1867:__ZN9Scripting11UnityEngine2XR5Tango13PoseDataProxy12CleanupProxyEv
1868:__ZN9Scripting11UnityEngine2XR5Tango29MeshReconstructionServerProxy9InitProxyEv
1869:__ZN9Scripting11UnityEngine2XR5Tango29MeshReconstructionServerProxy12CleanupProxyEv
1870:__ZN9Scripting11UnityEngine2XR5Tango29MeshReconstructionConfigProxy9InitProxyEv
1871:__ZN9Scripting11UnityEngine2XR5Tango29MeshReconstructionConfigProxy12CleanupProxyEv
1872:__ZN9Scripting11UnityEngine2XR5Tango14GridIndexProxy9InitProxyEv
1873:__ZN9Scripting11UnityEngine2XR5Tango14GridIndexProxy12CleanupProxyEv
1874:__ZN9Scripting11UnityEngine2XR5Tango24CoordinateFramePairProxy9InitProxyEv
1875:__ZN9Scripting11UnityEngine2XR5Tango24CoordinateFramePairProxy12CleanupProxyEv
1876:__GLOBAL__sub_I_AssetBundleScriptingClasses_cpp
1877:__GLOBAL__sub_I_Modules_AssetBundle_Public_1_cpp
1878:__ZN13RuntimeStaticI18AssetBundleManagerLb1EE16StaticInitializeEPv
1879:__ZN13RuntimeStaticI18AssetBundleManagerLb1EE13StaticDestroyEPv
1880:__ZN18AssetBundleManagerD2Ev
1881:__ZL65__ManagedRegistrationHelperFunction_AssetBundleCreateRequestProxyPv
1882:__ZL59__ManagedRegistrationHelperFunction_AssetBundleRequestProxyPv
1883:__ZN9Scripting11UnityEngine23AssetBundleRequestProxy9InitProxyEv
1884:__ZN9Scripting11UnityEngine23AssetBundleRequestProxy12CleanupProxyEv
1885:__ZN9Scripting11UnityEngine29AssetBundleCreateRequestProxy9InitProxyEv
1886:__ZN9Scripting11UnityEngine29AssetBundleCreateRequestProxy12CleanupProxyEv
1887:__ZN14SafeBinaryRead21TransferSTLStyleArrayINSt3__26vectorI14ConstantStringNS1_9allocatorIS3_EEEEEEvRT_17TransferMetaFlags
1888:__Z14resize_trimmedINSt3__26vectorI14ConstantStringNS0_9allocatorIS2_EEEEEvRT_j
1889:__ZNSt3__26vectorI14ConstantStringNS_9allocatorIS1_EEE6assignINS_11__wrap_iterIPS1_EEEENS_9enable_ifIXaasr21__is_forward_iteratorIT_EE5valuesr16is_constructibleIS1_NS_15iterator_traitsISA_E9referenceEEE5valueEvE4typeESA_SA_
1890:__ZNSt3__26vectorI14ConstantStringNS_9allocatorIS1_EEE8__appendEj
1891:__ZN15SerializeTraitsINSt3__24pairIN4core12basic_stringIcNS2_20StringStorageDefaultIcEEEE4PPtrI6ObjectEEEE8TransferI14SafeBinaryReadEEvRSA_RT_
1892:__ZN18StreamedBinaryRead21TransferSTLStyleArrayINSt3__26vectorI14ConstantStringNS1_9allocatorIS3_EEEEEEvRT_17TransferMetaFlags
1893:__ZN19StreamedBinaryWrite21TransferSTLStyleArrayINSt3__26vectorI14ConstantStringNS1_9allocatorIS3_EEEEEEvRT_17TransferMetaFlags
1894:__ZN23PreloadManagerOperation11GetPriorityEv
1895:__ZN23PreloadManagerOperation14SetFinalTimingEffff
1896:__ZN23PreloadManagerOperation19IntegrateTimeSlicedEi
1897:__ZN23PreloadManagerOperation12GetDebugNameEv
1898:__ZNSt3__26__treeIiNS_4lessIiEENS_9allocatorIiEEE7destroyEPNS_11__tree_nodeIiPvEE
1899:__ZN23PreloadManagerOperation11SetPriorityEi
1900:__ZN27TimeSliceAwakeFromLoadQueueD2Ev
1901:__ZNSt3__26__sortIRNS_6__lessIN4core12basic_stringIcNS2_20StringStorageDefaultIcEEEES6_EEPS6_EEvT0_SA_T_
1902:__ZNSt3__27__sort3IRNS_6__lessIN4core12basic_stringIcNS2_20StringStorageDefaultIcEEEES6_EEPS6_EEjT0_SA_SA_T_
1903:__ZNSt3__27__sort4IRNS_6__lessIN4core12basic_stringIcNS2_20StringStorageDefaultIcEEEES6_EEPS6_EEjT0_SA_SA_SA_T_
1904:__ZNSt3__27__sort5IRNS_6__lessIN4core12basic_stringIcNS2_20StringStorageDefaultIcEEEES6_EEPS6_EEjT0_SA_SA_SA_SA_T_
1905:__ZNSt3__218__insertion_sort_3IRNS_6__lessIN4core12basic_stringIcNS2_20StringStorageDefaultIcEEEES6_EEPS6_EEvT0_SA_T_
1906:__ZNSt3__227__insertion_sort_incompleteIRNS_6__lessIN4core12basic_stringIcNS2_20StringStorageDefaultIcEEEES6_EEPS6_EEbT0_SA_T_
1907:__Z7ToLowerIN4core12basic_stringIcNS0_20StringStorageDefaultIcEEEEET_RKS5_
1908:__Z14StartsWithPathIN4core12basic_stringIcNS0_20StringStorageDefaultIcEEEEA8_cEbRKT_RKT0_
1909:__ZN4core8hash_mapIiiNS_4hashIiEENSt3__28equal_toIiEEE6insertERKiS8_
1910:__GLOBAL__sub_I_AudioScriptingClasses_cpp
1911:__GLOBAL__sub_I_Modules_Audio_Public_0_cpp
1912:__GLOBAL__sub_I_Modules_Audio_Public_1_cpp
1913:__GLOBAL__sub_I_Modules_Audio_Public_3_cpp
1914:__GLOBAL__sub_I_Runtime_Video_0_cpp
1915:__ZN13RuntimeStaticINSt3__26vectorIP16BaseVideoTexture13stl_allocatorIS3_L18MemLabelIdentifier20ELi16EEEELb0EE16StaticInitializeEPv
1916:__ZN13RuntimeStaticINSt3__26vectorIP16BaseVideoTexture13stl_allocatorIS3_L18MemLabelIdentifier20ELi16EEEELb0EE13StaticDestroyEPv
1917:__ZN13RuntimeStaticINSt3__26vectorI12WebCamDeviceNS0_9allocatorIS2_EEEELb0EE13StaticDestroyEPv
1918:__ZL37StaticInitializeAudioCustomFilterRootPv
1919:__ZL34StaticDestroyAudioCustomFilterRootPv
1920:__ZN13RuntimeStaticINSt3__23mapIjP19AudioSampleProviderNS0_4lessIjEE13stl_allocatorINS0_4pairIKjS3_EEL18MemLabelIdentifier27ELi16EEEELb0EE13StaticDestroyEPv
1921:__ZL37StaticInitializeAudioSourceFilterRootPv
1922:__ZL34StaticDestroyAudioSourceFilterRootPv
1923:__ZNSt3__26__treeINS_12__value_typeIjP19AudioSampleProviderEENS_19__map_value_compareIjS4_NS_4lessIjEELb1EEE13stl_allocatorIS4_L18MemLabelIdentifier27ELi16EEE7destroyEPNS_11__tree_nodeIS4_PvEE
1924:__ZN20DiagnosticSwitchEnumI23FMODDebugDisplayOptionsE18SetValueFromStringEPKc
1925:__ZN20DiagnosticSwitchEnumI23FMODDebugDisplayOptionsE20ApplyPersistentValueEv
1926:__ZN20DiagnosticSwitchEnumI23FMODDebugDisplayOptionsE20CollectScriptingInfoERN20DiagnosticSwitchBase13ScriptingInfoE
1927:__ZN20DiagnosticSwitchEnumI23FMODDebugDisplayOptionsE24UpdateFromScriptingValueE18ScriptingObjectPtrb
1928:__ZN10EnumTraits8ToStringI23FMODDebugDisplayOptionsEEN4core12basic_stringIcNS2_20StringStorageDefaultIcEEEET_
1929:__ZN4core20StringStorageDefaultIcE7replaceEjjPKcj
1930:__ZN10EnumTraits13TryFromStringI23FMODDebugDisplayOptionsEEbPKcbRT_
1931:__ZN20DiagnosticSwitchEnumI14FMODDebugTypesE18SetValueFromStringEPKc
1932:__ZN20DiagnosticSwitchEnumI14FMODDebugTypesE20ApplyPersistentValueEv
1933:__ZN20DiagnosticSwitchEnumI14FMODDebugTypesE20CollectScriptingInfoERN20DiagnosticSwitchBase13ScriptingInfoE
1934:__ZN20DiagnosticSwitchEnumI14FMODDebugTypesE24UpdateFromScriptingValueE18ScriptingObjectPtrb
1935:__ZN10EnumTraits8ToStringI14FMODDebugTypesEEN4core12basic_stringIcNS2_20StringStorageDefaultIcEEEET_
1936:__ZN10EnumTraits13TryFromStringI14FMODDebugTypesEEbPKcbRT_
1937:__ZN13RuntimeStaticINSt3__23setIP26AudioSampleProviderChannelNS0_4lessIS3_EE13stl_allocatorIS3_L18MemLabelIdentifier27ELi16EEEELb0EE13StaticDestroyEPv
1938:__ZNSt3__26__treeIP26AudioSampleProviderChannelNS_4lessIS2_EE13stl_allocatorIS2_L18MemLabelIdentifier27ELi16EEE7destroyEPNS_11__tree_nodeIS2_PvEE
1939:__ZL58__ManagedRegistrationHelperFunction_AudioClipPlayableProxyPv
1940:__ZL59__ManagedRegistrationHelperFunction_AudioMixerPlayableProxyPv
1941:__ZL60__ManagedRegistrationHelperFunction_AudioPlayableOutputProxyPv
1942:__ZL50__ManagedRegistrationHelperFunction_AudioClipProxyPv
1943:__ZL54__ManagedRegistrationHelperFunction_AudioSettingsProxyPv
1944:__ZL60__ManagedRegistrationHelperFunction_AudioSampleProviderProxyPv
1945:__ZL53__ManagedRegistrationHelperFunction_WebCamDeviceProxyPv
1946:__ZN9Scripting11UnityEngine17WebCamDeviceProxy9InitProxyEv
1947:__ZN9Scripting11UnityEngine17WebCamDeviceProxy12CleanupProxyEv
1948:__ZN9Scripting11UnityEngine12Experimental5Audio24AudioSampleProviderProxy9InitProxyEv
1949:__ZN9Scripting11UnityEngine12Experimental5Audio24AudioSampleProviderProxy12CleanupProxyEv
1950:__ZN9Scripting11UnityEngine18AudioSettingsProxy9InitProxyEv
1951:__ZN9Scripting11UnityEngine18AudioSettingsProxy12CleanupProxyEv
1952:__ZN9Scripting11UnityEngine14AudioClipProxy9InitProxyEv
1953:__ZN9Scripting11UnityEngine14AudioClipProxy12CleanupProxyEv
1954:__ZN9Scripting11UnityEngine5Audio24AudioPlayableOutputProxy9InitProxyEv
1955:__ZN9Scripting11UnityEngine5Audio24AudioPlayableOutputProxy12CleanupProxyEv
1956:__ZN9Scripting11UnityEngine5Audio23AudioMixerPlayableProxy9InitProxyEv
1957:__ZN9Scripting11UnityEngine5Audio23AudioMixerPlayableProxy12CleanupProxyEv
1958:__ZN9Scripting11UnityEngine5Audio22AudioClipPlayableProxy9InitProxyEv
1959:__ZN9Scripting11UnityEngine5Audio22AudioClipPlayableProxy12CleanupProxyEv
1960:__ZN4FMOD3DSP9setBypassEb
1961:__ZN4FMOD6System15createDSPByTypeE13FMOD_DSP_TYPEPPNS_3DSPE
1962:__ZN10ObjectPoolIN4FMOD3DSPENS0_4DSPIEE7GetFreeEi
1963:__ZN4FMOD3DSP12setParameterEif
1964:__ZN4FMOD3DSP7releaseEv
1965:__ZN15SerializeTraitsI9UnityGUIDE8TransferI14SafeBinaryReadEEvRS0_RT_
1966:__ZN9UnityGUID8TransferI24GenerateTypeTreeTransferEEvRT_
1967:__ZN9UnityGUID8TransferI18StreamedBinaryReadEEvRT_
1968:__ZN9UnityGUID8TransferI19StreamedBinaryWriteEEvRT_
1969:__ZN4FMOD6Reverb9setActiveEb
1970:__Z15GetAudioManagerv
1971:__ZN15AudioReverbZone4InitEv
1972:__ZN4FMOD6System12createReverbEPPNS_6ReverbE
1973:__ZL16FMOD_ErrorString11FMOD_RESULT
1974:__ZN12AudioManager21FixMasterGroupRoutingEv
1975:__ZN15AudioReverbZone13SetFMODValuesEv
1976:__ZN4FMOD6System6updateEv
1977:__ZN4FMOD6Reverb15set3DAttributesEPK11FMOD_VECTORff
1978:__ZN4FMOD6Reverb13setPropertiesEPK22FMOD_REVERB_PROPERTIES
1979:__ZN4FMOD12ChannelGroup10getDSPHeadEPPNS_3DSPE
1980:__ZN4FMOD3DSP9getOutputEiPPS0_PPNS_13DSPConnectionE
1981:__ZN4FMOD3DSP8getInputEiPPS0_PPNS_13DSPConnectionE
1982:__ZN4FMOD3DSP12getNumInputsEPi
1983:__ZN4FMOD3DSP7getInfoEPcPjPiS3_S3_
1984:__ZN4FMOD3DSP13disconnectAllEbb
1985:__ZN4FMOD3DSP8addInputEPS0_PPNS_13DSPConnectionE
1986:__ZN4FMOD6Reverb7releaseEv
1987:__ZN17AnimationCurveTplIfE6AssignEPK11KeyframeTplIfES4_
1988:__ZN12AudioManagerD2Ev
1989:__ZN12AudioManagerD0Ev
1990:__ZN12AudioManager17MainThreadCleanupEv
1991:__ZN12AudioManager13AwakeFromLoadE17AwakeFromLoadMode
1992:__ZN12AudioManager16CheckConsistencyEv
1993:__ZN12AudioManager5ResetEv
1994:__ZNK12AudioManager22GetTypeVirtualInternalEv
1995:__ZN12AudioManager23VirtualRedirectTransferER19StreamedBinaryWrite
1996:__ZN12AudioManager23VirtualRedirectTransferER18StreamedBinaryRead
1997:__ZN12AudioManager23VirtualRedirectTransferER24GenerateTypeTreeTransfer
1998:__ZN12AudioManager23VirtualRedirectTransferER14SafeBinaryRead
1999:__ZN12AudioManager8TransferI14SafeBinaryReadEEvRT_
2000:__ZN12AudioManager8TransferI24GenerateTypeTreeTransferEEvRT_
2001:__ZN12AudioManager8TransferI18StreamedBinaryReadEEvRT_
2002:__ZN12AudioManager8TransferI19StreamedBinaryWriteEEvRT_
2003:__ZN12AudioManager8InitFMODE15FMOD_OUTPUTTYPE
2004:__ZN12AudioManager29ShutdownReinitializeAndReloadE15FMOD_OUTPUTTYPEPS0_
2005:__ZN4FMOD12ChannelGroup9setVolumeEf
2006:__ZN4FMOD6System13set3DSettingsEfff
2007:__ZN4FMOD6System9getOutputEP15FMOD_OUTPUTTYPE
2008:__ZN12AudioManager9CloseFMODEv
2009:__ZN9AudioClip6ReloadEv
2010:__ZN13AudioListener12ApplyFiltersEv
2011:__ZN12AudioManager39HandlePendingAudioConfigurationCallbackEv
2012:__Z24GetAudioScriptingClassesv
2013:__ZL31InitializeAudioScriptingClassesv
2014:__ZL28CleanupAudioScriptingClassesv
2015:__ZN11AudioFilter6GetDSPEv
2016:__ZN4FMOD3DSP6removeEv
2017:__Z15_CheckFMODError11FMOD_RESULTPKciS1_
2018:__ZN4FMOD12ChannelGroup6addDSPEPNS_3DSPEPPNS_13DSPConnectionE
2019:__ZN4FMOD3DSP9getBypassEPb
2020:__ZN11AudioSource7CleanupEv
2021:__ZN13AudioListener7CleanupEv
2022:__ZN15AudioReverbZone7CleanupEv
2023:__ZN26AudioSampleProviderChannel7CleanupEv
2024:__ZN10AudioMixer33EnsureMixerGroupSinksAreDestroyedEv
2025:__ZN5audio5mixer23DestroyAudioMixerMemoryEPNS0_16AudioMixerMemoryERKNS0_18AudioMixerConstantEPN4FMOD6SystemER20RuntimeBaseAllocator
2026:__ZN4FMOD12ChannelGroup7releaseEv
2027:__ZN9AudioClip7CleanupEv
2028:__ZN4FMOD6System5closeEv
2029:__ZN12SoundManagerD2Ev
2030:__ZN12SoundManager20OnExitPlayModeStaticEv
2031:__ZN12SoundManager26OnBeforeDomainUnloadStaticEv
2032:__ZN12SoundManager6UpdateEv
2033:__ZN11SoundHandle8InstanceD2Ev
2034:__ZN20SoundChannelInstance4StopEv
2035:__ZN4FMOD5Sound7releaseEv
2036:__ZN4FMOD6SoundI7releaseEv
2037:__ZN4FMOD8ChannelI11EndCallbackEv
2038:__ZN4FMOD7Channel4stopEv
2039:__ZN4FMOD7Channel11setPositionEjj
2040:__ZN11SoundHandle8Instance15UpdateLoadStateEv
2041:__ZN4FMOD6System9playSoundE17FMOD_CHANNELINDEXPNS_5SoundEbPPNS_7ChannelE
2042:__ZN20SoundChannelInstance14SetFMODChannelEPN4FMOD7ChannelE
2043:__ZN20SoundChannelInstance15ParameterBuffer5ApplyEPN4FMOD7ChannelE
2044:__ZN20SoundChannelInstance12UpdateVolumeEv
2045:__ZN20SoundChannelInstance11UpdatePitchEv
2046:__ZN20SoundChannelInstance16UpdatePauseStateEv
2047:__ZN4FMOD7Channel9setPausedEb
2048:__ZN4FMOD7Channel12setFrequencyEf
2049:__ZN4FMOD7Channel9setVolumeEf
2050:__ZN4FMOD8ChannelI9setVolumeEf
2051:__ZN4FMOD7Channel7setMuteEb
2052:__ZN4FMOD7Channel11setCallbackEPF11FMOD_RESULTP12FMOD_CHANNEL25FMOD_CHANNEL_CALLBACKTYPEPvS5_E
2053:__ZN4FMOD7Channel7setModeEj
2054:__ZN4FMOD7Channel15setChannelGroupEPNS_12ChannelGroupE
2055:__ZN4FMOD7Channel11setPriorityEi
2056:__ZN4FMOD7Channel19setReverbPropertiesEPK29FMOD_REVERB_CHANNELPROPERTIES
2057:__ZN4FMOD7Channel8setDelayE14FMOD_DELAYTYPEjj
2058:__ZN4FMOD7Channel6setPanEf
2059:__ZN4FMOD7Channel15set3DAttributesEPK11FMOD_VECTORS3_
2060:__ZN4FMOD7Channel20set3DConeOrientationEP11FMOD_VECTOR
2061:__ZN4FMOD7Channel17set3DConeSettingsEfff
2062:__ZN4FMOD7Channel19set3DMinMaxDistanceEff
2063:__ZN4FMOD7Channel13set3DPanLevelEf
2064:__ZN4FMOD7Channel11set3DSpreadEf
2065:__ZN4FMOD8ChannelI15set3DAttributesEPK11FMOD_VECTORS3_
2066:__ZN4FMOD8ChannelI18UpdateDopplerPitchEv
2067:__ZN4FMOD8ChannelI8setDelayE14FMOD_DELAYTYPEjj
2068:__ZN4FMOD7Channel6addDSPEPNS_3DSPEPPNS_13DSPConnectionE
2069:__ZN4FMOD7Channel11setUserDataEPv
2070:__ZN20SoundChannelInstance19FMODChannelCallbackEP12FMOD_CHANNEL25FMOD_CHANNEL_CALLBACKTYPEPvS3_
2071:__ZN4FMOD7Channel12getFrequencyEPf
2072:__ZN4FMOD7Channel11getUserDataEPPv
2073:__ZN4FMOD7SystemI9playSoundE17FMOD_CHANNELINDEXPNS_5SoundEbPPNS_7ChannelE
2074:__ZN10ObjectPoolIN4FMOD7ChannelENS0_8ChannelIEE7GetFreeEi
2075:__ZN4FMOD22FakeModChannelCallbackEPv
2076:__ZN4FMOD5Sound12getOpenStateEP14FMOD_OPENSTATEPjPbS4_
2077:__ZN4FMOD5Sound15getNumSubSoundsEPi
2078:__ZN4FMOD5Sound11getSubSoundEiPPS0_
2079:__ZN4FMOD5Sound11setUserDataEPv
2080:__ZN4FMOD8ChannelI11setPositionEjj
2081:__ZN10SampleClip15UnloadAudioDataEv
2082:__Z15GetSoundManagerv
2083:__ZN12SoundManager10UnloadClipEP10SampleClip
2084:__ZN12SoundManager20RegisterModifiedClipEP10SampleClip
2085:__ZN11SoundHandle8Instance7DisposeEv
2086:__ZN11SoundHandleD2Ev
2087:__ZN11SoundHandle7ReleaseEv
2088:__ZN11SoundHandleaSERKS_
2089:__ZN11AudioFilter7CleanupEv
2090:__ZN17AudioCustomFilter7CleanupEv
2091:__ZN11AudioSource4StopEb
2092:__ZN4FMOD3DSP11getUserDataEPPv
2093:__ZN11AudioSource16CleanAudioSourceEb
2094:__ZNK11AudioSource19GetFilterComponentsERNSt3__26vectorIPN4FMOD3DSPENS0_9allocatorIS4_EEEEb
2095:__ZNSt3__26vectorIPN4FMOD3DSPENS_9allocatorIS3_EEE21__push_back_slow_pathIRKS3_EEvOT_
2096:__ZN11AudioSource26MuteActiveProviderChannelsEv
2097:__ZN20SoundChannelInstance7setMuteEb
2098:_FMOD_Memory_Initialize
2099:_FMOD_System_Create
2100:__ZNK12AudioManager18ValidateFMODResultE11FMOD_RESULTiPKcS2_
2101:__Z14FMOD_FILE_OpenPKciPjPPvS3_
2102:__Z15FMOD_FILE_ClosePvS_
2103:__Z14FMOD_FILE_ReadPvS_jPjS_
2104:__Z14FMOD_FILE_SeekPvjS_
2105:__ZN4FMOD6System13setFileSystemEPF11FMOD_RESULTPKciPjPPvS6_EPFS1_S5_S5_EPFS1_S5_S5_jS4_S5_EPFS1_S5_jS5_EPFS1_P18FMOD_ASYNCREADINFOS5_ESA_i
2106:__ZN4FMOD6System10getVersionEPj
2107:__ZN4FMOD6System19setStreamBufferSizeEjj
2108:__ZN12AudioManager14systemCallbackEP11FMOD_SYSTEM24FMOD_SYSTEM_CALLBACKTYPEPvS3_
2109:__ZN4FMOD6System11setCallbackEPF11FMOD_RESULTP11FMOD_SYSTEM24FMOD_SYSTEM_CALLBACKTYPEPvS5_E
2110:__ZN11AudioSource15rolloffCallbackEP12FMOD_CHANNELf
2111:__ZN4FMOD6System20set3DRolloffCallbackEPFfP12FMOD_CHANNELfE
2112:__ZN12AudioManager10InitNormalEb15FMOD_OUTPUTTYPE
2113:__ZN4FMOD6System7releaseEv
2114:__ZN4FMOD6System21getMasterChannelGroupEPPNS_12ChannelGroupE
2115:__ZN4FMOD6System17getSoftwareFormatEPiP17FMOD_SOUND_FORMATS1_S1_P18FMOD_DSP_RESAMPLERS1_
2116:__ZN4FMOD6System16getDSPBufferSizeEPjPi
2117:__ZN4FMOD6System11getDSPClockEPjS1_
2118:__Z29AudioMasterDSPProcessCallbackP21UnityAudioEffectStatePfS1_jii
2119:__ZN29AudioEffectInternalDefinition9CreateDSPEPN4FMOD6SystemEPvPfP23UnityAudioAmbisonicDataPP25UnityAudioSpatializerData
2120:__ZN4FMOD6System18createChannelGroupEPKcPPNS_12ChannelGroupE
2121:__ZN4FMOD12ChannelGroup8addGroupEPS0_
2122:__ZN29AudioEffectInternalDefinitionD2Ev
2123:__ZN12SoundManagerC2Ev
2124:__ZN10ObjectPoolIN4FMOD12ChannelGroupENS0_13ChannelGroupIEE7GetFreeEi
2125:__ZN4FMOD6System9createDSPEP20FMOD_DSP_DESCRIPTIONPPNS_3DSPE
2126:__ZN29AudioEffectInternalDefinitionC2EP26UnityAudioEffectDefinitionb
2127:__ZN30AudioEffectInternalDescriptionC2EP26UnityAudioEffectDefinition
2128:__ZL39UnityAudioEffect_InternalCreateCallbackP14FMOD_DSP_STATE
2129:__ZL40UnityAudioEffect_InternalReleaseCallbackP14FMOD_DSP_STATE
2130:__ZL38UnityAudioEffect_InternalResetCallbackP14FMOD_DSP_STATE
2131:__ZL37UnityAudioEffect_InternalReadCallbackP14FMOD_DSP_STATEPfS1_jii
2132:__ZL44UnityAudioEffect_InternalSetPositionCallbackP14FMOD_DSP_STATEj
2133:__ZL50UnityAudioEffect_InternalSetFloatParameterCallbackP14FMOD_DSP_STATEif
2134:__ZL50UnityAudioEffect_InternalGetFloatParameterCallbackP14FMOD_DSP_STATEiPfPc
2135:__ZN4FMOD3DSP11setUserDataEPv
2136:__ZN4FMOD6System9setOutputE15FMOD_OUTPUTTYPE
2137:__ZN4FMOD6System13getNumDriversEPi
2138:__ZN4FMOD6System9getDriverEPi
2139:__ZN4FMOD6System13getDriverCapsEiPjPiP16FMOD_SPEAKERMODE
2140:__ZN4FMOD6System14setSpeakerModeE16FMOD_SPEAKERMODE
2141:__ZN4FMOD6System16setDSPBufferSizeEji
2142:__ZN4FMOD6System17setSoftwareFormatEi17FMOD_SOUND_FORMATii18FMOD_DSP_RESAMPLER
2143:__ZN4FMOD6System19setSoftwareChannelsEi
2144:__ZN4FMOD6System4initEijPv
2145:__ZN10ObjectPoolIN4FMOD7ChannelENS0_8ChannelIEE7SetSizeEi
2146:__ZN12AudioManager21SetActiveOutputDriverEP9FMOD_GUID
2147:__ZN4FMOD6System9setDriverEi
2148:__ZN4FMOD6System13getDriverInfoEiPciP9FMOD_GUID
2149:__ZN4FMOD7SystemIC2Ei
2150:__ZN10ObjectPoolIN4FMOD12ChannelGroupENS0_13ChannelGroupIEE7SetSizeEi
2151:__ZN10ObjectPoolIN4FMOD5SoundENS0_6SoundIEE7SetSizeEi
2152:__ZN10ObjectPoolIN4FMOD3DSPENS0_4DSPIEE7SetSizeEi
2153:__ZN12AudioManager27InitialCompleteDomainReloadEv
2154:__ZN24AudioScriptBufferManager4InitEv
2155:__ZN24AudioScriptBufferManagerC2Ev
2156:__ZN10AudioMixer6UpdateEf
2157:__ZN10AudioMixer18EnsureValidRuntimeEv
2158:__ZN5audio5mixer22UpdateAudioMixerMemoryERKNS0_18AudioMixerConstantERNS0_16AudioMixerMemoryEfPN4FMOD6SystemEf
2159:__ZN4FMOD12ChannelGroup19setAudibilityFactorEf
2160:__ZN4FMOD12ChannelGroup8setPitchEf
2161:__ZN4FMOD13DSPConnection6setMixEf
2162:__ZN5audio5mixerL19IsAnyChannelPlayingEPN4FMOD12ChannelGroupE
2163:__ZN5audio5mixer12SetSuspendedERNS0_16AudioMixerMemoryEb
2164:__ZN4FMOD3DSP9getActiveEPb
2165:__ZN4FMOD3DSP15getSystemObjectEPPNS_6SystemE
2166:__ZN4FMOD3DSP9setActiveEb
2167:__ZN4FMOD12ChannelGroup14getNumChannelsEPi
2168:__ZN4FMOD12ChannelGroup10getChannelEiPPNS_7ChannelE
2169:__ZN4FMOD7Channel9isPlayingEPb
2170:__ZN4FMOD12ChannelGroup12getNumGroupsEPi
2171:__ZN4FMOD12ChannelGroup8getGroupEiPPS0_
2172:__ZN5audio5mixer22CreateAudioMixerMemoryERKNS0_18AudioMixerConstantEPN4FMOD6SystemER20RuntimeBaseAllocatorib
2173:__ZN10AudioMixer31EnsureMixerGroupSinksAreCreatedEv
2174:__ZN10AudioMixer14UpdateMuteSoloEv
2175:__ZN5audio5mixer12UpdateBypassERNS0_18AudioMixerConstantERNS0_16AudioMixerMemoryE
2176:__ZN5audio5mixer21SetResultingMuteStateERKNS0_18AudioMixerConstantERKNS0_16AudioMixerMemoryEib
2177:__ZN10AudioMixer11SetupGroupsEv
2178:__ZN12AudioManager37RebindAudioSourcesAndSubMixersToMixerEP10AudioMixer
2179:__ZN11AudioSource19ConfigureFMODGroupsEv
2180:__ZN10AudioMixer12RebindOutputEv
2181:__ZN5audio5mixer16FindChannelGroupERKNS0_18AudioMixerConstantERKNS0_16AudioMixerMemoryERK9UnityGUID
2182:__ZN5audio5mixer17AssignOutputGroupERKNS0_18AudioMixerConstantERKNS0_16AudioMixerMemoryEPN4FMOD12ChannelGroupE
2183:__ZN4FMOD12ChannelGroup14getParentGroupEPPS0_
2184:__ZN11AudioSource12ApplyFiltersEv
2185:__ZN11AudioSource20SetEffectActiveStateEb
2186:__ZN10AudioMixer14MixerGroupSink15ProcessCallbackEP21UnityAudioEffectStatePfS3_jii
2187:__ZN4FMOD12ChannelGroup7setMuteEb
2188:__Z32AudioMeasurement_GetTimeConstantff
2189:__Z25GetAudioEffectDefinitionsPi
2190:__Z29AudioMixerSendProcessCallbackP21UnityAudioEffectStatePfS1_jii
2191:__Z32AudioMixerReceiveProcessCallbackP21UnityAudioEffectStatePfS1_jii
2192:__Z31AudioMixerDuckingCreateCallbackP21UnityAudioEffectState
2193:__Z32AudioMixerDuckingDestroyCallbackP21UnityAudioEffectState
2194:__Z37AudioMixerDuckingSetParameterCallbackP21UnityAudioEffectStateif
2195:__Z39AudioMixerDuckingGetFloatBufferCallbackP21UnityAudioEffectStatePKcPfi
2196:__Z32AudioMixerDuckingProcessCallbackP21UnityAudioEffectStatePfS1_jii
2197:__Z30AudioMixerFaderProcessCallbackP21UnityAudioEffectStatePfS1_jii
2198:__ZN12AudioManager33GetAudioEffectInternalDefinitionsEv
2199:__ZN11AudioSourceD2Ev
2200:__ZN11AudioSourceD0Ev
2201:__ZN11AudioSource17MainThreadCleanupEv
2202:__ZN11AudioSource13AwakeFromLoadE17AwakeFromLoadMode
2203:__ZN11AudioSource16CheckConsistencyEv
2204:__ZN11AudioSource5ResetEv
2205:__ZNK11AudioSource22GetTypeVirtualInternalEv
2206:__ZN11AudioSource23VirtualRedirectTransferER19StreamedBinaryWrite
2207:__ZN11AudioSource23VirtualRedirectTransferER18StreamedBinaryRead
2208:__ZN11AudioSource23VirtualRedirectTransferER17RemapPPtrTransfer
2209:__ZN11AudioSource23VirtualRedirectTransferER24GenerateTypeTreeTransfer
2210:__ZN11AudioSource23VirtualRedirectTransferER14SafeBinaryRead
2211:__ZN11AudioSource6UpdateEv
2212:__ZN11AudioSource11FixedUpdateEv
2213:__ZN11AudioSource12AddToManagerEv
2214:__ZN11AudioSource17RemoveFromManagerEv
2215:__ZN11AudioSource4PlayEd
2216:__ZN10SampleClip13LoadAudioDataEv
2217:__ZN11AudioSource28UnmuteActiveProviderChannelsEv
2218:__ZN11AudioSource16CreateFMODGroupsEv
2219:__ZN11AudioSource11AssignPropsEv
2220:__ZN11AudioSource20ApplySpatializerDataERKNS_14ParameterCacheE
2221:__ZN11AudioSource18ApplyAmbisonicDataERKNS_14ParameterCacheE
2222:__ZN20SoundChannelInstance15setChannelGroupEPN4FMOD12ChannelGroupE
2223:__ZN11AudioSource21ApplyCachedParametersE12SoundChannel
2224:__ZN20SoundChannelInstance15set3DAttributesEPK11FMOD_VECTORS2_
2225:__ZN11AudioSource20Apply3DPanParametersERKNS_14ParameterCacheE12SoundChannel
2226:__ZN11AudioSource19ApplyMinMaxDistanceERKNS_14ParameterCacheE12SoundChannel
2227:__ZN11AudioSource18ApplyReverbZoneMixERKNS_14ParameterCacheE12SoundChannel
2228:__ZN11AudioSource13ApplyPriorityERKNS_14ParameterCacheE12SoundChannel
2229:__ZN20SoundChannelInstance9isVirtualEPb
2230:__ZN4FMOD7Channel9isVirtualEPb
2231:__ZN20SoundChannelInstance11setPriorityEi
2232:__ZN20SoundChannelInstance19getReverbPropertiesEP29FMOD_REVERB_CHANNELPROPERTIES
2233:__ZN20SoundChannelInstance19setReverbPropertiesEP29FMOD_REVERB_CHANNELPROPERTIES
2234:__ZN4FMOD7Channel19getReverbPropertiesEP29FMOD_REVERB_CHANNELPROPERTIES
2235:__ZN20SoundChannelInstance19set3DMinMaxDistanceEff
2236:__ZN20SoundChannelInstance13set3DPanLevelEf
2237:__ZN20SoundChannelInstance6setPanEf
2238:__ZN20SoundChannelInstance11set3DSpreadEf
2239:__ZN11AudioSource8SetPitchEf
2240:__ZN20SoundChannelInstance7SetLoopEb
2241:__ZN11AudioSource20CacheFrameParametersEv
2242:__ZN11AudioSource15CachePositionalERNS_14ParameterCacheE
2243:__ZN11AudioSource24CacheDistanceAttenuationERNS_14ParameterCacheE
2244:__ZN11AudioSource11CacheVolumeERNS_14ParameterCacheE
2245:__ZN12AudioManager31GetCurrentSpatializerDefinitionEv
2246:__ZN10AudioMixer16ResumeProcessingEv
2247:__Z30GetAudioSpatializerDefinitionsR13dynamic_arrayIP29AudioEffectInternalDefinitionLj0EE31UnityAudioEffectDefinitionFlags
2248:__ZN10SampleClip13LoadBaseSoundEv
2249:__ZNK10SampleClip17CalculateFMODModeEv
2250:__ZN12SoundManager9GetHandleERK16StreamedResourceijjP10SampleClipb
2251:__Z13LoadFMODSoundPPN11SoundHandle8InstanceEPKcjP10SampleClipjjP22FMOD_CREATESOUNDEXINFO
2252:__ZN12SoundManager18IntegrateFMODSoundEPN11SoundHandle8InstanceERK16StreamedResourcejiN17SoundHandleShared9LoadStateE
2253:__ZN4FMOD5Sound13setLoopPointsEjjjj
2254:__ZN11SoundHandle8InstanceC2Ev
2255:__ZN4FMOD6System11createSoundEPKcjP22FMOD_CREATESOUNDEXINFOPPNS_5SoundE
2256:__ZN4FMOD7SystemI11createSoundEPKcjP22FMOD_CREATESOUNDEXINFOPPNS_5SoundE
2257:__ZN10ObjectPoolIN4FMOD5SoundENS0_6SoundIEE7GetFreeEi
2258:__ZNK7WeakPtrIN11SoundHandle8InstanceEE10SharedData9GetRawPtrEv
2259:__ZN11AudioSource16UpdatePauseStateEv
2260:__ZN10SampleClip15AllocateChannelEby
2261:__ZN4FMOD6System7playDSPE17FMOD_CHANNELINDEXPNS_3DSPEbPPNS_7ChannelE
2262:__ZN11AudioSource15AddAmbisonicDSPE12SoundChannel
2263:__ZN20SoundChannelInstance14SetPositionPCMEj
2264:__ZN21AudioScriptingClasses23InvokeOnAudioSourcePlayE18ScriptingObjectPtrP21ScriptingExceptionPtr
2265:__ZN12AudioManager29GetCurrentAmbisonicDefinitionE31UnityAudioEffectDefinitionFlags
2266:__ZN20SoundChannelInstance15AddAmbisonicDSPE31UnityAudioEffectDefinitionFlagsP23UnityAudioAmbisonicData
2267:__ZN4FMOD3DSP12getParameterEiPfPci
2268:__ZN20SoundChannelInstanceC2E11SoundHandleb
2269:__ZN20SoundChannelInstanceD2Ev
2270:__ZN20SoundChannelInstanceD0Ev
2271:__ZN11SoundHandleC2ERKS_
2272:__ZN4FMOD7SystemI7playDSPE17FMOD_CHANNELINDEXPNS_3DSPEbPPNS_7ChannelE
2273:__ZN11SoundHandle13CreateChannelEb
2274:__ZN20SoundChannelInstance8setDelayE14FMOD_DELAYTYPEjj
2275:__ZN11SoundHandle8Instance13CreateChannelERS_b
2276:__ZN11AudioSource32CorrectScheduledTimeAfterUnpauseEy
2277:__ZN20SoundChannelInstance8getDelayE14FMOD_DELAYTYPEPjS1_
2278:__ZN11AudioSource8DoUpdateEv
2279:__ZN11AudioSource19UpdateLocalChannelsER13dynamic_arrayI12SoundChannelLj0EE
2280:__ZN13dynamic_arrayI12SoundChannelLj0EE9push_backERKS0_
2281:__ZN11AudioSource8TransferI14SafeBinaryReadEEvRT_
2282:__ZN11AudioSource19CreateOpenALRolloffEfff
2283:__ZN11AudioSource8TransferI24GenerateTypeTreeTransferEEvRT_
2284:__ZN11AudioSource8TransferI18StreamedBinaryReadEEvRT_
2285:__ZN11AudioSource8TransferI19StreamedBinaryWriteEEvRT_
2286:__ZN11AudioSource26KillActiveProviderChannelsEv
2287:__ZN15AudioParametersD2Ev
2288:__ZN10SampleClipD2Ev
2289:__ZN10SampleClipD0Ev
2290:__ZN10SampleClip17MainThreadCleanupEv
2291:__ZNK10SampleClip22GetTypeVirtualInternalEv
2292:__ZN10SampleClip23VirtualRedirectTransferER24GenerateTypeTreeTransfer
2293:__ZN10SampleClip23VirtualRedirectTransferER14SafeBinaryRead
2294:__ZNK10SampleClip12GetLoadStateEv
2295:__ZN9AudioClipD2Ev
2296:__ZN9AudioClipD0Ev
2297:__ZN9AudioClip17MainThreadCleanupEv
2298:__ZN9AudioClip13AwakeFromLoadE17AwakeFromLoadMode
2299:__ZN9AudioClip21AwakeFromLoadThreadedEv
2300:__ZNK9AudioClip22GetTypeVirtualInternalEv
2301:__ZN9AudioClip23VirtualRedirectTransferER19StreamedBinaryWrite
2302:__ZN9AudioClip23VirtualRedirectTransferER18StreamedBinaryRead
2303:__ZN9AudioClip23VirtualRedirectTransferER24GenerateTypeTreeTransfer
2304:__ZN9AudioClip23VirtualRedirectTransferER14SafeBinaryRead
2305:__ZN9AudioClip8TransferI14SafeBinaryReadEEvRT_
2306:__ZN9AudioClip8TransferI24GenerateTypeTreeTransferEEvRT_
2307:__ZN9AudioClip8TransferI18StreamedBinaryReadEEvRT_
2308:__ZN9AudioClip8TransferI19StreamedBinaryWriteEEvRT_
2309:__ZN9AudioClip9LoadSoundEv
2310:__ZN9AudioClip11CreateSoundEv
2311:__ZN12AudioManager22CreateFMODSoundFromWWWEP10IWWWStream15FMOD_SOUND_TYPE17FMOD_SOUND_FORMATjjbbP10SampleClip
2312:__ZN12SoundManager22GetHandleFromFMODSoundEPN11SoundHandle8InstanceEjP10SampleClip
2313:__ZN12AudioManager24CreateFMODSoundFromMovieEP9AudioClip
2314:__ZN9AudioClip21ScriptPCMReadCallbackEP10FMOD_SOUNDPvj
2315:__ZN9AudioClip28ScriptPCMSetPositionCallbackEP10FMOD_SOUNDijj
2316:__ZN12SoundManager19CreateSoundInternalEPKcjP22FMOD_CREATESOUNDEXINFOR11SoundHandlejP10SampleClip
2317:__ZN4FMOD5Sound11getUserDataEPPv
2318:__ZN12AudioManager22GetScriptBufferManagerEv
2319:__ZN9AudioClip12moviepcmreadEP10FMOD_SOUNDPvj
2320:__ZN9AudioClip18GetQueuedAudioDataEPPvj
2321:__ZN9AudioClip7WWWOpenEPKciPjPPvS4_
2322:__ZN9AudioClip8WWWCloseEPvS0_
2323:__ZN9AudioClip7WWWReadEPvS0_jPjS0_
2324:__ZN9AudioClip7WWWSeekEPvjS0_
2325:__ZN10IWWWStream25FromTextualRepresentationEPKc
2326:__ZN13AudioListenerD2Ev
2327:__ZN13AudioListenerD0Ev
2328:__ZN13AudioListener13AwakeFromLoadE17AwakeFromLoadMode
2329:__ZN13AudioListener5ResetEv
2330:__ZNK13AudioListener22GetTypeVirtualInternalEv
2331:__ZN13AudioListener23VirtualRedirectTransferER19StreamedBinaryWrite
2332:__ZN13AudioListener23VirtualRedirectTransferER18StreamedBinaryRead
2333:__ZN13AudioListener23VirtualRedirectTransferER17RemapPPtrTransfer
2334:__ZN13AudioListener23VirtualRedirectTransferER24GenerateTypeTreeTransfer
2335:__ZN13AudioListener23VirtualRedirectTransferER14SafeBinaryRead
2336:__ZN13AudioListener6UpdateEv
2337:__ZN13AudioListener11FixedUpdateEv
2338:__ZN13AudioListener12AddToManagerEv
2339:__ZN13AudioListener17RemoveFromManagerEv
2340:__ZN12AudioManager19RemoveAudioListenerEP13AudioListener
2341:__ZN12AudioManager16AddAudioListenerEP13AudioListener
2342:__ZN13AudioListener8DoUpdateEv
2343:__ZN12AudioManager14UpdateListenerERK8Vector3fS2_S2_S2_
2344:__ZNK18AudioLowPassFilter18GetCutoffFrequencyEv
2345:__ZN4FMOD6System23set3DListenerAttributesEiPK11FMOD_VECTORS3_S3_S3_
2346:__ZN12AudioManager22GetAutomaticUpdateModeEP10GameObject
2347:__ZN14AudioBehaviourD2Ev
2348:__ZNK14AudioBehaviour22GetTypeVirtualInternalEv
2349:__ZN17AudioCustomFilterD2Ev
2350:__ZN17AudioCustomFilterD0Ev
2351:__ZN14PlayableOutput19SetSourceOutputPortEi
2352:__ZNK7Texture20GetUnscaledTextureIDEv
2353:__ZNK7Texture11GetGPUWidthEv
2354:__ZNK7Texture12GetGPUHeightEv
2355:__ZNK7Texture16GetNpotTexelSizeEv
2356:__ZNK7Texture9HasMipMapEv
2357:__ZNK7Texture14GetMipmapCountEv
2358:__ZNK7Texture21GetShadowSamplingModeEv
2359:__ZN7Texture34UpdateFileTextureUploadInstructionEP24TextureUploadInstructionj
2360:__Z18RegisterUnityClassI9AudioClipEvPKc
2361:__Z18RegisterUnityClassI14AudioBehaviourEvPKc
2362:__Z18RegisterUnityClassI13AudioListenerEvPKc
2363:__Z18RegisterUnityClassI11AudioSourceEvPKc
2364:__ZN13ProduceHelperI11AudioSourceLb0EE7ProduceE10MemLabelId18ObjectCreationMode
2365:__ZN11AudioSource15InitializeClassEv
2366:__ZZN11AudioSource15InitializeClassEvEN32FunctorImpl_2792kDidAddComponent4CallEPviR11MessageData
2367:__ZN11AudioSourceC2E10MemLabelId18ObjectCreationMode
2368:__ZN13ProduceHelperI13AudioListenerLb0EE7ProduceE10MemLabelId18ObjectCreationMode
2369:__ZN13AudioListener15InitializeClassEv
2370:__ZZN13AudioListener15InitializeClassEvEN31FunctorImpl_187kDidAddComponent4CallEPviR11MessageData
2371:__ZN14AudioBehaviourC2E10MemLabelId18ObjectCreationMode
2372:__ZN13ProduceHelperI9AudioClipLb0EE7ProduceE10MemLabelId18ObjectCreationMode
2373:__ZN10SampleClipC2E10MemLabelId18ObjectCreationMode
2374:__Z45AudioSettings_CUSTOM_GetSpatializerPluginNamev
2375:__ZN12AudioManager35GetCurrentSpatializerDefinitionNameEv
2376:__Z50AudioSettings_CUSTOM_GetAmbisonicDecoderPluginNamev
2377:__ZN12AudioManager33GetCurrentAmbisonicDefinitionNameE31UnityAudioEffectDefinitionFlags
2378:__Z45AudioExtensionManager_CUSTOM_GetAudioListenerv
2379:__Z34AudioClip_Get_Custom_PropAmbisonicP12Il2CppObject
2380:__ZN9AudioClipC2E10MemLabelId18ObjectCreationMode
2381:__ZN12AudioManager16SetListenerPauseEb
2382:__Z46AudioListener_CUSTOM_GetNumExtensionPropertiesP12Il2CppObject
2383:__Z52AudioListener_CUSTOM_INTERNAL_CALL_ReadExtensionNameP12Il2CppObjectiR12PropertyName
2384:__Z60AudioListener_CUSTOM_INTERNAL_CALL_ReadExtensionPropertyNameP12Il2CppObjectiR12PropertyName
2385:__Z47AudioListener_CUSTOM_ReadExtensionPropertyValueP12Il2CppObjecti
2386:__Z59AudioListener_CUSTOM_INTERNAL_CALL_ClearExtensionPropertiesP12Il2CppObjectRK12PropertyName
2387:__ZN13AudioListener24ClearExtensionPropertiesE12PropertyName
2388:__Z31AudioSource_Get_Custom_PropClipP12Il2CppObject
2389:__Z23AudioSource_CUSTOM_PlayP12Il2CppObjecty
2390:__Z36AudioSource_Get_Custom_PropIsPlayingP12Il2CppObject
2391:__ZNK11AudioSource9IsPlayingEv
2392:__ZN20SoundChannelInstance9isPlayingEPb
2393:__Z45AudioSource_Get_Custom_PropSpatializeInternalP12Il2CppObject
2394:__Z44AudioSource_CUSTOM_GetNumExtensionPropertiesP12Il2CppObject
2395:__Z50AudioSource_CUSTOM_INTERNAL_CALL_ReadExtensionNameP12Il2CppObjectiR12PropertyName
2396:__Z58AudioSource_CUSTOM_INTERNAL_CALL_ReadExtensionPropertyNameP12Il2CppObjectiR12PropertyName
2397:__Z45AudioSource_CUSTOM_ReadExtensionPropertyValueP12Il2CppObjecti
2398:__Z57AudioSource_CUSTOM_INTERNAL_CALL_ClearExtensionPropertiesP12Il2CppObjectRK12PropertyName
2399:__ZN11AudioSource24ClearExtensionPropertiesE12PropertyName
2400:__ZN21AudioScriptingClasses26InvokeOnAudioManagerUpdateEP21ScriptingExceptionPtr
2401:__ZZL31InitializeAudioManagerCallbacksvEN38FixedUpdateAudioFixedUpdateRegistrator7ForwardEv
2402:__ZZL31InitializeAudioManagerCallbacksvEN36PostLateUpdateUpdateAudioRegistrator7ForwardEv
2403:__ZZL31InitializeAudioManagerCallbacksvEN44PostLateUpdateUpdateVideoTexturesRegistrator7ForwardEv
2404:__ZN11AudioModule16SetListenerPauseEb
2405:__ZN11AudioModule19SetApplicationPauseEb
2406:__ZN11AudioModule11FixedUpdateEv
2407:__ZN11AudioModule6UpdateEv
2408:__ZN11AudioModule11GetDSPClockEv
2409:__ZN11AudioModule16GetDSPSampleRateEv
2410:__ZN11AudioModule15GetDSPBlockSizeEv
2411:__ZN11AudioModule17StopVideoTexturesEv
2412:__ZN11AudioModule19UpdateVideoTexturesEv
2413:__ZN11AudioModule18PauseVideoTexturesEv
2414:__ZN11AudioModule20SuspendVideoTexturesEv
2415:__ZN11AudioModule19ResumeVideoTexturesEv
2416:__ZN11AudioModule22CreateAudioClipFromWWWEP10IWWWStreamPKcbbi
2417:__ZN11AudioModule27IsFormatSupportedByPlatformEPKc
2418:__ZN11AudioModule30GetOrCreateDSPFromCustomFilterEP17AudioCustomFilter
2419:__ZN11AudioModule23CreateAudioCustomFilterEP13MonoBehaviour
2420:__ZN11AudioModule23DeleteAudioCustomFilterEP17AudioCustomFilter
2421:__ZN11AudioModule27GetDSPFromAudioCustomFilterEP17AudioCustomFilter
2422:__ZN11AudioModule14SetBypassOnDSPEPN4FMOD3DSPEb
2423:__ZN11AudioModule12CaptureFrameER13dynamic_arrayI22AudioProfilerGroupInfoLj0EERS0_I20AudioProfilerDSPInfoLj0EERS0_I21AudioProfilerClipInfoLj0EERS0_IcLj0EE
2424:__ZN11AudioModule25AudioManagerAwakeFromLoadE17AwakeFromLoadMode
2425:__ZN11AudioModule21SetActiveOutputDriverEPv
2426:__ZN11AudioModule26SetDefaultMicrophoneDriverEPv
2427:__ZN11AudioModule13GetNumDevicesEv
2428:__ZN11AudioModule15IsAudioDisabledEv
2429:__ZNK12AudioManager13GetNumDevicesEv
2430:__ZN12AudioManager26SetDefaultMicrophoneDriverEP9FMOD_GUID
2431:__ZN17AudioCustomFilterC2EP13MonoBehaviour
2432:__ZN17AudioCustomFilter4InitEv
2433:__ZL22FMODDSPReleaseCallbackP14FMOD_DSP_STATE
2434:__ZL20SharedDataDeleterJobP21UnownedResourceHandleI17AudioCustomFilterE
2435:__ZN9AudioClip22GetFormatFromExtensionERKN4core12basic_stringIcNS0_20StringStorageDefaultIcEEEE
2436:__ZN9AudioClip16EnableLegacyModeEv
2437:__ZN9AudioClip10InitStreamEP10IWWWStreamPKcP13MoviePlaybackbb15FMOD_SOUND_TYPE
2438:__ZN16BaseVideoTexture19ResumeVideoTexturesEv
2439:__ZN16BaseVideoTexture20SuspendVideoTexturesEv
2440:__ZN16BaseVideoTexture18PauseVideoTexturesEv
2441:__ZN16BaseVideoTexture19UpdateVideoTexturesEv
2442:__ZN16BaseVideoTexture17StopVideoTexturesEv
2443:__ZNK12AudioManager15GetDSPBlockSizeEv
2444:__ZNK12AudioManager16GetDSPSampleRateEv
2445:__ZNK12AudioManager11GetDSPClockEv
2446:__ZN12AudioManager6UpdateEv
2447:__ZN12AudioManager23ProcessScheduledSourcesEv
2448:__ZN12AudioManager11FixedUpdateEv
2449:__ZN12AudioManager19SetApplicationPauseEb
2450:__Z18RegisterUnityClassI12AudioManagerEvPKc
2451:__Z18RegisterUnityClassI10SampleClipEvPKc
2452:__ZN13ProduceHelperI10SampleClipLb0EE7ProduceE10MemLabelId18ObjectCreationMode
2453:__ZN13ProduceHelperI12AudioManagerLb0EE7ProduceE10MemLabelId18ObjectCreationMode
2454:__ZN12AudioManagerC2E10MemLabelId18ObjectCreationMode
2455:__Z20RegisterModule_Audiov
2456:__ZL22InitializeModule_Audiov
2457:__ZL19CleanupModule_Audiov
2458:__ZN19AudioSampleProvider7AcquireEjRNS_6HandleE
2459:__ZN19AudioSampleProvider15SetScriptingPtrERK18ScriptingObjectPtr
2460:__ZN27AudioSampleProviderBindings23InternalSetScriptingPtrEj18ScriptingObjectPtr
2461:__Z50AudioSampleProvider_CUSTOM_InternalSetScriptingPtrjP12Il2CppObject
2462:__GLOBAL__sub_I_ClothScriptingClasses_cpp
2463:__GLOBAL__sub_I_Runtime_Cloth_0_cpp
2464:___cxx_global_var_init_13
2465:__GLOBAL__sub_I_SwCollision_cpp
2466:__GLOBAL__sub_I_SwInterCollision_cpp
2467:__GLOBAL__sub_I_SwSelfCollision_cpp
2468:__GLOBAL__sub_I_SwSolverKernel_cpp
2469:___cxx_global_var_init
2470:___cxx_global_var_init_1
2471:___cxx_global_var_init_2
2472:___cxx_global_var_init_3
2473:___cxx_global_var_init_4
2474:___cxx_global_var_init_5
2475:___cxx_global_var_init_6
2476:___cxx_global_var_init_7
2477:___cxx_global_var_init_8
2478:___cxx_global_var_init_10
2479:___cxx_global_var_init_11
2480:__Z6simd4fffff
2481:__Z6simd4fRKf
2482:__Z6simd4iiiii
2483:__ZN5physx14PxLightCpuTaskD2Ev
2484:__ZN5physx14PxLightCpuTask12addReferenceEv
2485:__ZN5physx14PxLightCpuTask15removeReferenceEv
2486:__ZNK5physx14PxLightCpuTask12getReferenceEv
2487:__ZN5physx14PxLightCpuTask7releaseEv
2488:__ZL65__ManagedRegistrationHelperFunction_ClothSkinningCoefficientProxyPv
2489:__ZL64__ManagedRegistrationHelperFunction_ClothSphereColliderPairProxyPv
2490:__ZN9Scripting11UnityEngine28ClothSphereColliderPairProxy9InitProxyEv
2491:__ZN9Scripting11UnityEngine28ClothSphereColliderPairProxy12CleanupProxyEv
2492:__ZN9Scripting11UnityEngine29ClothSkinningCoefficientProxy9InitProxyEv
2493:__ZN9Scripting11UnityEngine29ClothSkinningCoefficientProxy12CleanupProxyEv
2494:__ZN5physx2Cm4Task3runEv
2495:__ZN5physx9PxBounds313transformFastERKNS_11PxTransformERKS0_
2496:__ZN11UnityEngine15CloudWebService17CloudJobScheduler10InitializeEv
2497:__ZN11UnityEngine15CloudWebService17CloudJobScheduler5CloseEv
2498:__ZN11UnityEngine15CloudWebService17CloudJobScheduler11ScheduleJobEPFvPvES2_
2499:__ZN11UnityEngine15CloudWebService17CloudJobSchedulerD2Ev
2500:__ZN11UnityEngine15CloudWebService17CloudJobSchedulerD0Ev
2501:__ZN23CloudWebServicesManagerD2Ev
2502:__ZN23CloudWebServicesManagerD0Ev
2503:__ZNK23CloudWebServicesManager22GetTypeVirtualInternalEv
2504:__ZN23CloudWebServicesManager23VirtualRedirectTransferER24GenerateTypeTreeTransfer
2505:__ZN23CloudWebServicesManager23VirtualRedirectTransferER14SafeBinaryRead
2506:__ZN23CloudWebServicesManager15ThreadedCleanupEv
2507:__ZNSt3__26__treeINS_12__value_typeIN19CloudServiceHandler11ServiceTypeEPS2_EENS_19__map_value_compareIS3_S5_NS_4lessIS3_EELb1EEE13stl_allocatorIS5_L18MemLabelIdentifier88ELi16EEE7destroyEPNS_11__tree_nodeIS5_PvEE
2508:__ZNSt3__26__treeINS_12__value_typeIN19CloudServiceHandler11ServiceTypeEPS2_EENS_19__map_value_compareIS3_S5_NS_4lessIS3_EELb1EEE13stl_allocatorIS5_L18MemLabelIdentifier88ELi16EEE12__find_equalIS3_EERPNS_16__tree_node_baseIPvEENS_21__tree_const_iteratorIS5_PNS_11__tree_nodeIS5_SG_EEiEERPNS_15__tree_end_nodeISI_EESJ_RKT_
2509:__ZN19CloudServiceHandler12CloseServiceEv
2510:__ZN19CloudServiceHandlerD2Ev
2511:__ZN23CloudWebServicesManager25RemoveCloudServiceHandlerEP19CloudServiceHandler
2512:__ZN11UnityEngine15CloudWebService18CloudServiceConfigD2Ev
2513:__ZN11UnityEngine15CloudWebService19SessionEventManagerD2Ev
2514:__ZN11UnityEngine15CloudWebService16SessionContainerD2Ev
2515:__ZN11UnityEngine15CloudWebService17SessionEventQueueD2Ev
2516:__ZN11UnityEngine15CloudWebService17SessionEventQueue10PurgeQueueEv
2517:__ZN11UnityEngine15CloudWebService14DataDispatcherD2Ev
2518:__ZNSt3__26__treeINS_12__value_typeIN4core12basic_stringIcNS2_20StringStorageDefaultIcEEEEjEENS_19__map_value_compareIS6_S7_NS_4lessIS6_EELb1EEE13stl_allocatorIS7_L18MemLabelIdentifier88ELi16EEE7destroyEPNS_11__tree_nodeIS7_PvEE
2519:__ZN11UnityEngine15CloudWebService14DataDispatcher26OnSessionContainerArchivedERNS0_16SessionContainerE
2520:__ZN11UnityEngine15CloudWebService14DataDispatcher34OnSessionContainerArchivedAndReadyERNS0_16SessionContainerE
2521:__ZN11UnityEngine15CloudWebService14DataDispatcherD0Ev
2522:__ZN11UnityEngine15CloudWebService14DataDispatcher20OnRestDownloaderDoneERNS0_14RestDownloaderE
2523:__ZThn4_N11UnityEngine15CloudWebService14DataDispatcher20OnRestDownloaderDoneERNS0_14RestDownloaderE
2524:__ZThn4_N11UnityEngine15CloudWebService14DataDispatcherD1Ev
2525:__ZThn4_N11UnityEngine15CloudWebService14DataDispatcherD0Ev
2526:__ZN11UnityEngine15CloudWebService14DataDispatcher25OnDataBlockConsumedStaticEPv
2527:__ZN11UnityEngine15CloudWebService14DataDispatcher19OnDataBlockConsumedEv
2528:__ZN11UnityEngine15CloudWebService16SessionContainer11PurgeEventsEj
2529:__ZN11UnityEngine15CloudWebService16SessionContainer22ArchiveDirtyEventQueueEv
2530:__ZN11UnityEngine15CloudWebService16SessionContainer9ResetDataEv
2531:__ZN11UnityEngine15CloudWebService16SessionContainer13DeleteArchiveERKN4core12basic_stringIcNS2_20StringStorageDefaultIcEEEE
2532:__ZN11UnityEngine15CloudWebService14DataDispatcher16PrepareDataBlockERNS0_16SessionContainerE
2533:__ZN11UnityEngine15CloudWebService16SessionContainer16MarkAsDispatchedERKN4core12basic_stringIcNS2_20StringStorageDefaultIcEEEE
2534:__ZN11UnityEngine15CloudWebService14DataDispatcher19HandleDeleteFailureERNS0_16SessionContainerE
2535:__ZN11UnityEngine15CloudWebService14DataDispatcher31SetupSessionContainerToDispatchEv
2536:__ZN11UnityEngine15CloudWebService14DataDispatcher30FindSessionContainerToDispatchEv
2537:__ZN11UnityEngine15CloudWebService14DataDispatcher23EnumerateSessionFoldersER15SortedHashArrayI13FileEntryInfoNS1_6HasherEERPKS3_
2538:__ZN11UnityEngine15CloudWebService16SessionContainer21ConvertFromFolderTimeERKN4core12basic_stringIcNS2_20StringStorageDefaultIcEEEEPjPt
2539:__ZN11UnityEngine15CloudWebService16SessionContainer12IsDispatchedERKN4core12basic_stringIcNS2_20StringStorageDefaultIcEEEE
2540:__ZN11UnityEngine15CloudWebService16SessionContainer7RestoreERKN4core12basic_stringIcNS2_20StringStorageDefaultIcEEEEPvy
2541:__ZNSt3__26__treeINS_12__value_typeIN4core12basic_stringIcNS2_20StringStorageDefaultIcEEEEjEENS_19__map_value_compareIS6_S7_NS_4lessIS6_EELb1EEE13stl_allocatorIS7_L18MemLabelIdentifier88ELi16EEE25__emplace_unique_key_argsIS6_JRKNS_21piecewise_construct_tENS_5tupleIJRKS6_EEENSK_IJEEEEEENS_4pairINS_15__tree_iteratorIS7_PNS_11__tree_nodeIS7_PvEEiEEbEERKT_DpOT0_
2542:__ZNK15SortedHashArrayI13FileEntryInfoN11UnityEngine15CloudWebService14DataDispatcher6HasherEE4sortEv
2543:__ZNSt3__26__sortIR14SortByHashPredI13FileEntryInfoN11UnityEngine15CloudWebService14DataDispatcher6HasherEEPS2_EEvT0_SA_T_
2544:__ZNK11UnityEngine15CloudWebService14DataDispatcher6HasherclERK13FileEntryInfo
2545:__Z37remove_duplicates_using_copy_internalIP13FileEntryInfo14SortByHashPredIS0_N11UnityEngine15CloudWebService14DataDispatcher6HasherEEET_S8_S8_T0_
2546:__ZNSt3__27__sort3IR14SortByHashPredI13FileEntryInfoN11UnityEngine15CloudWebService14DataDispatcher6HasherEEPS2_EEjT0_SA_SA_T_
2547:__ZNSt3__27__sort4IR14SortByHashPredI13FileEntryInfoN11UnityEngine15CloudWebService14DataDispatcher6HasherEEPS2_EEjT0_SA_SA_SA_T_
2548:__ZNSt3__27__sort5IR14SortByHashPredI13FileEntryInfoN11UnityEngine15CloudWebService14DataDispatcher6HasherEEPS2_EEjT0_SA_SA_SA_SA_T_
2549:__ZNSt3__218__insertion_sort_3IR14SortByHashPredI13FileEntryInfoN11UnityEngine15CloudWebService14DataDispatcher6HasherEEPS2_EEvT0_SA_T_
2550:__ZNSt3__227__insertion_sort_incompleteIR14SortByHashPredI13FileEntryInfoN11UnityEngine15CloudWebService14DataDispatcher6HasherEEPS2_EEbT0_SA_T_
2551:__ZN11UnityEngine15CloudWebService16SessionContainer17RestoreEventQueueERKN4core12basic_stringIcNS2_20StringStorageDefaultIcEEEES8_Pvy
2552:__ZN11UnityEngine15CloudWebService16SessionContainer20RestoreSessionHeaderERKN4core12basic_stringIcNS2_20StringStorageDefaultIcEEEES8_RNS0_13SessionHeaderE
2553:__ZN11UnityEngine15CloudWebService17SessionEventQueue15RestoreFromFileER12FileAccessorPvy
2554:__ZN11UnityEngine15CloudWebService17SessionEventQueue16ExtractEventDataEPKcyRN4core12basic_stringIcNS4_20StringStorageDefaultIcEEEE
2555:__ZN11UnityEngine15CloudWebService17SessionEventQueue14ParseEventDataERKN4core12basic_stringIcNS2_20StringStorageDefaultIcEEEE
2556:__ZNSt3__26vectorIPN11UnityEngine15CloudWebService14CloudEventInfoE13stl_allocatorIS4_L18MemLabelIdentifier88ELi16EEE21__push_back_slow_pathIRKS4_EEvOT_
2557:__ZN11UnityEngine15CloudWebService14DataDispatcher21SortFileEntryInfoListERK19dynamic_block_arrayI13FileEntryInfoLj32EER15SortedHashArrayIS3_NS1_6HasherEE
2558:__ZN15SortedHashArrayI13FileEntryInfoN11UnityEngine15CloudWebService14DataDispatcher6HasherEE9push_backERKS0_
2559:__ZN11UnityEngine15CloudWebService16SessionContainer38GetDeleteErrorJsonDataBlockAsJsonArrayERKN4core12basic_stringIcNS2_20StringStorageDefaultIcEEEES8_RS6_
2560:__ZN11UnityEngine15CloudWebService16SessionContainer27GetDeleteErrorJsonDataBlockERKN4core12basic_stringIcNS2_20StringStorageDefaultIcEEEERS6_
2561:__ZN11UnityEngine15CloudWebService14DataDispatcher15SetupWebRequestEv
2562:__ZN11UnityEngine15CloudWebService14DataDispatcher18PreformWebDispatchEv
2563:__ZN11UnityEngine15CloudWebService16SessionContainer21PrepareDataErrorEventERN4core12basic_stringIcNS2_20StringStorageDefaultIcEEEE
2564:__ZN11UnityEngine15CloudWebService16SessionContainer15FormatDataBlockERKN4core12basic_stringIcNS2_20StringStorageDefaultIcEEEES6_RS6_
2565:__ZN11UnityEngine15CloudWebService16SessionContainer24GetSessionHeaderJsonDataERKN4core12basic_stringIcNS2_20StringStorageDefaultIcEEEERNS2_13StringBuilderE
2566:__ZN4core13StringBuilder14UpdateWritePtrERPcb
2567:__ZN11UnityEngine15CloudWebService17CloudServiceEventD2Ev
2568:__ZN11UnityEngine15CloudWebService17CloudServiceEventD0Ev
2569:__ZN11UnityEngine15CloudWebService17CloudServiceEvent12ToJsonStringER9JSONWrite
2570:__ZN9JSONWrite8TransferIyEEvRT_PKc17TransferMetaFlags
2571:__ZN24TextDOMTransferWriteBaseI9JSONWriteE12PushMetaFlagEi
2572:__ZN5Unity9rapidjson12GenericValueINS0_4UTF8IcEE13JSONAllocatorED2Ev
2573:__ZN11UnityEngine15CloudWebService14DataErrorEventD2Ev
2574:__ZN11UnityEngine15CloudWebService14DataErrorEventD0Ev
2575:__ZN11UnityEngine15CloudWebService14DataErrorEvent12ToJsonStringER9JSONWrite
2576:__ZN9JSONWrite8TransferIN4core12basic_stringIcNS1_20StringStorageDefaultIcEEEEEEvRT_PKc17TransferMetaFlags
2577:__ZN9JSONWrite8TransferIN11UnityEngine15CloudWebService14DataErrorEvent17FolderErrorDetailEEEvRT_PKc17TransferMetaFlags
2578:__ZN9JSONWrite8TransferI13dynamic_arrayIN11UnityEngine15CloudWebService14DataErrorEvent15FileErrorDetailELj0EEEEvRT_PKc17TransferMetaFlags
2579:__ZN9JSONWrite8TransferIN11UnityEngine15CloudWebService14DataErrorEvent15FileErrorDetailEEEvRT_PKc17TransferMetaFlags
2580:__ZN9JSONWrite8TransferIiEEvRT_PKc17TransferMetaFlags
2581:__ZN11UnityEngine15CloudWebService14DataErrorEvent17FolderErrorDetailD2Ev
2582:__ZN11UnityEngine15CloudWebService17CloudServiceEvent12ToJsonStringERN4core12basic_stringIcNS2_20StringStorageDefaultIcEEEEjPKc
2583:__ZN9JSONWriteD2Ev
2584:__ZN11UnityEngine15CloudWebService14DataErrorEventC2Ev
2585:__ZN13dynamic_arrayIN11UnityEngine15CloudWebService14DataErrorEvent15FileErrorDetailELj0EE18resize_initializedEj12ResizePolicy
2586:__ZN11UnityEngine15CloudWebService16SessionContainer26FormatDataBlockAsJsonArrayERKN4core12basic_stringIcNS2_20StringStorageDefaultIcEEEES8_S6_RS6_
2587:__ZN11UnityEngine15CloudWebService16SessionContainer25GetSessionHeaderJsonArrayERKN4core12basic_stringIcNS2_20StringStorageDefaultIcEEEERNS2_13StringBuilderE
2588:__ZN11UnityEngine15CloudWebService16SessionContainer17CreateAndOpenFileERKN4core12basic_stringIcNS2_20StringStorageDefaultIcEEEES8_R12FileAccessor
2589:__ZN11UnityEngine15CloudWebService16SessionContainer21GetJsonArrayDataBlockEjRKN4core12basic_stringIcNS2_20StringStorageDefaultIcEEEES8_RS6_PjSA_
2590:__ZN11UnityEngine15CloudWebService16SessionContainer16GetJsonDataBlockEjRKN4core12basic_stringIcNS2_20StringStorageDefaultIcEEEERS6_PjSA_
2591:__ZN11UnityEngine15CloudWebService17SessionEventQueue19GetEventsAsJsonDataEjRN4core12basic_stringIcNS2_20StringStorageDefaultIcEEEEPjS8_
2592:__ZN11UnityEngine15CloudWebService17SessionEventQueue20GetEventsAsJsonArrayEjRN4core12basic_stringIcNS2_20StringStorageDefaultIcEEEEPjS8_
2593:__ZN11UnityEngine15CloudWebService16SessionContainer31HandleDeleteArchivedFolderErrorERKN4core12basic_stringIcNS2_20StringStorageDefaultIcEEEE
2594:__ZN11UnityEngine15CloudWebService16SessionContainer18DeleteArchivedFileERKN4core12basic_stringIcNS2_20StringStorageDefaultIcEEEES8_Rb
2595:__ZN11UnityEngine15CloudWebService16SessionContainer17ResetArchivedFileERKN4core12basic_stringIcNS2_20StringStorageDefaultIcEEEE
2596:__ZN11UnityEngine15CloudWebService17SessionEventQueue10SaveToFileER12FileAccessor
2597:__ZN11UnityEngine15CloudWebService17SessionEventQueue10PurgeItemsEj
2598:__ZN11UnityEngine15CloudWebService20WebRequestRestClientD2Ev
2599:__ZN11UnityEngine15CloudWebService10RestClientINS0_23WebRequestRestHeaderMapEE6SetUrlERKN4core12basic_stringIcNS4_20StringStorageDefaultIcEEEE
2600:__ZN11UnityEngine15CloudWebService10RestClientINS0_23WebRequestRestHeaderMapEE7SetDataEPKhj
2601:__ZN11UnityEngine15CloudWebService10RestClientINS0_23WebRequestRestHeaderMapEE13SetDownloaderERNS0_14RestDownloaderE
2602:__ZN11UnityEngine15CloudWebService10RestClientINS0_23WebRequestRestHeaderMapEE16SetRequestHeaderERKN4core12basic_stringIcNS4_20StringStorageDefaultIcEEEESA_
2603:__ZN11UnityEngine15CloudWebService10RestClientINS0_23WebRequestRestHeaderMapEE16GetRequestHeaderERKN4core12basic_stringIcNS4_20StringStorageDefaultIcEEEE
2604:__ZN11UnityEngine15CloudWebService10RestClientINS0_23WebRequestRestHeaderMapEE17GetResponseHeaderERKN4core12basic_stringIcNS4_20StringStorageDefaultIcEEEE
2605:__ZN11UnityEngine15CloudWebService10RestClientINS0_23WebRequestRestHeaderMapEED2Ev
2606:__Z7ToUpperIN4core12basic_stringIcNS0_20StringStorageDefaultIcEEEEET_RKS5_
2607:__ZN11UnityEngine15CloudWebService20WebRequestRestClient7CleanupEv
2608:__ZN11UnityEngine15CloudWebService20WebRequestRestClient10PerformGetEv
2609:__ZN11UnityEngine15CloudWebService20WebRequestRestClient11PerformPostEv
2610:__ZN11UnityEngine15CloudWebService20WebRequestRestClient6IsDoneEv
2611:__ZN11UnityEngine15CloudWebService20WebRequestRestClient5AbortEv
2612:__ZN11UnityEngine15CloudWebService20WebRequestRestClient17GetResponseStatusEv
2613:__ZN11UnityEngine15CloudWebService20WebRequestRestClient16SetRequestHeaderERKN4core12basic_stringIcNS2_20StringStorageDefaultIcEEEES8_
2614:__ZN11UnityEngine15CloudWebService20WebRequestRestClientD0Ev
2615:__ZN11UnityEngine15CloudWebService20WebRequestRestClient18GetEditableHeadersEv
2616:__ZN11UnityEngine15CloudWebService20WebRequestRestClient18GetResponseHeadersEv
2617:__ZN11UnityEngine15CloudWebService20WebRequestRestClient5BeginEv
2618:__ZNK19ResponseHelperProtoI12StatusHelper12HeaderHelperE13GetHeaderKeysER13dynamic_arrayIN4core12basic_stringIcNS4_20StringStorageDefaultIcEEEELj0EE
2619:__ZN11UnityEngine15CloudWebService20WebRequestRestClient7PrepareEv
2620:__ZN11UnityEngine15CloudWebService25WebRequestDownloadHandlerD2Ev
2621:__ZN11UnityEngine15CloudWebService25WebRequestDownloadHandlerD0Ev
2622:__ZN11UnityEngine15CloudWebService25WebRequestDownloadHandler13OnReceiveDataEPKvj
2623:__ZN11UnityEngine15CloudWebService25WebRequestDownloadHandler22OnReceiveContentLengthEj
2624:__ZN11UnityEngine15CloudWebService25WebRequestDownloadHandler17OnCompleteContentEv
2625:__ZNK11UnityEngine15CloudWebService25WebRequestDownloadHandler11GetProgressEv
2626:__ZN11UnityEngine15CloudWebService25WebRequestDownloadHandler7OnAbortEv
2627:__ZNK15DownloadHandler6IsDoneEv
2628:__ZN11UnityEngine15CloudWebService23WebRequestUploadHandlerD2Ev
2629:__ZN11UnityEngine15CloudWebService23WebRequestUploadHandlerD0Ev
2630:__ZN11UnityEngine15CloudWebService23WebRequestUploadHandler5ResetEv
2631:__ZN11UnityEngine15CloudWebService23WebRequestUploadHandler13TransmitBytesEPvjj
2632:__ZN11UnityEngine15CloudWebService23WebRequestUploadHandler13GetUploadDataERj
2633:__ZN11UnityEngine15CloudWebService23WebRequestUploadHandler17ConsumeUploadDataEj
2634:__ZNK11UnityEngine15CloudWebService23WebRequestUploadHandler15GetNumBytesLeftEv
2635:__ZN11UnityEngine15CloudWebService23WebRequestUploadHandler8GetBytesEv
2636:__ZNK11UnityEngine15CloudWebService23WebRequestUploadHandler11GetProgressEv
2637:__ZN13UploadHandlerD2Ev
2638:__ZNSt3__24listIP19CloudServiceHandler13stl_allocatorIS2_L18MemLabelIdentifier88ELi16EEE6removeERKS2_
2639:__GLOBAL__sub_I_Modules_CloudWebServices_Public_Session_0_cpp
2640:__ZN11UnityEngine15CloudWebService18RestFileDownloaderD2Ev
2641:__ZN11UnityEngine15CloudWebService18RestFileDownloaderD0Ev
2642:__ZN11UnityEngine15CloudWebService18RestFileDownloader13OnReceiveDataEPKvj
2643:__ZN11UnityEngine15CloudWebService18RestFileDownloader22OnReceiveContentLengthEj
2644:__ZN11UnityEngine15CloudWebService18RestFileDownloader17OnCompleteContentEv
2645:__ZN11UnityEngine15CloudWebService18RestFileDownloader7OnAbortEv
2646:__ZN11UnityEngine15CloudWebService14RestDownloader6IsDoneEv
2647:__ZN11UnityEngine15CloudWebService14RestDownloader9IsAbortedEv
2648:__ZN11UnityEngine15CloudWebService14RestDownloader9ClearDoneEv
2649:__ZN11UnityEngine15CloudWebService18RestFileDownloader10InitializeERKN4core12basic_stringIcNS2_20StringStorageDefaultIcEEEE
2650:__ZN11UnityEngine15CloudWebService18RestFileDownloader7OpenVFSEv
2651:__ZN11UnityEngine15CloudWebService26CloudServiceEventWithParamD2Ev
2652:__ZN11UnityEngine15CloudWebService26CloudServiceEventWithParamD0Ev
2653:__ZN11UnityEngine15CloudWebService26CloudServiceEventWithParam12ToJsonStringER9JSONWrite
2654:__ZN5Unity9rapidjson12GenericValueINS0_4UTF8IcEE13JSONAllocatorE9AddMemberENS0_16GenericStringRefIcEERS5_RS4_
2655:__ZN5Unity9rapidjson12GenericValueINS0_4UTF8IcEE13JSONAllocatorE8CopyFromIS4_EERS5_RKNS1_IS3_T_EERS4_
2656:__ZNK5Unity9rapidjson12GenericValueINS0_4UTF8IcEE13JSONAllocatorE6AcceptINS0_15GenericDocumentIS3_S4_NS0_12CrtAllocatorEEEEEbRT_
2657:__ZN5Unity9rapidjson15GenericDocumentINS0_4UTF8IcEE13JSONAllocatorNS0_12CrtAllocatorEE6StringEPKcjb
2658:__Z18RegisterUnityClassI23CloudWebServicesManagerEvPKc
2659:__ZN13ProduceHelperI23CloudWebServicesManagerLb0EE7ProduceE10MemLabelId18ObjectCreationMode
2660:__ZZN23CloudWebServicesManagerC1E10MemLabelId18ObjectCreationModeEN44EarlyUpdateCloudWebServicesUpdateRegistrator7ForwardEv
2661:__ZN23CloudWebServicesManager23PlayerLoopHandlerStaticEv
2662:__ZN19CloudServiceHandler34HandleSaveFileWebRequestPlayerLoopEv
2663:__ZN11UnityEngine15CloudWebService19SessionEventManager17PlayerLoopHandlerEv
2664:__ZN11UnityEngine15CloudWebService14DataDispatcher17PlayerLoopHandlerEv
2665:__ZN11UnityEngine15CloudWebService14DataDispatcher29PreformRetryWebDispatchStaticEPv
2666:__ZN11UnityEngine15CloudWebService14DataDispatcher23PreformRetryWebDispatchEv
2667:__ZN11UnityEngine15CloudWebService19SessionEventManager37OnTimerExpiredPerformArchiveJobStaticEPv
2668:__ZN11UnityEngine15CloudWebService16SessionContainer7ArchiveEv
2669:__ZN11UnityEngine15CloudWebService17WebFileDownloaderINS0_20WebRequestRestClientENS0_23WebRequestRestHeaderMapEE24ExtractResponseEtagValueEv
2670:__Z31RegisterModule_CloudWebServicesv
2671:__ZN19CloudServiceHandlerC2Ev
2672:__ZN11UnityEngine15CloudWebService20WebRequestRestClientC2Ev
2673:__ZN11UnityEngine15CloudWebService14DataDispatcherC2ERNS0_11IRestClientE
2674:__ZN11UnityEngine15CloudWebService16SessionContainerC2Ev
2675:__ZN11UnityEngine15CloudWebService14RestDownloader13OnReceiveDataEPKvj
2676:__ZN11UnityEngine15CloudWebService14RestDownloader17OnCompleteContentEv
2677:__ZN11UnityEngine15CloudWebService14RestDownloader7OnAbortEv
2678:__ZN11UnityEngine15CloudWebService19SessionEventManagerC2Ev
2679:__ZN19CloudServiceHandler10InitializeERKN4core12basic_stringIcNS0_20StringStorageDefaultIcEEEENS_13InitModeFlagsE
2680:__ZN19CloudServiceHandler17InitServiceFolderENS_13InitModeFlagsE
2681:__ZN11UnityEngine15CloudWebService19SessionEventManager10InitializeERKN4core12basic_stringIcNS2_20StringStorageDefaultIcEEEEPNS0_18ICloudJobSchedulerE
2682:__ZN11UnityEngine15CloudWebService14DataDispatcher10InitializeERKN4core12basic_stringIcNS2_20StringStorageDefaultIcEEEEPvjRNS0_18ICloudJobSchedulerE
2683:__ZN19CloudServiceHandler7ReleaseEv
2684:__ZN11UnityEngine15CloudWebService19SessionEventManager5StartERKN4core12basic_stringIcNS2_20StringStorageDefaultIcEEEEii
2685:__ZN11UnityEngine15CloudWebService19SessionEventManager5PauseEb
2686:__ZN11UnityEngine15CloudWebService19SessionEventManager27ProcessFlushEventsJobStaticEPv
2687:__ZN11UnityEngine15CloudWebService19SessionEventManager4StopEv
2688:__ZN11UnityEngine15CloudWebService19SessionEventManager20ArchivePendingEventsEv
2689:__ZN19CloudServiceHandler20StartEventDispatcherERKN11UnityEngine15CloudWebService18CloudServiceConfigERNS1_23WebRequestRestHeaderMapE
2690:__ZN11UnityEngine15CloudWebService18CloudServiceConfigaSERKS1_
2691:__ZN11UnityEngine15CloudWebService14DataDispatcher5StartERKNS0_18CloudServiceConfigE
2692:__ZN11UnityEngine15CloudWebService14DataDispatcher37SetupSessionContainerToDispatchStaticEPv
2693:__ZN11UnityEngine15CloudWebService14DataDispatcher4StopEv
2694:__ZN11UnityEngine15CloudWebService14DataDispatcher22ResetNetworkRetryIndexEv
2695:__ZN19CloudServiceHandler10QueueEventEPN11UnityEngine15CloudWebService14CloudEventInfoE
2696:__ZN11UnityEngine15CloudWebService19SessionEventManager10QueueEventEPNS0_14CloudEventInfoE
2697:__ZN11UnityEngine15CloudWebService19SessionEventManager26ProcessEventQueueJobStaticEPv
2698:__ZN11UnityEngine15CloudWebService19SessionEventManager20ProcessEventQueueJobEPNS0_14CloudEventInfoE
2699:__ZN11UnityEngine15CloudWebService19SessionEventManager31SetupNextActiveSessionContainerEv
2700:__ZN11UnityEngine15CloudWebService16SessionContainer8AddEventEPNS0_14CloudEventInfoE
2701:__ZN19CloudServiceHandler11FlushEventsEv
2702:__ZN11UnityEngine15CloudWebService19SessionEventManager11FlushEventsEv
2703:__ZN19CloudServiceHandler18SaveFileFromServerERKN4core12basic_stringIcNS0_20StringStorageDefaultIcEEEES6_PN11UnityEngine15CloudWebService23WebRequestRestHeaderMapES6_
2704:__ZN11UnityEngine15CloudWebService18RestFileDownloaderC2EPNS0_23IRestDownloaderListenerE
2705:__ZN11UnityEngine15CloudWebService17WebFileDownloaderINS0_20WebRequestRestClientENS0_23WebRequestRestHeaderMapEE10InitializeERKN4core12basic_stringIcNS5_20StringStorageDefaultIcEEEESB_SB_
2706:__ZN11UnityEngine15CloudWebService17WebFileDownloaderINS0_20WebRequestRestClientENS0_23WebRequestRestHeaderMapEED2Ev
2707:__ZN11UnityEngine15CloudWebService17WebFileDownloaderINS0_20WebRequestRestClientENS0_23WebRequestRestHeaderMapEED0Ev
2708:__ZN11UnityEngine15CloudWebService17WebFileDownloaderINS0_20WebRequestRestClientENS0_23WebRequestRestHeaderMapEE10InitializeERKN4core12basic_stringIcNS5_20StringStorageDefaultIcEEEE
2709:__ZN19CloudServiceHandler8SaveFileERKN4core12basic_stringIcNS0_20StringStorageDefaultIcEEEES6_
2710:__ZN19CloudServiceHandler8SaveFileERKN4core12basic_stringIcNS0_20StringStorageDefaultIcEEEEPKvj
2711:__ZN19CloudServiceHandler15RestoreDataFileERKN4core12basic_stringIcNS0_20StringStorageDefaultIcEEEERS4_
2712:__ZN19CloudServiceHandler20RestoreDataFileAsyncERKN4core12basic_stringIcNS0_20StringStorageDefaultIcEEEE
2713:__ZN23CloudWebServicesManager15GetCloudServiceEN19CloudServiceHandler11ServiceTypeE
2714:__ZN11UnityEngine15CloudWebService17CloudServiceEventC2EPKcNS0_15CloudEventFlagsE
2715:__ZN11UnityEngine15CloudWebService26CloudServiceEventWithParamC2EPKcNS0_15CloudEventFlagsE
2716:__GLOBAL__sub_I_artifacts_WebGL_codegenerator_0_cpp
2717:__GLOBAL__sub_I_SpriteRendererJobs_cpp
2718:__GLOBAL__sub_I_Runtime_2D_Sorting_0_cpp
2719:__GLOBAL__sub_I_Runtime_2D_SpriteAtlas_0_cpp
2720:___cxx_global_var_init_2_759
2721:__GLOBAL__sub_I_Runtime_Allocator_1_cpp
2722:__GLOBAL__sub_I_Runtime_Application_0_cpp
2723:__GLOBAL__sub_I_Runtime_BaseClasses_0_cpp
2724:__GLOBAL__sub_I_Runtime_BaseClasses_1_cpp
2725:__GLOBAL__sub_I_Runtime_BaseClasses_2_cpp
2726:__GLOBAL__sub_I_Runtime_BaseClasses_3_cpp
2727:__GLOBAL__sub_I_Runtime_Burst_0_cpp
2728:__GLOBAL__sub_I_Runtime_Camera_0_cpp
2729:__GLOBAL__sub_I_Runtime_Camera_2_cpp
2730:__GLOBAL__sub_I_Runtime_Camera_3_cpp
2731:__GLOBAL__sub_I_Runtime_Camera_5_cpp
2732:__GLOBAL__sub_I_Runtime_Camera_6_cpp
2733:__GLOBAL__sub_I_Runtime_Camera_Culling_0_cpp
2734:___cxx_global_var_init_21
2735:__GLOBAL__sub_I_Runtime_Camera_RenderLayers_0_cpp
2736:__GLOBAL__sub_I_Runtime_Camera_RenderLoops_0_cpp
2737:__GLOBAL__sub_I_Runtime_Camera_RenderLoops_2_cpp
2738:__GLOBAL__sub_I_Runtime_Core_Callbacks_0_cpp
2739:__GLOBAL__sub_I_Runtime_Containers_0_cpp
2740:__GLOBAL__sub_I_Runtime_Director_Core_1_cpp
2741:__GLOBAL__sub_I_Runtime_Geometry_2_cpp
2742:__GLOBAL__sub_I_Runtime_Graphics_0_cpp
2743:__GLOBAL__sub_I_Runtime_Graphics_1_cpp
2744:___cxx_global_var_init_34
2745:__GLOBAL__sub_I_Runtime_Graphics_5_cpp
2746:__GLOBAL__sub_I_Runtime_Graphics_6_cpp
2747:__GLOBAL__sub_I_Runtime_Graphics_8_cpp
2748:__GLOBAL__sub_I_Runtime_Graphics_9_cpp
2749:__GLOBAL__sub_I_Runtime_Graphics_10_cpp
2750:__GLOBAL__sub_I_Runtime_Graphics_11_cpp
2751:__GLOBAL__sub_I_Runtime_Graphics_Billboard_0_cpp
2752:__GLOBAL__sub_I_Runtime_Graphics_LOD_0_cpp
2753:__GLOBAL__sub_I_Runtime_Graphics_Mesh_0_cpp
2754:__GLOBAL__sub_I_Runtime_Graphics_Mesh_1_cpp
2755:__GLOBAL__sub_I_Runtime_Graphics_Mesh_3_cpp
2756:__GLOBAL__sub_I_Runtime_Graphics_ScriptableRenderLoop_0_cpp
2757:__GLOBAL__sub_I_Runtime_Input_0_cpp
2758:__GLOBAL__sub_I_Runtime_Interfaces_0_cpp
2759:__GLOBAL__sub_I_Runtime_Interfaces_1_cpp
2760:__GLOBAL__sub_I_Runtime_Interfaces_2_cpp
2761:__GLOBAL__sub_I_Runtime_Jobs_0_cpp
2762:__GLOBAL__sub_I_Runtime_Jobs_ScriptBindings_0_cpp
2763:__GLOBAL__sub_I_Runtime_Logging_0_cpp
2764:__GLOBAL__sub_I_Runtime_Math_2_cpp
2765:__GLOBAL__sub_I_Runtime_Math_Random_0_cpp
2766:__GLOBAL__sub_I_Runtime_Misc_0_cpp
2767:__GLOBAL__sub_I_Runtime_Misc_2_cpp
2768:___cxx_global_var_init_124
2769:__GLOBAL__sub_I_Runtime_Misc_4_cpp
2770:__GLOBAL__sub_I_Runtime_Misc_5_cpp
2771:__GLOBAL__sub_I_Runtime_PreloadManager_0_cpp
2772:__GLOBAL__sub_I_Runtime_SceneManager_0_cpp
2773:__GLOBAL__sub_I_Runtime_Shaders_0_cpp
2774:__GLOBAL__sub_I_Runtime_Shaders_1_cpp
2775:__GLOBAL__sub_I_Runtime_Shaders_ShaderImpl_0_cpp
2776:__GLOBAL__sub_I_Runtime_Shaders_ShaderImpl_1_cpp
2777:__GLOBAL__sub_I_Runtime_Transform_0_cpp
2778:__GLOBAL__sub_I_Runtime_Transform_1_cpp
2779:__GLOBAL__sub_I_Runtime_Utilities_2_cpp
2780:__GLOBAL__sub_I_Runtime_Utilities_4_cpp
2781:__GLOBAL__sub_I_Runtime_Utilities_5_cpp
2782:__GLOBAL__sub_I_Runtime_Utilities_6_cpp
2783:__GLOBAL__sub_I_Runtime_Utilities_8_cpp
2784:__GLOBAL__sub_I_Runtime_VirtualFileSystem_0_cpp
2785:__GLOBAL__sub_I_AssetBundleFileSystem_cpp
2786:__GLOBAL__sub_I_Runtime_Modules_0_cpp
2787:__GLOBAL__sub_I_Modules_Profiler_Public_0_cpp
2788:__GLOBAL__sub_I_Modules_Profiler_Runtime_0_cpp
2789:__GLOBAL__sub_I_Runtime_GfxDevice_0_cpp
2790:__GLOBAL__sub_I_Runtime_GfxDevice_1_cpp
2791:__GLOBAL__sub_I_Runtime_GfxDevice_2_cpp
2792:__GLOBAL__sub_I_Runtime_GfxDevice_3_cpp
2793:__GLOBAL__sub_I_Runtime_PluginInterface_0_cpp
2794:__GLOBAL__sub_I_Runtime_ScriptingBackend_Il2Cpp_0_cpp
2795:__GLOBAL__sub_I_Runtime_Scripting_0_cpp
2796:__GLOBAL__sub_I_Runtime_Scripting_3_cpp
2797:__GLOBAL__sub_I_Runtime_Mono_SerializationBackend_DirectMemoryAccess_0_cpp
2798:__GLOBAL__sub_I_Runtime_Mono_SerializationBackend_DirectMemoryAccess_1_cpp
2799:__GLOBAL__sub_I_Runtime_Serialize_TransferFunctions_0_cpp
2800:__GLOBAL__sub_I_Runtime_Serialize_TransferFunctions_1_cpp
2801:__GLOBAL__sub_I_PlatformDependent_WebGL_Source_0_cpp
2802:__GLOBAL__sub_I_Shader_cpp
2803:__GLOBAL__sub_I_Transform_cpp
2804:__GLOBAL__sub_I_SparseTextureGLES_cpp
2805:__GLOBAL__sub_I_TransformFeedbackSkinning_cpp
2806:__ZN13RuntimeStaticINSt3__23mapIy8TFShaderNS0_4lessIyEENS0_9allocatorINS0_4pairIKyS2_EEEEEELb0EE13StaticDestroyEPv
2807:__Z15strcpy_truncatePcPKcjj
2808:__ZN13RuntimeStaticINSt3__28multimapIj25DeferredSkinningOperationNS0_4lessIjEENS0_9allocatorINS0_4pairIKjS2_EEEEEELb0EE13StaticDestroyEPv
2809:__ZNSt3__26__treeINS_12__value_typeIj25DeferredSkinningOperationEENS_19__map_value_compareIjS3_NS_4lessIjEELb1EEENS_9allocatorIS3_EEE7destroyEPNS_11__tree_nodeIS3_PvEE
2810:__Z19free_alloc_internalPv10MemLabelId
2811:__ZN13MemoryManagerC2Ev
2812:__ZN13MemoryManager10DeallocateEPv10MemLabelId
2813:__ZN13MemoryManager25GetAllocatorContainingPtrEPKv
2814:__ZN12TLSAllocatorI14StackAllocatorE13TryDeallocateEPv
2815:__ZN14StackAllocator13TryDeallocateEPv
2816:__Z16GetMemoryManagerv
2817:__ZN13MemoryManager12GetAllocatorE10MemLabelId
2818:__ZN13BaseAllocatorC2EPKc
2819:__ZN20DynamicHeapAllocatorI17LowLevelAllocatorED2Ev
2820:__ZN20DynamicHeapAllocatorI17LowLevelAllocatorED0Ev
2821:__ZN20DynamicHeapAllocatorI17LowLevelAllocatorE8AllocateEji
2822:__ZN20DynamicHeapAllocatorI17LowLevelAllocatorE10ReallocateEPvji
2823:__ZN20DynamicHeapAllocatorI17LowLevelAllocatorE10DeallocateEPv
2824:__ZN20DynamicHeapAllocatorI17LowLevelAllocatorE13TryDeallocateEPv
2825:__ZNK20DynamicHeapAllocatorI17LowLevelAllocatorE8ContainsEPKv
2826:__ZNK20DynamicHeapAllocatorI17LowLevelAllocatorE10GetPtrSizeEPKv
2827:__ZN20DynamicHeapAllocatorI17LowLevelAllocatorE14CheckIntegrityEv
2828:__ZNK13BaseAllocator21GetReservedMemorySizeEv
2829:__ZNK13BaseAllocator26GetPeakAllocatedMemorySizeEv
2830:__Z22ValidateTlsfAllocationPvjiS_
2831:_tlsf_walk_heap
2832:_default_walker
2833:_tlsf_free
2834:__ZN17LowLevelAllocator4FreeEPvj
2835:__ZN13MemoryManager12LowLevelFreeEPvj
2836:_tlsf_realloc_align
2837:_tlsf_memalign
2838:_block_trim_used
2839:_block_locate_free
2840:_block_prepare_used
2841:__Z6FormatPKcz
2842:__Z17DebugStringToFileRK21DebugStringToFileData
2843:__ZN17LowLevelAllocator6MallocEj
2844:_tlsf_create
2845:_printf_console
2846:__Z15printf_consolev7LogTypePKcPi
2847:__ZN13MemoryManager16LowLevelAllocateEj
2848:__Z40DebugStringToFilePostprocessedStacktraceRK21DebugStringToFileData
2849:__Z13GetStacktracei
2850:__ZN14CallbackArray3IRK21DebugStringToFileData7LogTypebE6InvokeES2_S3_b
2851:__ZL20InternalErrorConsolePKcz
2852:__ZL21InternalAssertConsolePKcz
2853:__ZL22InternalWarningConsolePKcz
2854:__ZL18InternalLogConsolePKcz
2855:__ZN13BaseAllocator13TryDeallocateEPv
2856:__ZdlPv
2857:__Z15malloc_internaljj10MemLabelId15AllocateOptionsPKci
2858:__ZN13MemoryManager8AllocateEjj10MemLabelId15AllocateOptionsPKci
2859:__ZN12TLSAllocatorI14StackAllocatorE8AllocateEji
2860:__ZL16OutOfMemoryErrorjj10MemLabelIdiPKc
2861:__Z12FormatBufferPciPKcz
2862:__ZN14StackAllocator8AllocateEji
2863:__ZN35RegisterRuntimeInitializeAndCleanupC2EPFvPvES2_iS0_
2864:__ZNSt3__26__treeINS_12__value_typeIy8TFShaderEENS_19__map_value_compareIyS3_NS_4lessIyEELb1EEENS_9allocatorIS3_EEE7destroyEPNS_11__tree_nodeIS3_PvEE
2865:__ZN13RuntimeStaticINSt3__23mapI9TextureID21SparseTextureInfoGLESNS0_4lessIS2_EENS0_9allocatorINS0_4pairIKS2_S3_EEEEEELb0EE13StaticDestroyEPv
2866:__ZNSt3__26__treeINS_12__value_typeI9TextureID21SparseTextureInfoGLESEENS_19__map_value_compareIS2_S4_NS_4lessIS2_EELb1EEENS_9allocatorIS4_EEE7destroyEPNS_11__tree_nodeIS4_PvEE
2867:__ZN17MessageIdentifierC2EPKcNS_7OptionsEPKN5Unity4TypeES1_
2868:__ZL17InitializeMessagePv
2869:__Z16realloc_internalPvjj10MemLabelId15AllocateOptionsPKci
2870:__ZN13MemoryManager10ReallocateEPvjj10MemLabelId15AllocateOptionsPKci
2871:__ZN12TLSAllocatorI14StackAllocatorE10ReallocateEPvji
2872:__ZN14StackAllocator10ReallocateEPvji
2873:__ZL19StaticDestroyShaderPv
2874:__ZN4core20StringStorageDefaultIcED2Ev
2875:__ZN12_GLOBAL__N_116StaticInitializeEPv
2876:__ZN12_GLOBAL__N_113StaticDestroyEPv
2877:__ZN21SystemInfoStringCache16StaticInitializeEPv
2878:__ZN21SystemInfoStringCache13StaticDestroyEPv
2879:__Znwj10MemLabelIdjPKci
2880:__ZNSt3__26__treeINS_12__value_typeIN4core12basic_stringIcNS2_20StringStorageDefaultIcEEEE9PrefValueEENS_19__map_value_compareIS6_S8_NS_4lessIS6_EELb1EEENS_9allocatorIS8_EEE7destroyEPNS_11__tree_nodeIS8_PvEE
2881:__Znwj
2882:__ZL30InitializeGlobalNameConversionPv
2883:__ZL27CleanupGlobalNameConversionPv
2884:__ZNSt3__26__treeINS_12__value_typeINS_4pairIPcS3_EENS_3setIS3_15compare_tstringIPKcENS_9allocatorIS3_EEEEEENS_19__map_value_compareIS4_SD_20smaller_tstring_pairIS8_ELb1EEENSA_ISD_EEE7destroyEPNS_11__tree_nodeISD_PvEE
2885:__ZNSt3__26__treeIPc15compare_tstringIPKcENS_9allocatorIS1_EEE7destroyEPNS_11__tree_nodeIS1_PvEE
2886:__ZN13RuntimeStaticINSt3__23mapINS0_4pairIPcS3_EEPFbPvR14SafeBinaryReadE20smaller_tstring_pairIPKcENS0_9allocatorINS2_IKS4_S9_EEEEEELb0EE13StaticDestroyES5_
2887:__ZNSt3__26__treeINS_12__value_typeINS_4pairIPcS3_EEPFbPvR14SafeBinaryReadEEENS_19__map_value_compareIS4_SA_20smaller_tstring_pairIPKcELb1EEENS_9allocatorISA_EEE7destroyEPNS_11__tree_nodeISA_S5_EE
2888:__Z50CreateTransferFunctionScriptingTraitsCacheInternalPv
2889:__Z49ClearTransferFunctionScriptingTraitsCacheInternalPv
2890:__Z41ClearTransferFunctionScriptingTraitsCachev
2891:__ZN13RuntimeStaticINSt3__23setIPFv17ScriptingClassPtrR23CachedSerializationDataRbENS0_4lessIS7_EENS0_9allocatorIS7_EEEELb0EE13StaticDestroyEPv
2892:__ZNSt3__26__treeIPFv17ScriptingClassPtrR23CachedSerializationDataRbENS_4lessIS6_EENS_9allocatorIS6_EEE7destroyEPNS_11__tree_nodeIS6_PvEE
2893:__ZL45StaticInitScriptingManagedObjectProxyRegistryPv
2894:__ZL48StaticDestroyScriptingManagedObjectProxyRegistryPv
2895:__ZN19ThreadSpecificValueIP13MonoBehaviourE15ReinitializeTLSEPv
2896:__ZN13RuntimeStaticINSt3__23mapIN4core12basic_stringIcNS2_20StringStorageDefaultIcEEEEPvNS0_4lessIS6_EENS0_9allocatorINS0_4pairIKS6_S7_EEEEEELb0EE13StaticDestroyES7_
2897:__ZN9profiling6MarkerC2EtPKcNS0_5FlagsE
2898:__ZN9profiling15ProfilerManager14RegisterMarkerEPNS_6MarkerEbb
2899:__ZN4core8hash_mapINS_12basic_stringIcNS_20StringStorageDefaultIcEEEEPN9profiling6MarkerENS_4hashIS4_EENSt3__28equal_toIS4_EEE6insertERKS4_RKS7_
2900:__ZN19dynamic_block_arrayIN9profiling15ProfilerManager13MarkerStorageELj1024EE9push_backERKS2_
2901:__ZN19dynamic_block_arrayIN9profiling15ProfilerManager13MarkerStorageELj1024EE4growEj
2902:__ZN4core8hash_setINS_4pairIKNS_12basic_stringIcNS_20StringStorageDefaultIcEEEEPN9profiling6MarkerELb1EEENS_9hash_pairINS_4hashIS5_EES6_S9_EENS_10equal_pairINSt3__28equal_toIS5_EES6_S9_EEE4growEi
2903:_XXH32
2904:__ZNSt3__26__treeINS_12__value_typeIN4core12basic_stringIcNS2_20StringStorageDefaultIcEEEEPvEENS_19__map_value_compareIS6_S8_NS_4lessIS6_EELb1EEENS_9allocatorIS8_EEE7destroyEPNS_11__tree_nodeIS8_S7_EE
2905:__ZL24ClearRegisteredCallbacksPv
2906:__ZL32StaticInitializeIUnityInterfacesPv
2907:__ZL29StaticCleanupIUnityInterfacesPv
2908:__ZL30StaticInitializeIUnityGraphicsPv
2909:__ZL30StaticInitializeIUnityProfilerPv
2910:__ZL27StaticCleanupIUnityProfilerPv
2911:__ZN13RuntimeStaticI13dynamic_arrayI22RenderingExtPluginDescLj0EELb0EE16StaticInitializeEPv
2912:__ZN13RuntimeStaticI13dynamic_arrayI22RenderingExtPluginDescLj0EELb0EE13StaticDestroyEPv
2913:__ZN13RuntimeStaticI37UnityShaderCompilerExtPluginConfigureLb0EE16StaticInitializeEPv
2914:__ZN37UnityShaderCompilerExtPluginConfigure14ReserveKeywordEPKc
2915:__ZN37UnityShaderCompilerExtPluginConfigure25SetGPUProgramCompilerMaskEj
2916:__ZN37UnityShaderCompilerExtPluginConfigure20SetShaderProgramMaskEj
2917:__ZN8keywords6CreateEPKc
2918:__Z6StrCmpPKcS0_
2919:__Z27LogRepeatingStringWithFlagsRKN4core12basic_stringIcNS_20StringStorageDefaultIcEEEE15LogMessageFlagsi
2920:__ZNSt3__26__treeINS_12__value_typeIPKciEENS_19__map_value_compareIS3_S4_15compare_tstringIS3_ELb1EEENS_9allocatorIS4_EEE21__emplace_unique_implIJNS_4pairIPciEEEEENSD_INS_15__tree_iteratorIS4_PNS_11__tree_nodeIS4_PvEEiEEbEEDpOT_
2921:__ZNSt3__26__treeI19RepeatingLogMessageNS_4lessIS1_EE13stl_allocatorIS1_L18MemLabelIdentifier74ELi16EEE4findIS1_EENS_15__tree_iteratorIS1_PNS_11__tree_nodeIS1_PvEEiEERKT_
2922:__ZNSt3__26__treeI19RepeatingLogMessageNS_4lessIS1_EE13stl_allocatorIS1_L18MemLabelIdentifier74ELi16EEE25__emplace_unique_key_argsIS1_JRKS1_EEENS_4pairINS_15__tree_iteratorIS1_PNS_11__tree_nodeIS1_PvEEiEEbEERKT_DpOT0_
2923:__ZNSt3__26__treeI19RepeatingLogMessageNS_4lessIS1_EE13stl_allocatorIS1_L18MemLabelIdentifier74ELi16EEE12__find_equalIS1_EERPNS_16__tree_node_baseIPvEERPNS_15__tree_end_nodeISC_EERKT_
2924:__ZN24ProfilerCallbacksHandlerD2Ev
2925:__ZN24ProfilerCallbacksHandler22CreateCategoryCallbackEtPv
2926:__ZN9profiling15ProfilerManager29UnregisterNewCategoryCallbackEPFvtPvES1_
2927:__ZN24ProfilerCallbacksHandler19CreateEventCallbackEPN9profiling6MarkerEPv
2928:__ZN9profiling15ProfilerManager27UnregisterNewMarkerCallbackEPFvPNS_6MarkerEPvES3_
2929:__ZN9profiling15ProfilerManager24UnregisterMarkerCallbackEPNS_6Marker8CallbackEPS1_
2930:__ZN24ProfilerCallbacksHandlerC2E10MemLabelId
2931:__Z34RegisterCreateCategoryCallbackImplPFvPK25UnityProfilerCategoryDescPvES2_
2932:__Z36UnregisterCreateCategoryCallbackImplPFvPK25UnityProfilerCategoryDescPvES2_
2933:__Z31RegisterCreateEventCallbackImplPFvPK23UnityProfilerMarkerDescPvES2_
2934:__Z33UnregisterCreateEventCallbackImplPFvPK23UnityProfilerMarkerDescPvES2_
2935:__Z25RegisterEventCallbackImplPK23UnityProfilerMarkerDescPFvS1_ttPK23UnityProfilerMarkerDataPvES5_
2936:__Z27UnregisterEventCallbackImplPK23UnityProfilerMarkerDescPFvS1_ttPK23UnityProfilerMarkerDataPvES5_
2937:__Z25RegisterFrameCallbackImplPFvPvES_
2938:__Z27UnregisterFrameCallbackImplPFvPvES_
2939:__Z32RegisterCreateThreadCallbackImplPFvPK23UnityProfilerThreadDescPvES2_
2940:__ZN9profiling15ProfilerManager26UnregisterNewFrameCallbackEPFvPvES1_
2941:__ZN9profiling15ProfilerManager24RegisterNewFrameCallbackEPFvPvES1_
2942:__ZN24ProfilerCallbacksHandler23UnregisterEventCallbackEPK23UnityProfilerMarkerDescPFvS2_ttPK23UnityProfilerMarkerDataPvES6_
2943:__ZN24ProfilerCallbacksHandler28RemoveCallbackFromAllMarkersEPFvPK23UnityProfilerMarkerDescttPK23UnityProfilerMarkerDataPvES6_R13dynamic_arrayINS_17EventCallbackDataELj0EE
2944:__ZN13dynamic_arrayIN24ProfilerCallbacksHandler17EventCallbackDataELj0EE12emplace_backERKS1_
2945:__ZN24ProfilerCallbacksHandler27RegisterCreateEventCallbackEPFvPK23UnityProfilerMarkerDescPvES3_
2946:__ZN9profiling15ProfilerManager25RegisterNewMarkerCallbackEPFvPNS_6MarkerEPvES3_
2947:__ZN24ProfilerCallbacksHandler30RegisterCreateCategoryCallbackEPFvPK25UnityProfilerCategoryDescPvES3_
2948:__ZN9profiling15ProfilerManager27RegisterNewCategoryCallbackEPFvtPvES1_
2949:__ZN24ProfilerCallbacksHandler13FrameCallbackEPv
2950:__ZL15GetRendererImplv
2951:__Z31RegisterDeviceEventCallbackImplPFv23UnityGfxDeviceEventTypeE
2952:__Z33UnregisterDeviceEventCallbackImplPFv23UnityGfxDeviceEventTypeE
2953:__ZL23ReserveEventIDRangeImpli
2954:__ZNSt3__26__treeINS_12__value_typeI18UnityInterfaceGUIDP15IUnityInterfaceEENS_19__map_value_compareIS2_S5_NS_4lessIS2_EELb1EEE13stl_allocatorIS5_L18MemLabelIdentifier7ELi16EEE7destroyEPNS_11__tree_nodeIS5_PvEE
2955:__ZL16GetInterfaceImpl18UnityInterfaceGUID
2956:__ZL21GetInterfaceSplitImplyy
2957:__ZL21RegisterInterfaceImpl18UnityInterfaceGUIDP15IUnityInterface
2958:__ZL26RegisterInterfaceSplitImplyyP15IUnityInterface
2959:__ZNSt3__26__treeINS_12__value_typeI18UnityInterfaceGUIDP15IUnityInterfaceEENS_19__map_value_compareIS2_S5_NS_4lessIS2_EELb1EEE13stl_allocatorIS5_L18MemLabelIdentifier7ELi16EEE25__emplace_unique_key_argsIS2_JNS_4pairIS2_S4_EEEEENSF_INS_15__tree_iteratorIS5_PNS_11__tree_nodeIS5_PvEEiEEbEERKT_DpOT0_
2960:__ZL25CleanupTextureIDGeneratorPv
2961:__ZN33InstancedMeshIntermediateRenderer16StaticInitializeEPv
2962:__ZN33InstancedMeshIntermediateRenderer13StaticDestroyEPv
2963:__ZN32IndirectMeshIntermediateRenderer16StaticInitializeEPv
2964:__ZN32IndirectMeshIntermediateRenderer13StaticDestroyEPv
2965:__ZN10MemoryPoolD2Ev
2966:__ZN10MemoryPoolC2E10MemLabelIdbPKciii
2967:__ZN13HandleManager12ClearHandlesEv
2968:__ZN13HandleManagerC2Ev
2969:__ZN9ShaderLab16FastPropertyName4InitEPKc
2970:__Z20IsVectorBuiltinParamPKcPi
2971:__Z20IsMatrixBuiltinParamPKcPi
2972:__Z20IsTexEnvBuiltinParamPKcPi
2973:__ZNSt3__26__treeINS_12__value_typeIPKciEENS_19__map_value_compareIS3_S4_N9ShaderLab14CStringCompareELb1EEENS_9allocatorIS4_EEE21__emplace_unique_implIJNS_4pairIPciEEEEENSD_INS_15__tree_iteratorIS4_PNS_11__tree_nodeIS4_PvEEiEEbEEDpOT_
2974:__ZN10InstancingL16RegisterCallbackEPv
2975:__ZN10InstancingL18UnregisterCallbackEPv
2976:__ZN10InstancingL21OnGraphicsCapsChangedEv
2977:__Z15GetGraphicsCapsv
2978:__ZN13RuntimeStaticI21ScalableBufferManagerLb0EE13StaticDestroyEPv
2979:__Z19CleanupTextureIdMapPv
2980:__ZNSt3__26__treeIP17RenderSurfaceBaseNS_4lessIS2_EENS_9allocatorIS2_EEE7destroyEPNS_11__tree_nodeIS2_PvEE
2981:__ZN13RuntimeStaticI13ModuleManagerLb0EE13StaticDestroyEPv
2982:__ZN12_GLOBAL__N_138ArchiveRedirectFileSystemStaticDestroyEPv
2983:__ZN13RuntimeStaticINSt3__26vectorIN4core12basic_stringIcNS2_20StringStorageDefaultIcEEEENS0_9allocatorIS6_EEEELb0EE13StaticDestroyEPv
2984:__ZN13RuntimeStaticINSt3__23setI19RepeatingLogMessageNS0_4lessIS2_EE13stl_allocatorIS2_L18MemLabelIdentifier74ELi16EEEELb0EE13StaticDestroyEPv
2985:__ZN13RuntimeStaticI14CallbackArray1IbELb0EE16StaticInitializeEPv
2986:__ZN13RuntimeStaticI14CallbackArray1IbELb0EE13StaticDestroyEPv
2987:__ZNSt3__26__treeI19RepeatingLogMessageNS_4lessIS1_EE13stl_allocatorIS1_L18MemLabelIdentifier74ELi16EEE7destroyEPNS_11__tree_nodeIS1_PvEE
2988:__ZN12UnityVersionC2EPKc
2989:__ZN10MemoryPool16StaticInitializeEPv
2990:__ZN10MemoryPool13StaticDestroyEPv
2991:__Z15InitializeCRC32Pv
2992:__ZN13crc32_table_tILj79764919EE10init_tableEv
2993:__ZN9reflectorILj32EE7reflectEj
2994:__ZN13RuntimeStaticINSt3__28multimapIi25TransformAccessArrayEntryNS0_4lessIiEENS0_9allocatorINS0_4pairIKiS2_EEEEEELb0EE13StaticDestroyEPv
2995:__ZL36TransformAccessArray_InitializeClassPv
2996:__ZL33TransformAccessArray_CleanupClassPv
2997:__ZN32TransformHierarchyChangeDispatch15InitializeClassEPv
2998:__ZN32TransformHierarchyChangeDispatch12CleanupClassEPv
2999:__ZL29TransformAccessChangeCallbackPK15TransformAccessj
3000:__ZN32TransformHierarchyChangeDispatch14RegisterSystemEPKcNS_12InterestTypeEPFvPK15TransformAccessjE
3001:__ZL30TransformAccessDestroyCallbackPK15TransformAccessj
3002:__ZL20PatchTransformAccessiRK15TransformAccessb
3003:__ZNSt3__26__treeINS_12__value_typeIi25TransformAccessArrayEntryEENS_19__map_value_compareIiS3_NS_4lessIiEELb1EEENS_9allocatorIS3_EEE7destroyEPNS_11__tree_nodeIS3_PvEE
3004:__ZN23TransformChangeDispatch15InitializeClassEPv
3005:__ZN23TransformChangeDispatch12CleanupClassEPv
3006:__ZN23TransformChangeDispatchC2Ev
3007:__ZN13RuntimeStaticIN4core12basic_stringIcNS0_20StringStorageDefaultIcEEEELb0EE16StaticInitializeEPv
3008:__ZN13RuntimeStaticIN4core12basic_stringIcNS0_20StringStorageDefaultIcEEEELb0EE13StaticDestroyEPv
3009:__ZN9ShaderLabL25StaticInitializeShaderLabEPv
3010:__ZN9ShaderLabL22StaticDestroyShaderLabEPv
3011:__ZNSt3__25stackIPN9ShaderLab21SerializedShaderStateENS_5dequeIS3_NS_9allocatorIS3_EEEEED2Ev
3012:__ZN8keywords7CleanupEv
3013:__ZN9shadertag7CleanupEv
3014:__ZNSt3__26__treeINS_12__value_typeIPKc11ShaderTagIDEENS_19__map_value_compareIS3_S5_27compare_tstring_insensitiveIS3_ELb1EEENS_9allocatorIS5_EEE7destroyEPNS_11__tree_nodeIS5_PvEE
3015:__ZNSt3__26__treeINS_12__value_typeIPKciEENS_19__map_value_compareIS3_S4_15compare_tstringIS3_ELb1EEENS_9allocatorIS4_EEE7destroyEPNS_11__tree_nodeIS4_PvEE
3016:__ZN8keywords10InitializeEv
3017:__ZN9shadertag10InitializeEv
3018:__ZN9shadertag14GetShaderTagIDERKN4core12basic_stringIcNS0_20StringStorageDefaultIcEEEE
3019:__Z7StrICmpPKcS0_
3020:__ZNSt3__26__treeINS_12__value_typeIPKc11ShaderTagIDEENS_19__map_value_compareIS3_S5_27compare_tstring_insensitiveIS3_ELb1EEENS_9allocatorIS5_EEE21__emplace_unique_implIJNS_4pairIPcS4_EEEEENSE_INS_15__tree_iteratorIS5_PNS_11__tree_nodeIS5_PvEEiEEbEEDpOT_
3021:__ZN9ShaderLab19CommonPropertyNames16StaticInitializeEPv
3022:__ZN9ShaderLab19CommonPropertyNames13StaticCleanupEPv
3023:__ZNSt3__26__treeINS_12__value_typeIPKciEENS_19__map_value_compareIS3_S4_N9ShaderLab14CStringCompareELb1EEENS_9allocatorIS4_EEE7destroyEPNS_11__tree_nodeIS4_PvEE
3024:__Z30CleanupBuiltinShaderParamNamesv
3025:__Z33InitializeBuiltinShaderParamNamesv
3026:__ZN12_GLOBAL__N_115ParamNameLookup15AddBuiltinNamesEPPKcjb
3027:__ZN13dynamic_arrayIN12_GLOBAL__N_114ParamNameIndexELj0EE9push_backERKS1_
3028:__ZNSt3__26__sortIRNS_6__lessIN12_GLOBAL__N_114ParamNameIndexES3_EEPS3_EEvT0_S7_T_
3029:__ZNSt3__27__sort3IRNS_6__lessIN12_GLOBAL__N_114ParamNameIndexES3_EEPS3_EEjT0_S7_S7_T_
3030:__ZNSt3__27__sort4IRNS_6__lessIN12_GLOBAL__N_114ParamNameIndexES3_EEPS3_EEjT0_S7_S7_S7_T_
3031:__ZNSt3__27__sort5IRNS_6__lessIN12_GLOBAL__N_114ParamNameIndexES3_EEPS3_EEjT0_S7_S7_S7_S7_T_
3032:__ZNSt3__227__insertion_sort_incompleteIRNS_6__lessIN12_GLOBAL__N_114ParamNameIndexES3_EEPS3_EEbT0_S7_T_
3033:__ZN23DefaultMeshVertexFormatC2E17ShaderChannelMask
3034:__ZL22InitializeGlobalCBKeysPv
3035:__ZN13RuntimeStaticI12GraphicsCapsLb0EE16StaticInitializeEPv
3036:__ZN13RuntimeStaticI12GraphicsCapsLb0EE13StaticDestroyEPv
3037:__ZN12GraphicsCapsD2Ev
3038:__ZN12GraphicsCapsC2Ev
3039:__ZL35StaticInitializeRuntimeSceneManagerPv
3040:__ZL32StaticDestroyRuntimeSceneManagerPv
3041:__ZN19RuntimeSceneManagerC2E10MemLabelId
3042:__ZN10UnityScene14SetPathAndGUIDERKN4core12basic_stringIcNS0_20StringStorageDefaultIcEEEERK9UnityGUID
3043:__ZL32MarkLevelGameManagerDependenciesR27GarbageCollectorThreadState
3044:__ZL16SceneWasUnloadedi
3045:__ZL18ActiveSceneChangedP10UnitySceneS0_
3046:__Z23GetCoreScriptingClassesv
3047:__ZN18ScriptingArguments9AddStructEPKv
3048:__ZN19ScriptingInvocation6InvokeEP21ScriptingExceptionPtrb
3049:__Z23scripting_method_invoke18ScriptingMethodPtr18ScriptingObjectPtrR18ScriptingArgumentsP21ScriptingExceptionPtrb
3050:__ZN9Scripting12LogExceptionE21ScriptingExceptionPtriPKcb
3051:__Z30scripting_stack_trace_info_for21ScriptingExceptionPtrR14StackTraceInfo
3052:__ZN18ScriptingArguments9AddObjectE18ScriptingObjectPtr
3053:__ZN18ScriptingArguments12AddOutObjectEP18ScriptingObjectPtr
3054:__Z24scripting_cpp_string_for18ScriptingStringPtr
3055:__Z21PostprocessStacktracePKcRN4core12basic_stringIcNS1_20StringStorageDefaultIcEEEE
3056:__ZN18ScriptingArguments9AddStringEPKc
3057:__ZN18ScriptingArguments10AddBooleanEb
3058:__ZN19ScriptingInvocation6InvokeI18ScriptingStringPtrEET_P21ScriptingExceptionPtrb
3059:__Z20scripting_string_newPKc
3060:__Z18ConvertUTF16toUTF8PKtiPhRi
3061:__Z18ConvertUTF16toUTF8PPKtS0_PPhS2_15ConversionFlags
3062:__ZN19ScriptingInvocationC2E18ScriptingMethodPtr
3063:__ZN18ScriptingArgumentsC2Ev
3064:__ZL30InitializeCoreScriptingClassesv
3065:__ZL27CleanupCoreScriptingClassesv
3066:__Z27SetupModuleScriptingClassesPFvvES0_
3067:__Z12OptionalTypePKcS0_S0_
3068:__Z11RequireTypePKcS0_S0_
3069:__Z13RequireMethodPKcS0_S0_S0_
3070:__Z14OptionalMethodPKcS0_S0_S0_
3071:__ZN9Scripting9GetMethodE17ScriptingClassPtrPKc
3072:__Z36scripting_class_get_method_from_name17ScriptingClassPtrPKci
3073:__Z43scripting_class_get_method_from_name_filter17ScriptingClassPtrPKciN24ScriptingMethodFiltering18MethodSearchFilterEPK16ScriptingTypePtr
3074:__ZN24ScriptingMethodFiltering36MethodDescriptionMatchesSearchFilterENS_18MethodSearchFilterEbi
3075:__Z29scripting_class_from_fullnamePKcS0_S0_
3076:__Z32scripting_class_get_nested_types17ScriptingClassPtrRNSt3__26vectorIS_13stl_allocatorIS_L18MemLabelIdentifier1ELi16EEEE
3077:__Z24scripting_class_get_name17ScriptingClassPtr
3078:__Z14GetMonoManagerv
3079:__ZN11MonoManager17GetScriptingClassEPKcS1_S1_
3080:__ZNK4core8hash_setINS_4pairIKNS_12basic_stringIcNS_20StringStorageDefaultIcEEEEiLb1EEENS_9hash_pairINS_4hashIS5_EES6_iEENS_10equal_pairINSt3__28equal_toIS5_EES6_iEEE6lookupIS5_EEPNSH_4nodeERKT_
3081:__Z21GetManagerFromContexti
3082:__Z20MarkInstanceIDAsRootiR27GarbageCollectorThreadState
3083:__Z24GetLastPathNameComponentRKN4core12basic_stringIcNS_20StringStorageDefaultIcEEEE
3084:__Z23DeletePathNameExtensionRKN4core12basic_stringIcNS_20StringStorageDefaultIcEEEE
3085:__ZN19RuntimeSceneManagerD2Ev
3086:__ZN19RuntimeSceneManagerD0Ev
3087:__ZN19RuntimeSceneManager8GetSceneEi
3088:__ZN19RuntimeSceneManager11MergeScenesER10UnitySceneS1_
3089:__ZN19RuntimeSceneManager14CanUnloadSceneEP10UnityScene
3090:__ZN19RuntimeSceneManager19UnloadSceneInternalEP10UnityScene
3091:__ZNK27SharedObjectDeleteReleaseOpI10UnitySceneEclEPS0_10MemLabelId
3092:__ZN19RuntimeSceneManager14SetActiveSceneER10UnityScene
3093:__Z22DestroyObjectHighLevelP6Objectb
3094:__Z31ReadObjectFromPersistentManageri
3095:__ZN17PersistentManager10ReadObjectEi17AwakeFromLoadMode
3096:__ZN17PersistentManager37RegisterPartiallyLoadedObjectInternalEi
3097:__ZN17PersistentManager18ReadObjectThreadedEiNS_9LockFlagsE
3098:__ZN17PersistentManager32LoadRemainingPreallocatedObjectsENS_9LockFlagsE
3099:__ZN17PersistentManager27IntegrateAllThreadedObjectsEv
3100:__ZN17PersistentManager32CopyToAwakeFromLoadQueueInternalER18AwakeFromLoadQueue
3101:__ZN18AwakeFromLoadQueue25RegisterObjectInstanceIDsEv
3102:__ZN18AwakeFromLoadQueue30PersistentManagerAwakeFromLoadEv
3103:__ZN18AwakeFromLoadQueueD2Ev
3104:__ZN18AwakeFromLoadQueue30PersistentManagerAwakeFromLoadEi17AwakeFromLoadMode
3105:__ZL20SortItemByInstanceIDRKN18AwakeFromLoadQueue4ItemES2_
3106:__ZNSt3__26__sortIRPFbRKN18AwakeFromLoadQueue4ItemES4_EPS2_EEvT0_S9_T_
3107:__ZNSt3__27__sort4IRPFbRKN18AwakeFromLoadQueue4ItemES4_EPS2_EEjT0_S9_S9_S9_T_
3108:__ZNSt3__218__insertion_sort_3IRPFbRKN18AwakeFromLoadQueue4ItemES4_EPS2_EEvT0_S9_T_
3109:__ZNSt3__227__insertion_sort_incompleteIRPFbRKN18AwakeFromLoadQueue4ItemES4_EPS2_EEbT0_S9_T_
3110:__ZN6Object24RegisterInstanceIDNoLockEPS_
3111:__ZN4core8hash_setINS_4pairIKiP6ObjectLb0EEENS_9hash_pairINS_4hashIiEES2_S4_EENS_10equal_pairINSt3__28equal_toIiEES2_S4_EEE6insertERKS5_
3112:__ZN18AwakeFromLoadQueue3AddER6ObjectPK8TypeTreeb17AwakeFromLoadMode
3113:__ZN18AwakeFromLoadQueue19DetermineQueueIndexEPKN5Unity4TypeER6Object
3114:__ZNSt3__26__sortIRNS_6__lessI14ObjectLoadDataS2_EEPS2_EEvT0_S6_T_
3115:__ZN17PersistentManager29ReadAndActivateObjectThreadedEiRK26SerializedObjectIdentifierP14SerializedFilebbNS_9LockFlagsE
3116:__ZN17PersistentManager34GetSerializedFileIfObjectAvailableEixNS_9LockFlagsE
3117:__ZN17PersistentManager32CreateThreadActivationQueueEntryER14SerializedFile26SerializedObjectIdentifieribNS_9LockFlagsE
3118:__ZN14SerializedFile10ReadObjectEx18ObjectCreationModebPPK8TypeTreePbR6Object
3119:__ZN17PersistentManager23PostReadActivationQueueEiPK8TypeTreebNS_9LockFlagsE
3120:__Z16GenerateTypeTreeRK6ObjectR8TypeTree24TransferInstructionFlags
3121:__Z26IsStreamedBinaryCompatibleRK16TypeTreeIteratorS1_
3122:__ZN14SafeBinaryRead4InitERK16TypeTreeIteratorxx24TransferInstructionFlags10MemLabelId
3123:__ZN12CachedReader8InitReadER15CacheReaderBasejj
3124:__ZN12CachedReader3EndEv
3125:__ZL23OutOfBoundsReadingErrorPKN5Unity4TypeEiiR6Object
3126:__ZN14SafeBinaryReadD2Ev
3127:__ZNK10MonoScript22GetScriptFullClassNameEv
3128:__ZN12CachedReader16OutOfBoundsErrorEjj
3129:__ZN14SafeBinaryReadC2Ev
3130:__ZN8TypeTreeaSEOS_
3131:__ZN17ScriptingGCHandle28ResolveBackendNativeGCHandleEj
3132:__Z26scripting_object_get_class18ScriptingObjectPtr
3133:__ZN24GenerateTypeTreeTransferC2ER8TypeTree24TransferInstructionFlagsPvi
3134:__ZN8TypeTreeC2E10MemLabelId
3135:__ZN17PersistentManager13ProduceObjectER14SerializedFile26SerializedObjectIdentifieri18ObjectCreationModeNS_9LockFlagsE
3136:__ZN4core8hash_mapIi17ThreadedAwakeDataNS_4hashIiEENSt3__28equal_toIiEEE6insertERKiRKS1_
3137:__ZN4core8hash_setINS_4pairIKi17ThreadedAwakeDataLb0EEENS_9hash_pairINS_4hashIiEES2_S3_EENS_10equal_pairINSt3__28equal_toIiEES2_S3_EEE4growEi
3138:__ZN6Object7ProduceEPKN5Unity4TypeES3_i10MemLabelId18ObjectCreationMode
3139:__ZN17PersistentManager43LocalSerializedObjectIdentifierToInstanceIDEiRK31LocalSerializedObjectIdentifierRiNS_9LockFlagsE
3140:__ZN17PersistentManager22GetFromActivationQueueEiNS_9LockFlagsE
3141:__ZN13MonoBehaviour19RebuildMonoInstanceE17ScriptingClassPtr18ScriptingObjectPtrP10MonoScript
3142:__ZN9Scripting31ConnectScriptingWrapperToObjectE18ScriptingObjectPtrP6Object
3143:__ZNK15MonoScriptCache7ReleaseEv
3144:__Z27FindOrCreateMonoScriptCache17ScriptingClassPtr22InitScriptingCacheTypeP6Objecti
3145:__ZN13MonoBehaviour22GetScriptFullClassNameEv
3146:__Z21FormatScriptTypeError14MonoScriptTypeRKN4core12basic_stringIcNS0_20StringStorageDefaultIcEEEE
3147:__Z64scripting_unity_engine_object_new_and_invoke_default_constructor17ScriptingClassPtrP6ObjectP21ScriptingExceptionPtr
3148:__Z29scripting_class_get_namespace17ScriptingClassPtr
3149:__ZN16ScriptingManager19RegisterScriptCacheEP15MonoScriptCache
3150:__ZN16ScriptingManager18GetMonoScriptCacheEi
3151:__Z18BuildScriptClassId17ScriptingClassPtr
3152:__Z21CreateMonoScriptCacheRKN4core12basic_stringIcNS_20StringStorageDefaultIcEEEE17ScriptingClassPtr22InitScriptingCacheTypeP6Objecti
3153:__Z27scripting_class_is_abstract17ScriptingClassPtr
3154:__Z26scripting_class_is_generic17ScriptingClassPtr
3155:__Z30scripting_class_is_subclass_of17ScriptingClassPtrS_
3156:__Z27scripting_class_get_methods17ScriptingClassPtrRNSt3__26vectorI18ScriptingMethodPtr13stl_allocatorIS2_L18MemLabelIdentifier1ELi16EEEE
3157:__Z26scripting_class_get_parent17ScriptingClassPtr
3158:__ZNSt3__26__treeINS_12__value_typeIPKc18ScriptingMethodPtrEENS_19__map_value_compareIS3_S5_14CStringCompareLb1EEE13stl_allocatorIS5_L18MemLabelIdentifier1ELi16EEE25__emplace_unique_key_argsIS3_JRKNS_21piecewise_construct_tENS_5tupleIJOS3_EEENSH_IJEEEEEENS_4pairINS_15__tree_iteratorIS5_PNS_11__tree_nodeIS5_PvEEiEEbEERKT_DpOT0_
3159:__Z35scripting_method_get_argument_count18ScriptingMethodPtr
3160:__Z31scripting_method_get_returntype18ScriptingMethodPtr
3161:__Z25scripting_class_from_type16ScriptingTypePtr
3162:__ZNSt3__26__treeINS_12__value_typeIPKc18ScriptingMethodPtrEENS_19__map_value_compareIS3_S5_14CStringCompareLb1EEE13stl_allocatorIS5_L18MemLabelIdentifier1ELi16EEE7destroyEPNS_11__tree_nodeIS5_PvEE
3163:__ZN14MessageHandler28MessageIDToMessageIdentifierEi
3164:__Z37scripting_method_get_nth_argumenttype18ScriptingMethodPtri
3165:__Z25GetCommonScriptingClassesv
3166:__ZN16ScriptingManager27NativeTypeForScriptingClassE17ScriptingClassPtr
3167:__ZN9Scripting25GetTypeFromScriptingClassE17ScriptingClassPtr
3168:__ZN23ManagedAttributeManager24GetDefaultExecutionOrderE17ScriptingClassPtr
3169:__ZN23ManagedAttributeManager35CallManagedGetDefaultExecutionOrderE17ScriptingClassPtr
3170:__Z26scripting_class_get_object17ScriptingClassPtr
3171:__ZN19ScriptingInvocation6InvokeIiEET_P21ScriptingExceptionPtrb
3172:__ZN5Unity4Type14FindTypeByNameEPKcNS0_22CaseSensitivityOptionsE
3173:__ZNK11TypeManager15ClassNameToRTTIEPKcb
3174:__ZNK4core8hash_setINS_4pairIKPKcPK4RTTILb0EEENS_9hash_pairIN11TypeManager23ConstCharPtrHashFunctorES4_S7_EENS_10equal_pairINSA_19ConstCharPtrEqualToES4_S7_EEE6lookupIS3_EEPNSG_4nodeERKT_
3175:__Z33RenderImageFilterValidateCallback18ScriptingMethodPtr17ScriptingClassPtrP6Object
3176:__Z31AudioFilterReadValidateCallback18ScriptingMethodPtr17ScriptingClassPtrP6Object
3177:__Z21CheckMethodParameters18ScriptingMethodPtr17ScriptingClassPtrPS0_jP6ObjectR11MonoManager
3178:__Z26GetScriptClassIdComponents17ScriptingClassPtrRN4core17string_with_labelILi1EEES3_S3_
3179:__Z34scripting_class_get_declaring_type17ScriptingClassPtr
3180:__Z32scripting_class_get_assemblyname17ScriptingClassPtr
3181:__ZL21AppendNestedClassName17ScriptingClassPtrRN4core17string_with_labelILi1EEE
3182:__ZN16ScriptingManager24NotifyScriptCacheReleaseEi
3183:__ZN8Remapper23GetOrGenerateInstanceIDERK26SerializedObjectIdentifier
3184:__ZN17PersistentManager25PreallocateObjectThreadedEiNS_9LockFlagsE
3185:__ZN17PersistentManager22MakeObjectUnpersistentEi13UnpersistMode
3186:__Z28delete_object_internal_step1P6Object
3187:__ZN12EventManager11InvokeEventEP10EventEntryPvi
3188:__ZN12EventManager11RemoveEventEP10EventEntry
3189:__ZN17PersistentManager15DestroyFromFileEi
3190:__ZN8Remapper6RemoveEi
3191:__ZN17PersistentManager26GetStreamNameSpaceInternalEi
3192:__ZN13dynamic_arrayIxLj0EE9push_backERKx
3193:__ZN17PersistentManager19RemapToAbsolutePathERKN4core12basic_stringIcNS0_20StringStorageDefaultIcEEEE
3194:__Z13IsFileCreatedRKN4core12basic_stringIcNS_20StringStorageDefaultIcEEEE
3195:__ZN14SerializedFile10ReadHeaderEv
3196:__ZN14SerializedFileD2Ev
3197:__ZN17PersistentManager31PostLoadStreamNameSpaceInternalER15StreamNameSpacei
3198:__ZNSt3__26vectorINS_4pairIiiEE13stl_allocatorIS2_L18MemLabelIdentifier38ELi16EEE6insertENS_11__wrap_iterIPKS2_EEOS2_
3199:__ZNSt3__214__split_bufferINS_4pairIiiEER13stl_allocatorIS2_L18MemLabelIdentifier38ELi16EEE9push_backEOS2_
3200:__ZN18ResourceImageGroup7CleanupEv
3201:__ZN19dynamic_block_arrayI14FileIdentifierLj1024EED2Ev
3202:__ZN14SerializedFile14SerializedTypeD2Ev
3203:__ZN13ResourceImageD2Ev
3204:__Z13ReadFileCacheR15CacheReaderBasePvjj
3205:__ZN14SerializedFile12ReadMetadataILb0EEEbijPKhjj
3206:__ZN14SerializedFile12ReadMetadataILb1EEEbijPKhjj
3207:__ZN14SerializedFile27PatchRemapDeprecatedClassesEv
3208:__ZN5Unity4Type26FindTypeByPersistentTypeIDEi
3209:__ZN5Unity4Type41GetDeserializationStubForPersistentTypeIDEi
3210:__ZL38FindOrCreateSerializedTypeForUnityTypeR13dynamic_arrayIN14SerializedFile14SerializedTypeELj0EEPKN5Unity4TypeEbsi
3211:__ZN11TypeManager45GetDeserializationRTTIStubForPersistentTypeIDEi
3212:__ZNK11TypeManager22PersistentTypeIDToRTTIEi
3213:__ZL10ReadStringRN4core12basic_stringIcNS_20StringStorageDefaultIcEEEERPKhS6_
3214:__ZN13dynamic_arrayIN14SerializedFile14SerializedTypeELj0EE18resize_initializedEjRKS1_12ResizePolicy
3215:__ZN14SerializedFile14SerializedType8ReadTypeILb1EEEbibRPKhS3_Pi
3216:__ZL26ExtractScriptTypeReferenceRK16TypeTreeIteratorjR15CacheReaderBasebR31LocalSerializedObjectIdentifier
3217:__ZNSt3__26vectorINS_4pairIxN14SerializedFile10ObjectInfoEEENS_9allocatorIS4_EEE21__push_back_slow_pathIS4_EEvOT_
3218:__ZN19dynamic_block_arrayI14FileIdentifierLj1024EE28resize_with_resizer_internalINS1_20ResizerWithNoDefaultEEEvjRKT_
3219:__ZNSt3__26__treeINS_12__value_typeIiiEENS_19__map_value_compareIiS2_NS_4lessIiEELb1EEENS_9allocatorIS2_EEE7destroyEPNS_11__tree_nodeIS2_PvEE
3220:__ZN19dynamic_block_arrayI14FileIdentifierLj1024EE4growEj
3221:__ZN13dynamic_arrayI14FileIdentifierLj0EE18resize_initializedEj12ResizePolicy
3222:__ZN8TypeTree8BlobReadERPKhS1_ib
3223:__ZL16ReadTypeTreeImplILb1EEbR8TypeTreeRK16TypeTreeIteratorRPKhS6_i
3224:__ZL12CreateStringPjR13dynamic_arrayIcLj0EEPKc
3225:__ZN8TypeTree8AddChildEj
3226:__ZNK17CommonStringTable16FindCommonStringEPKc
3227:__ZN14SerializedFile14SerializedType8ReadTypeILb0EEEbibRPKhS3_Pi
3228:__ZL16ReadTypeTreeImplILb0EEbR8TypeTreeRK16TypeTreeIteratorRPKhS6_i
3229:__ZN14FileCacherReadC2E10MemLabelIdRKN4core12basic_stringIcNS1_20StringStorageDefaultIcEEEEjb
3230:__Z18PathToAbsolutePathRKN4core12basic_stringIcNS_20StringStorageDefaultIcEEEE
3231:__ZN15FileSystemEntryC2EPKc
3232:__ZN15FileSystemEntry3SetEPKc
3233:__Z24ConvertSeparatorsToUnityPc
3234:__Z13GetFileSystemv
3235:__ZNK10FileSystem10ToAbsoluteEPKc
3236:__ZN14FileCacherReadD2Ev
3237:__ZN14FileCacherReadD0Ev
3238:__ZN14FileCacherRead10DirectReadEPvjj
3239:__ZN14FileCacherRead14LockCacheBlockEjPPhS1_
3240:__ZN14FileCacherRead16UnlockCacheBlockEj
3241:__ZN14FileCacherRead12GetCacheSizeEv
3242:__ZN14FileCacherRead11GetPathNameEv
3243:__ZN15CacheReaderBase18GetAddressOfMemoryEv
3244:__ZN14FileCacherRead7RequestEiR16AsyncReadCommandRNS_10CacheBlockEb
3245:__Z15SyncReadRequestP16AsyncReadCommand
3246:__ZN13OpenFileCache10OpenCachedERKN4core12basic_stringIcNS0_20StringStorageDefaultIcEEEE
3247:__ZN4File4ReadEyPvj
3248:__ZN12FileAccessor4ReadEyyPvPy
3249:__ZN4File5CloseEv
3250:__ZN4File4OpenERKN4core12basic_stringIcNS0_20StringStorageDefaultIcEEEENS_10PermissionENS_12AutoBehaviorE
3251:__ZN4File19OpenFileSystemEntryERK15FileSystemEntryNS_10PermissionENS_12AutoBehaviorE
3252:__ZN12FileAccessor5CloseEv
3253:__ZN13FileEntryDataaSERKS_
3254:__ZN12FileAccessor4OpenER15FileSystemEntry14FilePermission16FileAutoBehavior
3255:__ZN12FileAccessorC2Ev
3256:__ZN12FileAccessorD2Ev
3257:__ZN12FileAccessorD0Ev
3258:__ZN13OpenFileCache10ForceCloseERKN4core12basic_stringIcNS0_20StringStorageDefaultIcEEEE
3259:__ZNSt3__27__sort4IRNS_6__lessI14ObjectLoadDataS2_EEPS2_EEjT0_S6_S6_S6_T_
3260:__ZNSt3__27__sort5IRNS_6__lessI14ObjectLoadDataS2_EEPS2_EEjT0_S6_S6_S6_S6_T_
3261:__ZNSt3__218__insertion_sort_3IRNS_6__lessI14ObjectLoadDataS2_EEPS2_EEvT0_S6_T_
3262:__ZNSt3__227__insertion_sort_incompleteIRNS_6__lessI14ObjectLoadDataS2_EEPS2_EEbT0_S6_T_
3263:__ZN6Object18RegisterInstanceIDEPS_
3264:__Z19CanReplaceComponentRN5Unity9ComponentEPKNS_4TypeEPN4core12basic_stringIcNS5_20StringStorageDefaultIcEEEE
3265:__ZNK10GameObject8IsActiveEv
3266:__ZN10GameObject17GetComponentIndexEPN5Unity9ComponentE
3267:__ZN10GameObject22RemoveComponentAtIndexEi
3268:__Z19DestroySingleObjectP6Object
3269:__ZNK10GameObject20QueryComponentByTypeEPKN5Unity4TypeE
3270:__Z26DestroyGameObjectHierarchyR10GameObject
3271:__ZN10GameObject10DeactivateE19DeactivateOperation
3272:__ZL19PreDestroyRecursiveR10GameObjectPj
3273:__ZN9Transform16RemoveFromParentENS_20RemoveFromParentModeE
3274:__ZL26DestroyGameObjectRecursiveR10GameObjectR11BatchDelete
3275:__Z17CommitBatchDeleteR11BatchDelete
3276:__Z28delete_object_internal_step2P6Object
3277:__ZN32TransformHierarchyChangeDispatch26DispatchSelfAndAllChildrenE15TransformAccessNS_12InterestTypeE
3278:__ZN17TransformInternal20FreeTransformHandlesER18TransformHierarchyi
3279:__ZN17TransformInternal21DetachTransformThreadER18TransformHierarchyjj
3280:__ZN17TransformInternal19FreeTransformThreadER18TransformHierarchyjj
3281:__ZN17TransformInternal27UpdateDeepChildCountUpwardsER18TransformHierarchyii
3282:__ZN32TransformHierarchyChangeDispatch22DispatchSelfAndParentsE15TransformAccessNS_12InterestTypeE
3283:__ZN5Unity9Component14SendMessageAnyERK17MessageIdentifierR11MessageData
3284:__ZN10GameObject14SendMessageAnyERK17MessageIdentifierR11MessageData
3285:__ZN16MessageForwarder13HandleMessageEPviR11MessageData
3286:__ZN10GameObject21WillDestroyGameObjectEv
3287:__ZN10GameObject32ActivateAwakeRecursivelyInternalE19DeactivateOperationR18AwakeFromLoadQueue
3288:__ZN18AwakeFromLoadQueue13AwakeFromLoadE17AwakeFromLoadModeb
3289:__ZL53SortBehaviourItemByExecutionOrderAndReverseInstanceIDRKN18AwakeFromLoadQueue4ItemES2_
3290:__ZNK21ExecutionOrderManager23GetScriptExecutionOrderEiPKN5Unity4TypeE
3291:__ZN10GameObject18UpdateActiveGONodeEv
3292:__ZN18AwakeFromLoadQueueC2E10MemLabelId
3293:__Z34FindRequiredComponentsForComponentPKN5Unity4TypeE
3294:__ZN13MonoBehaviour18GetScriptClassNameEv
3295:__Z6AppendRKN4core12basic_stringIcNS_20StringStorageDefaultIcEEEEPKc
3296:__Z25InitComponentRequirementsv
3297:__ZNSt3__26__treeINS_12__value_typeIPKN5Unity4TypeE10vector_setIS5_NS_4lessIS5_EENS_9allocatorIS5_EEEEENS_19__map_value_compareIS5_SC_S8_Lb1EEENS9_ISC_EEE7destroyEPNS_11__tree_nodeISC_PvEE
3298:__Z38InitComponentRequirementsForModuleSpecRK10ModuleSpec
3299:__ZN13ModuleManager3GetEv
3300:__ZNK5Unity4Type21FindAllDerivedClassesER13dynamic_arrayIPKS0_Lj0EENS0_17TypeFilterOptionsE
3301:__ZNSt3__26vectorIPKN5Unity4TypeENS_9allocatorIS4_EEE6assignIPS4_EENS_9enable_ifIXaasr21__is_forward_iteratorIT_EE5valuesr16is_constructibleIS4_NS_15iterator_traitsISB_E9referenceEEE5valueEvE4typeESB_SB_
3302:__ZNSt3__26__sortIRNS_4lessIPKN5Unity4TypeEEEPS5_EEvT0_S9_T_
3303:__ZL23AddConflictingClassIMPLPKN5Unity4TypeES2_
3304:__ZNSt3__27__sort5IRNS_4lessIPKN5Unity4TypeEEEPS5_EEjT0_S9_S9_S9_S9_T_
3305:__ZNSt3__227__insertion_sort_incompleteIRNS_4lessIPKN5Unity4TypeEEEPS5_EEbT0_S9_T_
3306:__ZNK11TypeManager23FindAllRTTIDerivedTypesEPK4RTTIR13dynamic_arrayIS2_Lj0EEb
3307:__ZN13RuntimeStaticI13ModuleManagerLb0EE10InitializeEv
3308:__ZN10UnityScene43RegisterLevelGameManagersWithManagerContextEv
3309:__ZN13RuntimeStaticI21AssetReferenceStorageLb0EE16StaticInitializeEPv
3310:__ZN13RuntimeStaticI21AssetReferenceStorageLb0EE13StaticDestroyEPv
3311:__ZL19StaticCleanupPlayerPv
3312:__ZN22BuiltinResourceManager16StaticInitializeEPv
3313:__ZN22BuiltinResourceManager13StaticDestroyEPv
3314:__ZN21AssetReferenceStorageD2Ev
3315:__ZN21AssetReferenceStorage22GarbageCollectCallbackEPS_R27GarbageCollectorThreadState
3316:__ZN13RuntimeStaticI19EndOfFrameCallbacksLb0EE16StaticInitializeEPv
3317:__ZN13RuntimeStaticI19EndOfFrameCallbacksLb0EE13StaticDestroyEPv
3318:__ZN13RuntimeStaticI19UnityPluginRegistryLb0EE16StaticInitializeEPv
3319:__ZN13RuntimeStaticI19UnityPluginRegistryLb0EE13StaticDestroyEPv
3320:__ZN13RuntimeStaticINSt3__23mapIN4core12basic_stringIcNS2_20StringStorageDefaultIcEEEES6_NS0_4lessIS6_EE13stl_allocatorINS0_4pairIKS6_S6_EEL18MemLabelIdentifier13ELi16EEEELb0EE13StaticDestroyEPv
3321:__ZNSt3__26__treeINS_12__value_typeIN4core12basic_stringIcNS2_20StringStorageDefaultIcEEEES6_EENS_19__map_value_compareIS6_S7_NS_4lessIS6_EELb1EEE13stl_allocatorIS7_L18MemLabelIdentifier13ELi16EEE7destroyEPNS_11__tree_nodeIS7_PvEE
3322:__ZN19EndOfFrameCallbacks8DequeAllEv
3323:__Z23DestroyMutexLockedQueueP16MutexLockedQueue10MemLabelId
3324:__Z22CreateMutexLockedQueue10MemLabelId
3325:__ZN17ScriptingGCHandle15ReleaseAndClearEv
3326:__ZN21ComponentRequirements16StaticInitializeEPv
3327:__ZN21ComponentRequirements13StaticDestroyEPv
3328:__Z22CleanupCachingManagersPv
3329:__ZN15FileSystemEntry6DeleteEb
3330:__ZL30InitializeHalfConversionTablesPv
3331:__ZL30InitializeRegisterDomainReloadPv
3332:__ZN13RuntimeStaticI22VirtualJoystickManagerLb0EE16StaticInitializeEPv
3333:__ZN13RuntimeStaticI22VirtualJoystickManagerLb0EE13StaticDestroyEPv
3334:__ZN13RuntimeStaticI15GUIEventManagerLb0EE16StaticInitializeEPv
3335:__ZN13RuntimeStaticI15GUIEventManagerLb0EE13StaticDestroyEPv
3336:__ZNSt3__212__deque_baseI10InputEventNS_9allocatorIS1_EEE5clearEv
3337:__ZN10InputEventD2Ev
3338:__ZN13RuntimeStaticI22ThreadSharedObjectPoolI26ScriptableShadowCasterDataELb1EE16StaticInitializeEPv
3339:__ZN13RuntimeStaticI22ThreadSharedObjectPoolI26ScriptableShadowCasterDataELb1EE13StaticDestroyEPv
3340:__ZN22ThreadSharedObjectPoolI26ScriptableShadowCasterDataE5ClearEv
3341:__Z23DestroyMutexLockedStackP16MutexLockedStack
3342:__ZN26ScriptableShadowCasterDataD2Ev
3343:__ZN15RenderNodeQueueD2Ev
3344:__ZN15RenderNodeQueue5ResetEb
3345:__ZN19AtomicPageAllocatorD2Ev
3346:__ZN19AtomicPageAllocator5ClearEv
3347:__ZN26ScriptableShadowCasterData5ResetEv
3348:__Z22CreateMutexLockedStackv
3349:__ZN23DefaultMeshVertexFormatC2E18VertexChannelsInfo
3350:__ZN13RuntimeStaticI17UniqueIDGeneratorLb0EE16StaticInitializeEPv
3351:__ZN17UniqueIDGeneratorC2E10MemLabelId
3352:__ZN13RuntimeStaticI23MeshVertexFormatManagerLb0EE13StaticDestroyEPv
3353:__ZNSt3__26__treeINS_12__value_typeI18VertexChannelsInfo16MeshVertexFormatEENS_19__map_value_compareIS2_S4_NS_4lessIS2_EELb1EEE13stl_allocatorIS4_L18MemLabelIdentifier17ELi16EEE7destroyEPNS_11__tree_nodeIS4_PvEE
3354:__Z25InitializeLODGroupManagerPv
3355:__Z22CleanupLODGroupManagerPv
3356:__ZN15LODGroupManagerD2Ev
3357:__ZN17UniqueIDGenerator7CleanupEv
3358:__ZN23TransformChangeDispatch16UnregisterSystemER27TransformChangeSystemHandle
3359:__ZN17UniqueIDGenerator16DestroyPureIndexEj
3360:__ZN15LODGroupManagerC2E10MemLabelId
3361:__ZN23TransformChangeDispatch14RegisterSystemEPKcNS_12InterestTypeE
3362:__ZN17UniqueIDGenerator15CreatePureIndexEv
3363:__ZN17UniqueIDGenerator8CreateIDEv
3364:__ZN21BillboardBatchManager16StaticInitializeEPv
3365:__ZN21BillboardBatchManager13StaticCleanupEPv
3366:__Z28BuildSingleStreamChannelInfoP11ChannelInfoRK20VertexChannelsLayout17ShaderChannelMaskS4_
3367:__ZN23MeshVertexFormatManager19GetMeshVertexFormatERK18VertexChannelsInfo
3368:__ZNK18VertexChannelsInfoltERKS_
3369:__ZN16MeshVertexFormatC2ERK18VertexChannelsInfo
3370:__ZNSt3__26__treeINS_12__value_typeI18VertexChannelsInfo16MeshVertexFormatEENS_19__map_value_compareIS2_S4_NS_4lessIS2_EELb1EEE13stl_allocatorIS4_L18MemLabelIdentifier17ELi16EEE12__find_equalIS2_EERPNS_16__tree_node_baseIPvEENS_21__tree_const_iteratorIS4_PNS_11__tree_nodeIS4_SF_EEiEERPNS_15__tree_end_nodeISH_EESI_RKT_
3371:__ZN13RuntimeStaticI10WatermarksLb0EE16StaticInitializeEPv
3372:__ZN20DiagnosticSwitchBaseC2EPKcS1_NS_11SwitchFlagsE
3373:__ZN16DiagnosticSwitchIbE18SetValueFromStringEPKc
3374:__ZN16DiagnosticSwitchIbE20ApplyPersistentValueEv
3375:__ZN16DiagnosticSwitchIbE20CollectScriptingInfoERN20DiagnosticSwitchBase13ScriptingInfoE
3376:__ZN16DiagnosticSwitchIbE24UpdateFromScriptingValueE18ScriptingObjectPtrb
3377:__ZN9Scripting26RaiseArgumentNullExceptionEPKc
3378:__ZN9Scripting22RaiseArgumentExceptionEPKcz
3379:__ZN9Scripting24RaiseSystemExceptionImplEPKcS1_Pi
3380:__ZN9Scripting26CreateManagedExceptionImplEPKcS1_S1_Pi
3381:__Z30CreateBoxedObjectFromPrimitiveb
3382:__ZN16DiagnosticSwitchIbE18GetPersistentValueEv
3383:__Z19scripting_value_box17ScriptingClassPtrPv
3384:__Z14IsStringNumberPKc
3385:__Z14StringToUInt32RKN4core16basic_string_refIcEE
3386:__ZN18AsyncUploadManager16StaticInitializeEPv
3387:__ZN18AsyncUploadManager13StaticDestroyEPv
3388:__ZN18AsyncUploadManagerD2Ev
3389:__ZN18ConcurrentFreeListI12AsyncCommandE7CleanUpEv
3390:__ZN18AsyncUploadManagerC2E10MemLabelId
3391:__ZN13RuntimeStaticIN4core8hash_mapIiiNS0_4hashIiEENSt3__28equal_toIiEEEELb0EE16StaticInitializeEPv
3392:__ZN13RuntimeStaticIN4core8hash_mapIiiNS0_4hashIiEENSt3__28equal_toIiEEEELb0EE13StaticDestroyEPv
3393:__ZL38StaticRegister_LightmapSettingsManagerPv
3394:__ZL33StaticUnregister_LightmapSettingsPv
3395:__ZL14DidUnloadScenei
3396:__ZL21SceneLoadedAfterAwakeiR18AwakeFromLoadQueue16SceneLoadingMode
3397:__Z20DidChangeActiveSceneP10UnitySceneS0_
3398:__ZL12WipeSettingsv
3399:__ZNK10UnityScene19GetLevelGameManagerEi
3400:__ZN16LightmapSettings8CopyFromEPKS_
3401:__ZN21EnlightenSceneMappingaSERKS_
3402:__ZN16LightmapSettings7RebuildEv
3403:__ZN16LightmapSettings28SetDynamicGILightmapTexturesEPK22RealtimeLightmapIDDataj
3404:__Znaj
3405:__ZNSt3__26vectorINS_4pairIijEENS_9allocatorIS2_EEE6assignIPS2_EENS_9enable_ifIXaasr21__is_forward_iteratorIT_EE5valuesr16is_constructibleIS2_NS_15iterator_traitsIS9_E9referenceEEE5valueEvE4typeES9_S9_
3406:__ZN4core8hash_mapIiP16LightmapSettingsNS_4hashIiEENSt3__28equal_toIiEEEixERKi
3407:__ZNK23LightmapSettingsManager24CheckSettingsConsistencyEv
3408:__Z19GetLightmapSettingsv
3409:__ZN16LightmapSettings15AppendLightmapsEiRK13dynamic_arrayI12LightmapDataLj0EE
3410:__Z24InitializeMainSceneRangeiiiR13dynamic_arrayI10SceneRangeLj0EE
3411:__ZN21EnlightenSceneMapping6AppendEiRKS_
3412:__Z26GetLightmapSettingsManagerv
3413:__ZN23LightmapSettingsManager25GetMergedLightmapSettingsEv
3414:__Z16AppendSceneRangeiiiiiR13dynamic_arrayI10SceneRangeLj0EE
3415:__ZN13dynamic_arrayI28EnlightenRendererInformationLj0EE6insertEPS0_PKS0_S4_
3416:__ZN13dynamic_arrayI26EnlightenSystemInformationLj0EE6insertEPS0_PKS0_S4_
3417:__ZN13dynamic_arrayI31EnlightenSystemAtlasInformationLj0EE6insertEPS0_PKS0_S4_
3418:__ZN13dynamic_arrayI33EnlightenTerrainChunksInformationLj0EE6insertEPS0_PKS0_S4_
3419:__ZN13dynamic_arrayI7Hash128Lj0EE6insertEPS0_PKS0_S4_
3420:__ZNSt3__26vectorINS_4pairIijEENS_9allocatorIS2_EEE21__push_back_slow_pathIS2_EEvOT_
3421:__ZN13sorted_vectorINSt3__24pairIijEEN10vector_mapIijNS0_4lessIiEENS0_9allocatorIS2_EEE13value_compareES7_E21sort_clear_duplicatesEv
3422:__ZnwjRKSt9nothrow_t
3423:__ZNSt3__213__stable_sortIRN10vector_mapIijNS_4lessIiEENS_9allocatorINS_4pairIijEEEEE13value_compareENS_11__wrap_iterIPS6_EEEEvT0_SE_T_NS_15iterator_traitsISE_E15difference_typeEPNSH_10value_typeEi
3424:__ZNSt3__218__stable_sort_moveIRN10vector_mapIijNS_4lessIiEENS_9allocatorINS_4pairIijEEEEE13value_compareENS_11__wrap_iterIPS6_EEEEvT0_SE_T_NS_15iterator_traitsISE_E15difference_typeEPNSH_10value_typeE
3425:__ZNSt3__215__inplace_mergeIRN10vector_mapIijNS_4lessIiEENS_9allocatorINS_4pairIijEEEEE13value_compareENS_11__wrap_iterIPS6_EEEEvT0_SE_SE_T_NS_15iterator_traitsISE_E15difference_typeESI_PNSH_10value_typeEi
3426:__ZNSt3__224__buffered_inplace_mergeIRN10vector_mapIijNS_4lessIiEENS_9allocatorINS_4pairIijEEEEE13value_compareENS_11__wrap_iterIPS6_EEEEvT0_SE_SE_T_NS_15iterator_traitsISE_E15difference_typeESI_PNSH_10value_typeE
3427:__ZNK10GISettings26GetEnableRealtimeLightmapsEv
3428:__Z17GetRenderSettingsv
3429:__Z12FormatStringPKcz
3430:__Z12FormatBufferPciPKcPi
3431:__ZN20CoreScriptingClasses32IsLightmapBakeTypeSupportedByRefEiPvP21ScriptingExceptionPtr
3432:__ZN18ScriptingArguments7AddEnumEi
3433:__ZN18ScriptingArguments9AddIntPtrEPv
3434:__ZN19ScriptingInvocation6InvokeIvEET_P21ScriptingExceptionPtrb
3435:__ZN23LightmapSettingsManager19RemoveSceneSettingsEi
3436:__ZN21EnlightenSceneMapping5EraseEi
3437:__ZN16LightmapSettings15RemoveLightmapsEi
3438:__Z26ExtractAllRenderersInSceneR13dynamic_arrayIP8RendererLj0EE
3439:__Z25ExtractAllTerrainsInSceneR13dynamic_arrayIP7TerrainLj0EE
3440:__ZN6Object17FindObjectsOfTypeEPKN5Unity4TypeER13dynamic_arrayIPS_Lj0EEb
3441:__ZL31FindObjectsOfTypeImplementationPN4core8hash_setIP6ObjectNS_4hashIS2_EENSt3__28equal_toIS2_EEEEPKN5Unity4TypeER13dynamic_arrayIS2_Lj0EE
3442:__ZNSt3__26__sortIR17CompareInstanceIDPP6ObjectEEvT0_S6_T_
3443:__ZNSt3__27__sort5IR17CompareInstanceIDPP6ObjectEEjT0_S6_S6_S6_S6_T_
3444:__ZNSt3__227__insertion_sort_incompleteIR17CompareInstanceIDPP6ObjectEEbT0_S6_T_
3445:__Z14FindSceneIndexRK13dynamic_arrayI10SceneRangeLj0EEi
3446:__ZL31InitializeRendererUpdateManagerPv
3447:__ZL28CleanupRendererUpdateManagerPv
3448:__ZN21RendererUpdateManagerD2Ev
3449:__ZN10Matrix4x4f11SetIdentityEv
3450:__ZN13RuntimeStaticI17UniqueIDGeneratorLb1EE16StaticInitializeEPv
3451:__Z37InitializeIntermediateRendererManagerPv
3452:__Z34CleanupIntermediateRendererManagerPv
3453:__ZN27IntermediateRendererManagerD2Ev
3454:__ZN27IntermediateRendererManager27RemoveIntermediateRenderersEi
3455:__ZN21IntermediateRenderers5ClearEj
3456:__ZL28InitializeAsyncUploadTexturePv
3457:__ZL26ShutdownAsyncUploadTexturePv
3458:__ZN18ConcurrentFreeListI24TextureUploadInstructionE7CleanUpEv
3459:__ZN13RuntimeStaticI15DirectorManagerLb0EE16StaticInitializeEPv
3460:__ZN13RuntimeStaticI15DirectorManagerLb0EE13StaticDestroyEPv
3461:__ZN15DirectorManager14ConnectionPool8DestructEv
3462:__ZN15DirectorManager14ConnectionPool11ClearUnsafeEv
3463:__ZN15DirectorManagerD2Ev
3464:__ZN15DirectorManager12CleanupClassEv
3465:__ZNSt3__26__treeINS_12__value_typeIPvsEENS_19__map_value_compareIS2_S3_NS_4lessIS2_EELb1EEE13stl_allocatorIS3_L18MemLabelIdentifier86ELi16EEE7destroyEPNS_11__tree_nodeIS3_S2_EE
3466:__ZN15DirectorManagerC2Ev
3467:__ZN15DirectorManager15InitializeClassEv
3468:__ZZN15DirectorManager15InitializeClassEvEN40EarlyUpdateDirectorSampleTimeRegistrator7ForwardEv
3469:__ZZN15DirectorManager15InitializeClassEvEN45FixedUpdateDirectorFixedSampleTimeRegistrator7ForwardEv
3470:__ZZN15DirectorManager15InitializeClassEvEN41FixedUpdateDirectorFixedUpdateRegistrator7ForwardEv
3471:__ZZN15DirectorManager15InitializeClassEvEN52FixedUpdateDirectorFixedUpdatePostPhysicsRegistrator7ForwardEv
3472:__ZZN15DirectorManager15InitializeClassEvEN31UpdateDirectorUpdateRegistrator7ForwardEv
3473:__ZZN15DirectorManager15InitializeClassEvEN48PreLateUpdateDirectorDeferredEvaluateRegistrator7ForwardEv
3474:__ZZN15DirectorManager15InitializeClassEvEN43PostLateUpdateDirectorLateUpdateRegistrator7ForwardEv
3475:__ZZN15DirectorManager15InitializeClassEvEN44PostLateUpdateDirectorRenderImageRegistrator7ForwardEv
3476:__ZZN15DirectorManager15InitializeClassEvEN52PreLateUpdateDirectorUpdateAnimationBeginRegistrator7ForwardEv
3477:__ZZN15DirectorManager15InitializeClassEvEN50PreLateUpdateDirectorUpdateAnimationEndRegistrator7ForwardEv
3478:__ZZN15DirectorManager15InitializeClassEvEN42shutdownBeforeCleanupAllObjectsRegistrator7ForwardEv
3479:__ZZN15DirectorManager15InitializeClassEvEN32enterPlayModePreStartRegistrator7ForwardEv
3480:__ZN15DirectorManager14ConnectionPool14InitializePoolEjf
3481:__ZN17DirectorFrameTime14ResetDSPValuesEv
3482:__ZN15DirectorManager23ProcessPlayStateChangesEv
3483:__Z18FlushGraphCommandsR13dynamic_arrayI16GraphCommandPairLj0EER16MutexLockedStack
3484:__ZN13PlayableGraph12PrepareFrameE16PrepareFrameTypedyj21DirectorThreadContext
3485:__ZNK8Playable6HandleEv
3486:__ZN13PlayableGraph27SchedulePlayableDestructionERK9HPlayable
3487:__ZN13PlayableGraph23DestroyPendingPlayablesEv
3488:__ZN13PlayableGraph14DestroyOutputsEv
3489:__ZN13PlayableGraphD2Ev
3490:__ZN15DirectorManager21RebuildStageCallbacksEv
3491:__ZN15DirectorManager12RegisterJobsEP13PlayableGraph
3492:__ZNSt3__26vectorI20ProcessCallbackGroupNS_9allocatorIS1_EEE21__push_back_slow_pathIRKS1_EEvOT_
3493:__ZN14PlayableOutput7DestroyEv
3494:__ZN15DirectorManager14FreeOutputNodeEP19HPlayableOutputNode
3495:__ZN14PlayableOutput26ClearInvalidSourcePlayableEv
3496:__ZN8Playable16DisconnectInputsEPS_
3497:__ZN8Playable21DisconnectFromOutputsEPS_
3498:__ZN8Playable10DisconnectEPS_i
3499:__ZN15DirectorManager11AcquireNodeEv
3500:__ZN14PlayableOutput15PrepareTraverseERK9FrameDatai
3501:__ZN8Playable19PrepareFrameVisitorER19DirectorVisitorInfo
3502:__ZN25PreOrderPlayableTraverser8TraverseER19DirectorVisitorInfo
3503:__ZN13PlayableGraph18DisableMultithreadEv
3504:__ZN8Playable16ProcessPlayStateERK19DirectorVisitorInfo
3505:__ZN8Playable16CallOnGraphStartEv
3506:__ZN15DirectorManager29CacheScriptingMethodsForClassE17ScriptingClassPtr
3507:__ZNK15DirectorManager16GetScriptMethodsEs
3508:__ZNK15PlayableMethods20InvokeBehaviourDelayER18ScriptingObjectPtrRK9HPlayableP18ScriptingFrameData
3509:__ZNK15PlayableMethods19InvokeBehaviourPlayER18ScriptingObjectPtrRK9HPlayableP18ScriptingFrameData
3510:__ZNK15PlayableMethods20InvokeBehaviourPauseER18ScriptingObjectPtrRK9HPlayableP18ScriptingFrameData
3511:__ZN8Playable15CallOnGraphStopEv
3512:__ZNK15PlayableMethods17InvokeOnGraphStopER18ScriptingObjectPtrRK9HPlayable
3513:__ZN9Scripting29GetFirstNonGenericParentClassE17ScriptingClassPtrS0_
3514:__ZN9Scripting21GetOverrideMethodOnlyEPKc17ScriptingClassPtrS2_
3515:__ZNK15PlayableMethods18InvokeOnGraphStartER18ScriptingObjectPtrRK9HPlayable
3516:__ZN15DirectorManager20ExecutePrepareFramesE13DirectorStage
3517:__ZL19PrepareFrameJobFuncP15PrepareFrameJobj
3518:__Z26ScheduleJobForEachInternalR8JobFencePFvPvjES1_iPFvS1_E11JobPriority
3519:__ZN14PlayableOutput25FireConnectionHashChangedEv
3520:__ZN13PlayableGraph8EvaluateEdyj
3521:__ZN15DirectorManager17OnSampleFixedTimeEv
3522:__Z14GetTimeManagerv
3523:__ZN17DirectorFrameTime10SampleTimeEfffb
3524:__ZN17DirectorFrameTime21CalculateDSPDeltaTimeEv
3525:__ZN15DirectorManager12OnSampleTimeEv
3526:__ZN15DirectorManager14ConnectionPool16GrowEmptyBucketsEv
3527:__ZN15DirectorManager14ConnectionPool10CreateItemEi
3528:__ZN17CommonStringTable16StaticInitializeEPv
3529:__ZN17CommonStringTable13StaticCleanupEPv
3530:__ZN17CommonStringTableD2Ev
3531:__ZN17CommonStringTableC2E10MemLabelId
3532:__ZN15GlobalCallbacksC2Ev
3533:__ZL24CleanupPrepassRenderLoopPv
3534:__ZN16memory_pool_implILi20EE15AutoPoolWrapper10InitializeEPv
3535:__ZN16memory_pool_implILi20EE15AutoPoolWrapper12UninitializeEPv
3536:__ZN10MemoryPool24RegisterStaticMemoryPoolEPS_
3537:__ZNSt3__26vectorIP10MemoryPool13stl_allocatorIS2_L18MemLabelIdentifier76ELi16EEE21__push_back_slow_pathIRKS2_EEvOT_
3538:__ZN19CullingGroupManager15InitializeClassEPv
3539:__ZN19CullingGroupManager12CleanupClassEPv
3540:__ZN13RuntimeStaticI13RendererSceneLb0EE16StaticInitializeEPv
3541:__ZN13RuntimeStaticI13RendererSceneLb0EE13StaticDestroyEPv
3542:__ZN13RendererSceneD2Ev
3543:__ZN13RendererScene14RemoveRendererEi
3544:__ZN13RendererScene28SceneAfterCullingOutputReadyEPK9IndexListPK16RendererCullData
3545:__ZN13RendererScene16UpdateVisibilityEPK9IndexList
3546:__ZN13RuntimeStaticI13RendererSceneLb0EE10InitializeEv
3547:__ZL33CleanupCubemapGPUUtilityMaterialsPv
3548:__ZL25CleanupImageFilterGlobalsPv
3549:__ZN24MeshIntermediateRenderer16StaticInitializeEPv
3550:__ZN24MeshIntermediateRenderer13StaticDestroyEPv
3551:__ZL14CleanupShadowsPv
3552:__ZN13RuntimeStaticI20BurstCompilerServiceLb0EE16StaticInitializeEPv
3553:__ZN13RuntimeStaticI20BurstCompilerServiceLb0EE13StaticDestroyEPv
3554:__ZL44DelegateCache_InitializeRegisterDomainReloadPv
3555:__ZL25CleanupAllCachedDelegatesv
3556:__ZN13RuntimeStaticI20BurstCompilerServiceLb0EE7DestroyEv
3557:__ZN20BurstCompilerServiceC2Ev
3558:__ZL22RegisterICallWithBurstPKcPKv
3559:__Z41scripting_add_icall_registration_callbackPFvPKcPKvE
3560:__ZN4core8hash_mapINS_12basic_stringIcNS_20StringStorageDefaultIcEEEEPKvNS_4hashIS4_EENSt3__28equal_toIS4_EEEixERKS4_
3561:__Z11burst_abortPKcS0_
3562:__Z17DebugStringToFileIN4core12basic_stringIcNS0_20StringStorageDefaultIcEEEEEvRKT_iPKci15LogMessageFlagsiiPFvRK11CppLogEntryE
3563:__ZN17BaseObjectManager16StaticInitializeEPv
3564:__ZN17BaseObjectManager13StaticDestroyEPv
3565:__ZN6Object13StaticDestroyEv
3566:__ZN11TypeManager21CleanupGlobalInstanceEv
3567:__ZN11TypeManagerD2Ev
3568:__ZNSt3__26__treeINS_12__value_typeIiN11TypeManager18TypeCallbackStructEEENS_19__map_value_compareIiS4_NS_4lessIiEELb1EEENS_9allocatorIS4_EEE7destroyEPNS_11__tree_nodeIS4_PvEE
3569:__ZN11TypeManager24InitializeGlobalInstanceEv
3570:__ZN6Object16StaticInitializeEv
3571:__ZN11TypeManager12RegisterTypeERK20TypeRegistrationDesc
3572:__ZN11TypeManager36FatalErrorOnPersistentTypeIDConflictEiPKc
3573:__ZN4core8hash_mapIPKcPK4RTTIN11TypeManager23ConstCharPtrHashFunctorENS6_19ConstCharPtrEqualToEEixERKS2_
3574:__ZN13RuntimeStaticI12EventManagerLb1EE16StaticInitializeEPv
3575:__ZN13RuntimeStaticI12EventManagerLb1EE13StaticDestroyEPv
3576:__ZN13RuntimeStaticI14MessageHandlerLb0EE16StaticInitializeEPv
3577:__ZN13RuntimeStaticI14MessageHandlerLb0EE13StaticDestroyEPv
3578:__ZNSt3__213__vector_baseI16MessageForwarder13stl_allocatorIS1_L18MemLabelIdentifier7ELi8EEED2Ev
3579:__ZL39CreateRegisteredMessageIdentifiersArrayPv
3580:__ZL40DestroyRegisteredMessageIdentifiersArrayPv
3581:__ZN13RuntimeStaticI12AdsIdHandlerLb0EE16StaticInitializeEPv
3582:__ZN13RuntimeStaticI12AdsIdHandlerLb0EE13StaticDestroyEPv
3583:__ZN13RuntimeStaticI15ApplicationInfoLb0EE16StaticInitializeEPv
3584:__ZN13RuntimeStaticI15ApplicationInfoLb0EE13StaticDestroyEPv
3585:__ZN13RuntimeStaticI15ApplicationInfoLb0EE7DestroyEv
3586:__ZN12AdsIdHandlerD2Ev
3587:__ZN13RuntimeStaticI18SpriteAtlasManagerLb1EE16StaticInitializeEPv
3588:__ZZN18SpriteAtlasManagerC1E10MemLabelIdEN46EarlyUpdateSpriteAtlasManagerUpdateRegistrator7ForwardEv
3589:__ZN18SpriteAtlasManager21CleanupInvalidAtlasesEv
3590:__ZN18SpriteAtlasManager21RequestAtlasViaScriptEv
3591:__ZN13sorted_vectorIN4core12basic_stringIcNS0_20StringStorageDefaultIcEEEENSt3__24lessIS4_EE13stl_allocatorIS4_L18MemLabelIdentifier81ELi16EEE21sort_clear_duplicatesEv
3592:__ZN19ScriptingInvocation6InvokeIbEET_P21ScriptingExceptionPtrb
3593:__Z13FormatOrderedPKcz
3594:__ZL20FormatOrderedProcessPKcP17FormatOrderedDataPc
3595:__ZNSt3__213__stable_sortIRNS_4lessIN4core12basic_stringIcNS2_20StringStorageDefaultIcEEEEEENS_11__wrap_iterIPS6_EEEEvT0_SC_T_NS_15iterator_traitsISC_E15difference_typeEPNSF_10value_typeEi
3596:__Z37remove_duplicates_using_copy_internalINSt3__211__wrap_iterIPN4core12basic_stringIcNS2_20StringStorageDefaultIcEEEEEENS0_4lessIS6_EEET_SB_SB_T0_
3597:__ZNSt3__26vectorIN4core12basic_stringIcNS1_20StringStorageDefaultIcEEEE13stl_allocatorIS5_L18MemLabelIdentifier81ELi16EEE5eraseENS_11__wrap_iterIPKS5_EESD_
3598:__ZNSt3__216__insertion_sortIRNS_4lessIN4core12basic_stringIcNS2_20StringStorageDefaultIcEEEEEENS_11__wrap_iterIPS6_EEEEvT0_SC_T_
3599:__ZNSt3__218__stable_sort_moveIRNS_4lessIN4core12basic_stringIcNS2_20StringStorageDefaultIcEEEEEENS_11__wrap_iterIPS6_EEEEvT0_SC_T_NS_15iterator_traitsISC_E15difference_typeEPNSF_10value_typeE
3600:__ZNSt3__219__merge_move_assignIRNS_4lessIN4core12basic_stringIcNS2_20StringStorageDefaultIcEEEEEEPS6_S9_NS_11__wrap_iterIS9_EEEEvT0_SC_T1_SD_T2_T_
3601:__ZNSt3__215__inplace_mergeIRNS_4lessIN4core12basic_stringIcNS2_20StringStorageDefaultIcEEEEEENS_11__wrap_iterIPS6_EEEEvT0_SC_SC_T_NS_15iterator_traitsISC_E15difference_typeESG_PNSF_10value_typeEi
3602:__ZNSt3__224__buffered_inplace_mergeIRNS_4lessIN4core12basic_stringIcNS2_20StringStorageDefaultIcEEEEEENS_11__wrap_iterIPS6_EEEEvT0_SC_SC_T_NS_15iterator_traitsISC_E15difference_typeESG_PNSF_10value_typeE
3603:__ZNSt3__216__rotate_forwardINS_11__wrap_iterIPN4core12basic_stringIcNS2_20StringStorageDefaultIcEEEEEEEET_S9_S9_S9_
3604:__ZNSt3__220__half_inplace_mergeINS_4lessIN4core12basic_stringIcNS2_20StringStorageDefaultIcEEEEEEPS6_NS_11__wrap_iterIS8_EESA_EEvT0_SB_T1_SC_T2_T_
3605:__ZNSt3__220__half_inplace_mergeINS_8__negateIRNS_4lessIN4core12basic_stringIcNS3_20StringStorageDefaultIcEEEEEEEENS_16reverse_iteratorIPS7_EENSB_INS_11__wrap_iterISC_EEEESG_EEvT0_SH_T1_SI_T2_T_
3606:__ZNSt3__221__insertion_sort_moveIRNS_4lessIN4core12basic_stringIcNS2_20StringStorageDefaultIcEEEEEENS_11__wrap_iterIPS6_EEEEvT0_SC_PNS_15iterator_traitsISC_E10value_typeET_
3607:__ZNSt3__222__merge_move_constructIRNS_4lessIN4core12basic_stringIcNS2_20StringStorageDefaultIcEEEEEENS_11__wrap_iterIPS6_EESB_EEvT0_SC_T1_SD_PNS_15iterator_traitsISC_E10value_typeET_
3608:__ZN18SpriteAtlasManagerD2Ev
3609:__ZN18SpriteAtlasManagerD0Ev
3610:__ZN4core8hash_setINS_4pairIKNS_12basic_stringIcNS_20StringStorageDefaultIcEEEE13dynamic_arrayI4PPtrI6SpriteELj0EELb1EEENS_9hash_pairINS_4hashIS5_EES6_SB_EENS_10equal_pairINSt3__28equal_toIS5_EES6_SB_EEE12delete_nodesEv
3611:__Z29InitializeSortingGroupManagerPv
3612:__Z26CleanupSortingGroupManagerPv
3613:__ZZ29InitializeSortingGroupManagerPvEN44PostLateUpdateSortingGroupsUpdateRegistrator7ForwardEv
3614:__ZN19SortingGroupManager6UpdateEv
3615:__ZNK9Transform11GetPositionEv
3616:__ZN6prcoreL17RemapGenericFloatI15TexFormatRFloat16TexFormatRGFloatEEvPKNS_9InnerInfoE
3617:__ZN6prcoreL17RemapGenericFloatI15TexFormatRFloat17TexFormatRGBFloatEEvPKNS_9InnerInfoE
3618:__ZN6prcoreL17RemapGenericFloatI15TexFormatRFloat18TexFormatRGBAFloatEEvPKNS_9InnerInfoE
3619:__ZN6prcoreL17RemapGenericFloatI15TexFormatRFloat18TexFormatARGBFloatEEvPKNS_9InnerInfoE
3620:__ZN6prcoreL17RemapGenericFloatI15TexFormatRFloat14TexFormatRHalfEEvPKNS_9InnerInfoE
3621:__ZN6prcoreL17RemapGenericFloatI15TexFormatRFloat15TexFormatRGHalfEEvPKNS_9InnerInfoE
3622:__ZN6prcoreL17RemapGenericFloatI15TexFormatRFloat17TexFormatRGBAHalfEEvPKNS_9InnerInfoE
3623:__ZN6prcoreL17RemapGenericFloatI16TexFormatRGFloat15TexFormatRFloatEEvPKNS_9InnerInfoE
3624:__ZN6prcoreL17RemapGenericFloatI16TexFormatRGFloat17TexFormatRGBFloatEEvPKNS_9InnerInfoE
3625:__ZN6prcoreL17RemapGenericFloatI16TexFormatRGFloat18TexFormatRGBAFloatEEvPKNS_9InnerInfoE
3626:__ZN6prcoreL17RemapGenericFloatI16TexFormatRGFloat18TexFormatARGBFloatEEvPKNS_9InnerInfoE
3627:__ZN6prcoreL17RemapGenericFloatI16TexFormatRGFloat14TexFormatRHalfEEvPKNS_9InnerInfoE
3628:__ZN6prcoreL17RemapGenericFloatI16TexFormatRGFloat15TexFormatRGHalfEEvPKNS_9InnerInfoE
3629:__ZN6prcoreL17RemapGenericFloatI16TexFormatRGFloat17TexFormatRGBAHalfEEvPKNS_9InnerInfoE
3630:__ZN6prcoreL17RemapGenericFloatI17TexFormatRGBFloat15TexFormatRFloatEEvPKNS_9InnerInfoE
3631:__ZN6prcoreL17RemapGenericFloatI17TexFormatRGBFloat16TexFormatRGFloatEEvPKNS_9InnerInfoE
3632:__ZN6prcoreL17RemapGenericFloatI17TexFormatRGBFloat18TexFormatRGBAFloatEEvPKNS_9InnerInfoE
3633:__ZN6prcoreL17RemapGenericFloatI17TexFormatRGBFloat18TexFormatARGBFloatEEvPKNS_9InnerInfoE
3634:__ZN6prcoreL17RemapGenericFloatI17TexFormatRGBFloat14TexFormatRHalfEEvPKNS_9InnerInfoE
3635:__ZN6prcoreL17RemapGenericFloatI17TexFormatRGBFloat15TexFormatRGHalfEEvPKNS_9InnerInfoE
3636:__ZN6prcoreL17RemapGenericFloatI17TexFormatRGBFloat17TexFormatRGBAHalfEEvPKNS_9InnerInfoE
3637:__ZN6prcoreL17RemapGenericFloatI18TexFormatRGBAFloat15TexFormatRFloatEEvPKNS_9InnerInfoE
3638:__ZN6prcoreL17RemapGenericFloatI18TexFormatRGBAFloat16TexFormatRGFloatEEvPKNS_9InnerInfoE
3639:__ZN6prcoreL17RemapGenericFloatI18TexFormatRGBAFloat17TexFormatRGBFloatEEvPKNS_9InnerInfoE
3640:__ZN6prcoreL17RemapGenericFloatI18TexFormatRGBAFloat18TexFormatARGBFloatEEvPKNS_9InnerInfoE
3641:__ZN6prcoreL17RemapGenericFloatI18TexFormatRGBAFloat14TexFormatRHalfEEvPKNS_9InnerInfoE
3642:__ZN6prcoreL17RemapGenericFloatI18TexFormatRGBAFloat15TexFormatRGHalfEEvPKNS_9InnerInfoE
3643:__ZN6prcoreL17RemapGenericFloatI18TexFormatRGBAFloat17TexFormatRGBAHalfEEvPKNS_9InnerInfoE
3644:__ZN6prcoreL17RGBAFloatToRGB9e5EPKNS_9InnerInfoE
3645:__ZN6prcoreL17RemapGenericFloatI18TexFormatARGBFloat15TexFormatRFloatEEvPKNS_9InnerInfoE
3646:__ZN6prcoreL17RemapGenericFloatI18TexFormatARGBFloat16TexFormatRGFloatEEvPKNS_9InnerInfoE
3647:__ZN6prcoreL17RemapGenericFloatI18TexFormatARGBFloat17TexFormatRGBFloatEEvPKNS_9InnerInfoE
3648:__ZN6prcoreL17RemapGenericFloatI18TexFormatARGBFloat18TexFormatRGBAFloatEEvPKNS_9InnerInfoE
3649:__ZN6prcoreL17RemapGenericFloatI18TexFormatARGBFloat14TexFormatRHalfEEvPKNS_9InnerInfoE
3650:__ZN6prcoreL17RemapGenericFloatI18TexFormatARGBFloat15TexFormatRGHalfEEvPKNS_9InnerInfoE
3651:__ZN6prcoreL17RemapGenericFloatI18TexFormatARGBFloat17TexFormatRGBAHalfEEvPKNS_9InnerInfoE
3652:__ZN6prcoreL17RemapGenericFloatI14TexFormatRHalf15TexFormatRFloatEEvPKNS_9InnerInfoE
3653:__ZN6prcoreL17RemapGenericFloatI14TexFormatRHalf16TexFormatRGFloatEEvPKNS_9InnerInfoE
3654:__ZN6prcoreL17RemapGenericFloatI14TexFormatRHalf17TexFormatRGBFloatEEvPKNS_9InnerInfoE
3655:__ZN6prcoreL17RemapGenericFloatI14TexFormatRHalf18TexFormatRGBAFloatEEvPKNS_9InnerInfoE
3656:__ZN6prcoreL17RemapGenericFloatI14TexFormatRHalf18TexFormatARGBFloatEEvPKNS_9InnerInfoE
3657:__ZN6prcoreL17RemapGenericFloatI14TexFormatRHalf15TexFormatRGHalfEEvPKNS_9InnerInfoE
3658:__ZN6prcoreL17RemapGenericFloatI14TexFormatRHalf17TexFormatRGBAHalfEEvPKNS_9InnerInfoE
3659:__ZN6prcoreL17RemapGenericFloatI15TexFormatRGHalf15TexFormatRFloatEEvPKNS_9InnerInfoE
3660:__ZN6prcoreL17RemapGenericFloatI15TexFormatRGHalf16TexFormatRGFloatEEvPKNS_9InnerInfoE
3661:__ZN6prcoreL17RemapGenericFloatI15TexFormatRGHalf17TexFormatRGBFloatEEvPKNS_9InnerInfoE
3662:__ZN6prcoreL17RemapGenericFloatI15TexFormatRGHalf18TexFormatRGBAFloatEEvPKNS_9InnerInfoE
3663:__ZN6prcoreL17RemapGenericFloatI15TexFormatRGHalf18TexFormatARGBFloatEEvPKNS_9InnerInfoE
3664:__ZN6prcoreL17RemapGenericFloatI15TexFormatRGHalf14TexFormatRHalfEEvPKNS_9InnerInfoE
3665:__ZN6prcoreL17RemapGenericFloatI15TexFormatRGHalf17TexFormatRGBAHalfEEvPKNS_9InnerInfoE
3666:__ZN6prcoreL17RemapGenericFloatI17TexFormatRGBAHalf15TexFormatRFloatEEvPKNS_9InnerInfoE
3667:__ZN6prcoreL17RemapGenericFloatI17TexFormatRGBAHalf16TexFormatRGFloatEEvPKNS_9InnerInfoE
3668:__ZN6prcoreL17RemapGenericFloatI17TexFormatRGBAHalf17TexFormatRGBFloatEEvPKNS_9InnerInfoE
3669:__ZN6prcoreL17RemapGenericFloatI17TexFormatRGBAHalf18TexFormatRGBAFloatEEvPKNS_9InnerInfoE
3670:__ZN6prcoreL17RemapGenericFloatI17TexFormatRGBAHalf18TexFormatARGBFloatEEvPKNS_9InnerInfoE
3671:__ZN6prcoreL17RemapGenericFloatI17TexFormatRGBAHalf14TexFormatRHalfEEvPKNS_9InnerInfoE
3672:__ZN6prcoreL17RemapGenericFloatI17TexFormatRGBAHalf15TexFormatRGHalfEEvPKNS_9InnerInfoE
3673:__ZN6prcoreL17RGB9e5ToRGBAFloatEPKNS_9InnerInfoE
3674:__ZN6prcoreL27StretchGenericFloatBilinearI15TexFormatRFloatEEvPKNS_9InnerInfoE
3675:__ZN6prcoreL27StretchGenericFloatBilinearI16TexFormatRGFloatEEvPKNS_9InnerInfoE
3676:__ZN6prcoreL27StretchGenericFloatBilinearI17TexFormatRGBFloatEEvPKNS_9InnerInfoE
3677:__ZN6prcoreL27StretchGenericFloatBilinearI18TexFormatRGBAFloatEEvPKNS_9InnerInfoE
3678:__ZN6prcoreL27StretchGenericFloatBilinearI14TexFormatRHalfEEvPKNS_9InnerInfoE
3679:__ZN6prcoreL27StretchGenericFloatBilinearI15TexFormatRGHalfEEvPKNS_9InnerInfoE
3680:__ZN6prcoreL27StretchGenericFloatBilinearI17TexFormatRGBAHalfEEvPKNS_9InnerInfoE
3681:__ZN6prcoreL21StretchRGB9e5BilinearEPKNS_9InnerInfoE
3682:__ZN6prcoreL26RemapGenericIntegerToFloatI17TexFormatARGB888815TexFormatRFloatEEvPKNS_9InnerInfoE
3683:__ZN6prcoreL26RemapGenericIntegerToFloatI17TexFormatARGB888816TexFormatRGFloatEEvPKNS_9InnerInfoE
3684:__ZN6prcoreL26RemapGenericIntegerToFloatI17TexFormatARGB888817TexFormatRGBFloatEEvPKNS_9InnerInfoE
3685:__ZN6prcoreL26RemapGenericIntegerToFloatI17TexFormatARGB888818TexFormatRGBAFloatEEvPKNS_9InnerInfoE
3686:__ZN6prcoreL26RemapGenericIntegerToFloatI17TexFormatARGB888818TexFormatARGBFloatEEvPKNS_9InnerInfoE
3687:__ZN6prcoreL26RemapGenericIntegerToFloatI17TexFormatARGB888814TexFormatRHalfEEvPKNS_9InnerInfoE
3688:__ZN6prcoreL26RemapGenericIntegerToFloatI17TexFormatARGB888815TexFormatRGHalfEEvPKNS_9InnerInfoE
3689:__ZN6prcoreL26RemapGenericIntegerToFloatI17TexFormatARGB888817TexFormatRGBAHalfEEvPKNS_9InnerInfoE
3690:__ZN6prcoreL16ARGB8888ToRGB9e5EPKNS_9InnerInfoE
3691:__ZN6prcoreL26RemapGenericFloatToIntegerI15TexFormatRFloat17TexFormatARGB8888EEvPKNS_9InnerInfoE
3692:__ZN6prcoreL26RemapGenericFloatToIntegerI16TexFormatRGFloat17TexFormatARGB8888EEvPKNS_9InnerInfoE
3693:__ZN6prcoreL26RemapGenericFloatToIntegerI17TexFormatRGBFloat17TexFormatARGB8888EEvPKNS_9InnerInfoE
3694:__ZN6prcoreL26RemapGenericFloatToIntegerI18TexFormatRGBAFloat17TexFormatARGB8888EEvPKNS_9InnerInfoE
3695:__ZN6prcoreL26RemapGenericFloatToIntegerI18TexFormatARGBFloat17TexFormatARGB8888EEvPKNS_9InnerInfoE
3696:__ZN6prcoreL26RemapGenericFloatToIntegerI14TexFormatRHalf17TexFormatARGB8888EEvPKNS_9InnerInfoE
3697:__ZN6prcoreL26RemapGenericFloatToIntegerI15TexFormatRGHalf17TexFormatARGB8888EEvPKNS_9InnerInfoE
3698:__ZN6prcoreL26RemapGenericFloatToIntegerI17TexFormatRGBAHalf17TexFormatARGB8888EEvPKNS_9InnerInfoE
3699:__ZN6prcoreL16RGB9e5ToARGB8888EPKNS_9InnerInfoE
3700:__ZN6prcoreL12RemapGenericI17TexFormatARGB888811TexFormatI8EEvPKNS_9InnerInfoE
3701:__ZN6prcoreL12RemapGenericI17TexFormatARGB888811TexFormatA8EEvPKNS_9InnerInfoE
3702:__ZN6prcoreL12RemapGenericI17TexFormatARGB888815TexFormatRGB565EEvPKNS_9InnerInfoE
3703:__ZN6prcoreL12RemapGenericI17TexFormatARGB888815TexFormatRGB888EEvPKNS_9InnerInfoE
3704:__ZN6prcoreL12RemapGenericI17TexFormatARGB888817TexFormatARGB1555EEvPKNS_9InnerInfoE
3705:__ZN6prcoreL12RemapGenericI17TexFormatARGB888817TexFormatARGB4444EEvPKNS_9InnerInfoE
3706:__ZN6prcoreL12RemapGenericI17TexFormatARGB888815TexFormatBGR888EEvPKNS_9InnerInfoE
3707:__ZN6prcoreL12RemapGenericI17TexFormatARGB888817TexFormatABGR8888EEvPKNS_9InnerInfoE
3708:__ZN6prcoreL12RemapGenericI17TexFormatARGB888817TexFormatRGBA4444EEvPKNS_9InnerInfoE
3709:__ZN6prcoreL12RemapGenericI17TexFormatARGB888817TexFormatBGRA8888EEvPKNS_9InnerInfoE
3710:__ZN6prcoreL12RemapGenericI17TexFormatARGB888817TexFormatRGBA8888EEvPKNS_9InnerInfoE
3711:__ZN6prcoreL12RemapGenericI17TexFormatARGB888811TexFormatR8EEvPKNS_9InnerInfoE
3712:__ZN6prcoreL12RemapGenericI17TexFormatARGB888813TexFormatRG88EEvPKNS_9InnerInfoE
3713:__ZN6prcoreL12RemapGenericI11TexFormatI817TexFormatARGB8888EEvPKNS_9InnerInfoE
3714:__ZN6prcoreL12RemapGenericI11TexFormatI815TexFormatRGB565EEvPKNS_9InnerInfoE
3715:__ZN6prcoreL12RemapGenericI11TexFormatI815TexFormatRGB888EEvPKNS_9InnerInfoE
3716:__ZN6prcoreL12RemapGenericI11TexFormatI817TexFormatARGB4444EEvPKNS_9InnerInfoE
3717:__ZN6prcoreL12RemapGenericI11TexFormatA817TexFormatARGB8888EEvPKNS_9InnerInfoE
3718:__ZN6prcoreL12RemapGenericI15TexFormatRGB56517TexFormatARGB8888EEvPKNS_9InnerInfoE
3719:__ZN6prcoreL12RemapGenericI15TexFormatRGB56511TexFormatI8EEvPKNS_9InnerInfoE
3720:__ZN6prcoreL12RemapGenericI15TexFormatRGB56515TexFormatRGB888EEvPKNS_9InnerInfoE
3721:__ZN6prcoreL12RemapGenericI15TexFormatRGB56517TexFormatARGB4444EEvPKNS_9InnerInfoE
3722:__ZN6prcoreL12RemapGenericI15TexFormatRGB56515TexFormatBGR888EEvPKNS_9InnerInfoE
3723:__ZN6prcoreL12RemapGenericI15TexFormatRGB88817TexFormatARGB8888EEvPKNS_9InnerInfoE
3724:__ZN6prcoreL12RemapGenericI15TexFormatRGB88811TexFormatI8EEvPKNS_9InnerInfoE
3725:__ZN6prcoreL12RemapGenericI15TexFormatRGB88815TexFormatRGB565EEvPKNS_9InnerInfoE
3726:__ZN6prcoreL12RemapGenericI15TexFormatRGB88817TexFormatARGB4444EEvPKNS_9InnerInfoE
3727:__ZN6prcoreL12RemapGenericI17TexFormatARGB155517TexFormatARGB8888EEvPKNS_9InnerInfoE
3728:__ZN6prcoreL12RemapGenericI17TexFormatARGB155517TexFormatRGBA8888EEvPKNS_9InnerInfoE
3729:__ZN6prcoreL12RemapGenericI17TexFormatARGB444417TexFormatARGB8888EEvPKNS_9InnerInfoE
3730:__ZN6prcoreL12RemapGenericI17TexFormatARGB444411TexFormatI8EEvPKNS_9InnerInfoE
3731:__ZN6prcoreL12RemapGenericI17TexFormatARGB444415TexFormatRGB565EEvPKNS_9InnerInfoE
3732:__ZN6prcoreL12RemapGenericI17TexFormatARGB444415TexFormatRGB888EEvPKNS_9InnerInfoE
3733:__ZN6prcoreL12RemapGenericI17TexFormatARGB444417TexFormatABGR8888EEvPKNS_9InnerInfoE
3734:__ZN6prcoreL12RemapGenericI15TexFormatBGR88817TexFormatARGB8888EEvPKNS_9InnerInfoE
3735:__ZN6prcoreL12RemapGenericI17TexFormatABGR888817TexFormatARGB8888EEvPKNS_9InnerInfoE
3736:__ZN6prcoreL12RemapGenericI17TexFormatRGBA444417TexFormatARGB8888EEvPKNS_9InnerInfoE
3737:__ZN6prcoreL12RemapGenericI17TexFormatRGBA444417TexFormatABGR8888EEvPKNS_9InnerInfoE
3738:__ZN6prcoreL12RemapGenericI17TexFormatBGRA888817TexFormatABGR8888EEvPKNS_9InnerInfoE
3739:__ZN6prcoreL12RemapGenericI17TexFormatRGBA888817TexFormatARGB8888EEvPKNS_9InnerInfoE
3740:__ZN6prcoreL12RemapGenericI17TexFormatRGBA888817TexFormatARGB1555EEvPKNS_9InnerInfoE
3741:__ZN6prcoreL12RemapGenericI11TexFormatR817TexFormatARGB8888EEvPKNS_9InnerInfoE
3742:__ZN6prcoreL12RemapGenericI13TexFormatRG8817TexFormatARGB8888EEvPKNS_9InnerInfoE
3743:__ZN6prcoreL13inner_stretchILj1ELj1EEEvPKNS_9InnerInfoE
3744:__ZN6prcoreL13inner_stretchILj2ELj2EEEvPKNS_9InnerInfoE
3745:__ZN6prcoreL13inner_stretchILj3ELj3EEEvPKNS_9InnerInfoE
3746:__ZN6prcoreL13inner_stretchILj4ELj4EEEvPKNS_9InnerInfoE
3747:__ZN6prcoreL31inner_stretch_argb8888_bilinearEPKNS_9InnerInfoE
3748:__ZN6prcoreL25inner_stretch_i8_bilinearEPKNS_9InnerInfoE
3749:__ZN6prcoreL29inner_stretch_rgb565_bilinearEPKNS_9InnerInfoE
3750:__ZN6prcoreL29inner_stretch_rgb888_bilinearEPKNS_9InnerInfoE
3751:__ZN6prcoreL31inner_stretch_argb4444_bilinearEPKNS_9InnerInfoE
3752:__ZN6prcoreL27inner_stretch_rg88_bilinearEPKNS_9InnerInfoE
3753:__Z16rgb9e5_to_float36rgb9e5P10ColorRGBAf
3754:__Z16float3_to_rgb9e5RK10ColorRGBAfP6rgb9e5
3755:__ZN17ScriptingGCHandle7AcquireE18ScriptingObjectPtr25ScriptingGCHandleWeakness
3756:__ZL50__ManagedRegistrationHelperFunction_AllocatorProxyPv
3757:__ZL75__ManagedRegistrationHelperFunction_DeallocateOnJobCompletionAttributeProxyPv
3758:__ZL65__ManagedRegistrationHelperFunction_NativeContainerAttributeProxyPv
3759:__ZL82__ManagedRegistrationHelperFunction_NativeContainerIsAtomicWriteOnlyAttributeProxyPv
3760:__ZL75__ManagedRegistrationHelperFunction_NativeContainerIsReadOnlyAttributeProxyPv
3761:__ZL81__ManagedRegistrationHelperFunction_NativeContainerNeedsThreadIndexAttributeProxyPv
3762:__ZL98__ManagedRegistrationHelperFunction_NativeContainerSupportsDeallocateOnJobCompletionAttributeProxyPv
3763:__ZL90__ManagedRegistrationHelperFunction_NativeContainerSupportsDeferredConvertListToArrayProxyPv
3764:__ZL95__ManagedRegistrationHelperFunction_NativeContainerSupportsMinMaxWriteRestrictionAttributeProxyPv
3765:__ZL89__ManagedRegistrationHelperFunction_NativeDisableContainerSafetyRestrictionAttributeProxyPv
3766:__ZL83__ManagedRegistrationHelperFunction_NativeDisableUnsafePtrRestrictionAttributeProxyPv
3767:__ZL84__ManagedRegistrationHelperFunction_NativeSetClassTypeToNullOnScheduleAttributeProxyPv
3768:__ZL70__ManagedRegistrationHelperFunction_NativeSetThreadIndexAttributeProxyPv
3769:__ZL85__ManagedRegistrationHelperFunction_NativeDisableParallelForRestrictionAttributeProxyPv
3770:__ZL67__ManagedRegistrationHelperFunction_NativeFixedLengthAttributeProxyPv
3771:__ZL80__ManagedRegistrationHelperFunction_NativeMatchesParallelForLengthAttributeProxyPv
3772:__ZL58__ManagedRegistrationHelperFunction_ReadOnlyAttributeProxyPv
3773:__ZL59__ManagedRegistrationHelperFunction_WriteOnlyAttributeProxyPv
3774:__ZL55__ManagedRegistrationHelperFunction_AnimationCurveProxyPv
3775:__ZL52__ManagedRegistrationHelperFunction_ApplicationProxyPv
3776:__ZL65__ManagedRegistrationHelperFunction_AssemblyIsEditorAssemblyProxyPv
3777:__ZL57__ManagedRegistrationHelperFunction_YieldInstructionProxyPv
3778:__ZL55__ManagedRegistrationHelperFunction_AsyncOperationProxyPv
3779:__ZL62__ManagedRegistrationHelperFunction_AttributeHelperEngineProxyPv
3780:__ZL47__ManagedRegistrationHelperFunction_ObjectProxyPv
3781:__ZL50__ManagedRegistrationHelperFunction_ComponentProxyPv
3782:__ZL50__ManagedRegistrationHelperFunction_BehaviourProxyPv
3783:__ZL51__ManagedRegistrationHelperFunction_BoneWeightProxyPv
3784:__ZL55__ManagedRegistrationHelperFunction_BootConfigDataProxyPv
3785:__ZL48__ManagedRegistrationHelperFunction_Vector3ProxyPv
3786:__ZL47__ManagedRegistrationHelperFunction_BoundsProxyPv
3787:__ZL50__ManagedRegistrationHelperFunction_BoundsIntProxyPv
3788:__ZL58__ManagedRegistrationHelperFunction_CachedAssetBundleProxyPv
3789:__ZL51__ManagedRegistrationHelperFunction_CacheIndexProxyPv
3790:__ZL47__ManagedRegistrationHelperFunction_CameraProxyPv
3791:__ZL64__ManagedRegistrationHelperFunction_ClassLibraryInitializerProxyPv
3792:__ZL46__ManagedRegistrationHelperFunction_ColorProxyPv
3793:__ZL48__ManagedRegistrationHelperFunction_Color32ProxyPv
3794:__ZL51__ManagedRegistrationHelperFunction_ColorGamutProxyPv
3795:__ZL54__ManagedRegistrationHelperFunction_ComputeBufferProxyPv
3796:__ZL52__ManagedRegistrationHelperFunction_ContextMenuProxyPv
3797:__ZL50__ManagedRegistrationHelperFunction_CoroutineProxyPv
3798:__ZL48__ManagedRegistrationHelperFunction_TextureProxyPv
3799:__ZL48__ManagedRegistrationHelperFunction_CubemapProxyPv
3800:__ZL53__ManagedRegistrationHelperFunction_CullingGroupProxyPv
3801:__ZL54__ManagedRegistrationHelperFunction_RenderTextureProxyPv
3802:__ZL60__ManagedRegistrationHelperFunction_CustomRenderTextureProxyPv
3803:__ZL70__ManagedRegistrationHelperFunction_CustomRenderTextureUpdateZoneProxyPv
3804:__ZL62__ManagedRegistrationHelperFunction_DefaultExecutionOrderProxyPv
3805:__ZL57__ManagedRegistrationHelperFunction_DiagnosticSwitchProxyPv
3806:__ZL48__ManagedRegistrationHelperFunction_DisplayProxyPv
3807:__ZL49__ManagedRegistrationHelperFunction_EnumInfoProxyPv
3808:__ZL55__ManagedRegistrationHelperFunction_UnityEventBaseProxyPv
3809:__ZL51__ManagedRegistrationHelperFunction_UnityEventProxyPv
3810:__ZL74__ManagedRegistrationHelperFunction_ExcludeFromObjectFactoryAttributeProxyPv
3811:__ZL67__ManagedRegistrationHelperFunction_ExcludeFromPresetAttributeProxyPv
3812:__ZL52__ManagedRegistrationHelperFunction_LightDataGIProxyPv
3813:__ZL53__ManagedRegistrationHelperFunction_LightmappingProxyPv
3814:__ZL65__ManagedRegistrationHelperFunction_PlayerLoopSystemInternalProxyPv
3815:__ZL55__ManagedRegistrationHelperFunction_CameraPlayableProxyPv
3816:__ZL63__ManagedRegistrationHelperFunction_MaterialEffectPlayableProxyPv
3817:__ZL61__ManagedRegistrationHelperFunction_TextureMixerPlayableProxyPv
3818:__ZL62__ManagedRegistrationHelperFunction_TexturePlayableOutputProxyPv
3819:__ZL52__ManagedRegistrationHelperFunction_EarlyUpdateProxyPv
3820:__ZL52__ManagedRegistrationHelperFunction_FixedUpdateProxyPv
3821:__ZL55__ManagedRegistrationHelperFunction_InitializationProxyPv
3822:__ZL55__ManagedRegistrationHelperFunction_PostLateUpdateProxyPv
3823:__ZL54__ManagedRegistrationHelperFunction_PreLateUpdateProxyPv
3824:__ZL50__ManagedRegistrationHelperFunction_PreUpdateProxyPv
3825:__ZL47__ManagedRegistrationHelperFunction_UpdateProxyPv
3826:__ZL57__ManagedRegistrationHelperFunction_CameraPropertiesProxyPv
3827:__ZL57__ManagedRegistrationHelperFunction_CoreCameraValuesProxyPv
3828:__ZL52__ManagedRegistrationHelperFunction_CullResultsProxyPv
3829:__ZL60__ManagedRegistrationHelperFunction_DrawShadowsSettingsProxyPv
3830:__ZL62__ManagedRegistrationHelperFunction_RenderPipelineManagerProxyPv
3831:__ZL68__ManagedRegistrationHelperFunction_ScriptableCullingParametersProxyPv
3832:__ZL56__ManagedRegistrationHelperFunction_ShadowSplitDataProxyPv
3833:__ZL67__ManagedRegistrationHelperFunction_SupportedRenderingFeaturesProxyPv
3834:__ZL53__ManagedRegistrationHelperFunction_VisibleLightProxyPv
3835:__ZL63__ManagedRegistrationHelperFunction_VisibleReflectionProbeProxyPv
3836:__ZL51__ManagedRegistrationHelperFunction_SpriteBoneProxyPv
3837:__ZL65__ManagedRegistrationHelperFunction_FailedToLoadScriptObjectProxyPv
3838:__ZL51__ManagedRegistrationHelperFunction_GameObjectProxyPv
3839:__ZL49__ManagedRegistrationHelperFunction_GradientProxyPv
3840:__ZL57__ManagedRegistrationHelperFunction_GradientAlphaKeyProxyPv
3841:__ZL57__ManagedRegistrationHelperFunction_GradientColorKeyProxyPv
3842:__ZL48__ManagedRegistrationHelperFunction_Hash128ProxyPv
3843:__ZL57__ManagedRegistrationHelperFunction_HelpURLAttributeProxyPv
3844:__ZL56__ManagedRegistrationHelperFunction_HideInInspectorProxyPv
3845:__ZL62__ManagedRegistrationHelperFunction_ImageEffectAfterScaleProxyPv
3846:__ZL58__ManagedRegistrationHelperFunction_ImageEffectOpaqueProxyPv
3847:__ZL67__ManagedRegistrationHelperFunction_ImageEffectTransformsToLDRProxyPv
3848:__ZL49__ManagedRegistrationHelperFunction_KeyframeProxyPv
3849:__ZL50__ManagedRegistrationHelperFunction_LayerMaskProxyPv
3850:__ZL53__ManagedRegistrationHelperFunction_LightmapDataProxyPv
3851:__ZL44__ManagedRegistrationHelperFunction_LODProxyPv
3852:__ZL60__ManagedRegistrationHelperFunction_LowerResBlitTextureProxyPv
3853:__ZL61__ManagedRegistrationHelperFunction_ManagedStreamHelpersProxyPv
3854:__ZL49__ManagedRegistrationHelperFunction_MaterialProxyPv
3855:__ZL50__ManagedRegistrationHelperFunction_Matrix4x4ProxyPv
3856:__ZL45__ManagedRegistrationHelperFunction_MeshProxyPv
3857:__ZL51__ManagedRegistrationHelperFunction_MeshFilterProxyPv
3858:__ZL49__ManagedRegistrationHelperFunction_RendererProxyPv
3859:__ZL53__ManagedRegistrationHelperFunction_MeshRendererProxyPv
3860:__ZL54__ManagedRegistrationHelperFunction_MonoBehaviourProxyPv
3861:__ZL57__ManagedRegistrationHelperFunction_ScriptableObjectProxyPv
3862:__ZL57__ManagedRegistrationHelperFunction_PlayerConnectionProxyPv
3863:__ZL46__ManagedRegistrationHelperFunction_PlaneProxyPv
3864:__ZL49__ManagedRegistrationHelperFunction_PlayableProxyPv
3865:__ZL54__ManagedRegistrationHelperFunction_PlayableAssetProxyPv
3866:__ZL58__ManagedRegistrationHelperFunction_PlayableBehaviourProxyPv
3867:__ZL54__ManagedRegistrationHelperFunction_PlayableGraphProxyPv
3868:__ZL55__ManagedRegistrationHelperFunction_PlayableHandleProxyPv
3869:__ZL55__ManagedRegistrationHelperFunction_PlayableOutputProxyPv
3870:__ZL61__ManagedRegistrationHelperFunction_PlayableOutputHandleProxyPv
3871:__ZL61__ManagedRegistrationHelperFunction_ScriptPlayableOutputProxyPv
3872:__ZL66__ManagedRegistrationHelperFunction_PreferBinarySerializationProxyPv
3873:__ZL52__ManagedRegistrationHelperFunction_PreloadDataProxyPv
3874:__ZL48__ManagedRegistrationHelperFunction_SamplerProxyPv
3875:__ZL54__ManagedRegistrationHelperFunction_CustomSamplerProxyPv
3876:__ZL49__ManagedRegistrationHelperFunction_ProfilerProxyPv
3877:__ZL49__ManagedRegistrationHelperFunction_RecorderProxyPv
3878:__ZL53__ManagedRegistrationHelperFunction_PropertyNameProxyPv
3879:__ZL51__ManagedRegistrationHelperFunction_QuaternionProxyPv
3880:__ZL45__ManagedRegistrationHelperFunction_RectProxyPv
3881:__ZL48__ManagedRegistrationHelperFunction_RectIntProxyPv
3882:__ZL51__ManagedRegistrationHelperFunction_RectOffsetProxyPv
3883:__ZL50__ManagedRegistrationHelperFunction_TransformProxyPv
3884:__ZL54__ManagedRegistrationHelperFunction_RectTransformProxyPv
3885:__ZL56__ManagedRegistrationHelperFunction_ReflectionProbeProxyPv
3886:__ZL64__ManagedRegistrationHelperFunction_AsyncGPUReadbackRequestProxyPv
3887:__ZL54__ManagedRegistrationHelperFunction_CommandBufferProxyPv
3888:__ZL49__ManagedRegistrationHelperFunction_GPUFenceProxyPv
3889:__ZL59__ManagedRegistrationHelperFunction_GraphicsDeviceTypeProxyPv
3890:__ZL59__ManagedRegistrationHelperFunction_PlatformKeywordSetProxyPv
3891:__ZL65__ManagedRegistrationHelperFunction_ReflectionProbeBlendInfoProxyPv
3892:__ZL54__ManagedRegistrationHelperFunction_ShaderKeywordProxyPv
3893:__ZL57__ManagedRegistrationHelperFunction_ShaderKeywordSetProxyPv
3894:__ZL61__ManagedRegistrationHelperFunction_SphericalHarmonicsL2ProxyPv
3895:__ZL51__ManagedRegistrationHelperFunction_ResolutionProxyPv
3896:__ZL56__ManagedRegistrationHelperFunction_ResourceRequestProxyPv
3897:__ZL53__ManagedRegistrationHelperFunction_SceneManagerProxyPv
3898:__ZL56__ManagedRegistrationHelperFunction_SendMouseEventsProxyPv
3899:__ZL70__ManagedRegistrationHelperFunction_FormerlySerializedAsAttributeProxyPv
3900:__ZL55__ManagedRegistrationHelperFunction_SerializeFieldProxyPv
3901:__ZL66__ManagedRegistrationHelperFunction_SerializePrivateVariablesProxyPv
3902:__ZL55__ManagedRegistrationHelperFunction_SetupCoroutineProxyPv
3903:__ZL47__ManagedRegistrationHelperFunction_SpriteProxyPv
3904:__ZL58__ManagedRegistrationHelperFunction_StackTraceUtilityProxyPv
3905:__ZL50__ManagedRegistrationHelperFunction_Texture2DProxyPv
3906:__ZL55__ManagedRegistrationHelperFunction_Texture2DArrayProxyPv
3907:__ZL50__ManagedRegistrationHelperFunction_Texture3DProxyPv
3908:__ZL57__ManagedRegistrationHelperFunction_TrackedReferenceProxyPv
3909:__ZL59__ManagedRegistrationHelperFunction_SpriteAtlasManagerProxyPv
3910:__ZL55__ManagedRegistrationHelperFunction_UnityExceptionProxyPv
3911:__ZL68__ManagedRegistrationHelperFunction_UnitySynchronizationContextProxyPv
3912:__ZL48__ManagedRegistrationHelperFunction_Vector2ProxyPv
3913:__ZL51__ManagedRegistrationHelperFunction_Vector2IntProxyPv
3914:__ZL51__ManagedRegistrationHelperFunction_Vector3IntProxyPv
3915:__ZL48__ManagedRegistrationHelperFunction_Vector4ProxyPv
3916:__ZL58__ManagedRegistrationHelperFunction_WaitForEndOfFrameProxyPv
3917:__ZL59__ManagedRegistrationHelperFunction_WaitForFixedUpdateProxyPv
3918:__ZL55__ManagedRegistrationHelperFunction_WaitForSecondsProxyPv
3919:__ZN9Scripting11UnityEngine19WaitForSecondsProxy9InitProxyEv
3920:__ZN9Scripting11UnityEngine19WaitForSecondsProxy12CleanupProxyEv
3921:__ZN35ScriptingManagedObjectProxyRegistry13RegisterProxyEPKcPFvvES3_
3922:__Z19scripting_array_new17ScriptingClassPtrjj
3923:__ZN17ScriptingGCHandle13AcquireStrongE18ScriptingObjectPtr
3924:__ZN9Scripting11UnityEngine23WaitForFixedUpdateProxy9InitProxyEv
3925:__ZN9Scripting11UnityEngine23WaitForFixedUpdateProxy12CleanupProxyEv
3926:__ZN9Scripting11UnityEngine22WaitForEndOfFrameProxy9InitProxyEv
3927:__ZN9Scripting11UnityEngine22WaitForEndOfFrameProxy12CleanupProxyEv
3928:__ZN9Scripting11UnityEngine12Vector4Proxy9InitProxyEv
3929:__ZN9Scripting11UnityEngine12Vector4Proxy12CleanupProxyEv
3930:__ZN9Scripting11UnityEngine15Vector3IntProxy9InitProxyEv
3931:__ZN9Scripting11UnityEngine15Vector3IntProxy12CleanupProxyEv
3932:__ZN9Scripting11UnityEngine15Vector2IntProxy9InitProxyEv
3933:__ZN9Scripting11UnityEngine15Vector2IntProxy12CleanupProxyEv
3934:__ZN9Scripting11UnityEngine12Vector2Proxy9InitProxyEv
3935:__ZN9Scripting11UnityEngine12Vector2Proxy12CleanupProxyEv
3936:__ZN9Scripting11UnityEngine32UnitySynchronizationContextProxy9InitProxyEv
3937:__ZN9Scripting11UnityEngine32UnitySynchronizationContextProxy12CleanupProxyEv
3938:__ZN9Scripting11UnityEngine19UnityExceptionProxy9InitProxyEv
3939:__ZN9Scripting11UnityEngine19UnityExceptionProxy12CleanupProxyEv
3940:__ZN9Scripting11UnityEngine3U2D23SpriteAtlasManagerProxy9InitProxyEv
3941:__ZN9Scripting11UnityEngine3U2D23SpriteAtlasManagerProxy12CleanupProxyEv
3942:__ZN9Scripting11UnityEngine21TrackedReferenceProxy9InitProxyEv
3943:__ZN9Scripting11UnityEngine21TrackedReferenceProxy12CleanupProxyEv
3944:__ZN9Scripting11UnityEngine14Texture3DProxy9InitProxyEv
3945:__ZN9Scripting11UnityEngine14Texture3DProxy12CleanupProxyEv
3946:__ZN9Scripting11UnityEngine19Texture2DArrayProxy9InitProxyEv
3947:__ZN9Scripting11UnityEngine19Texture2DArrayProxy12CleanupProxyEv
3948:__ZN9Scripting11UnityEngine14Texture2DProxy9InitProxyEv
3949:__ZN9Scripting11UnityEngine14Texture2DProxy12CleanupProxyEv
3950:__ZN9Scripting11UnityEngine22StackTraceUtilityProxy9InitProxyEv
3951:__ZN9Scripting11UnityEngine22StackTraceUtilityProxy12CleanupProxyEv
3952:__ZN9Scripting11UnityEngine11SpriteProxy9InitProxyEv
3953:__ZN9Scripting11UnityEngine11SpriteProxy12CleanupProxyEv
3954:__ZN9Scripting11UnityEngine19SetupCoroutineProxy9InitProxyEv
3955:__ZN9Scripting11UnityEngine19SetupCoroutineProxy12CleanupProxyEv
3956:__ZN9Scripting11UnityEngine30SerializePrivateVariablesProxy9InitProxyEv
3957:__ZN9Scripting11UnityEngine30SerializePrivateVariablesProxy12CleanupProxyEv
3958:__ZN9Scripting11UnityEngine19SerializeFieldProxy9InitProxyEv
3959:__ZN9Scripting11UnityEngine19SerializeFieldProxy12CleanupProxyEv
3960:__ZN9Scripting11UnityEngine13Serialization34FormerlySerializedAsAttributeProxy9InitProxyEv
3961:__ZN9Scripting11UnityEngine13Serialization34FormerlySerializedAsAttributeProxy12CleanupProxyEv
3962:__ZN9Scripting11UnityEngine20SendMouseEventsProxy9InitProxyEv
3963:__ZN9Scripting11UnityEngine20SendMouseEventsProxy12CleanupProxyEv
3964:__ZN9Scripting11UnityEngine15SceneManagement17SceneManagerProxy9InitProxyEv
3965:__ZN9Scripting11UnityEngine15SceneManagement17SceneManagerProxy12CleanupProxyEv
3966:__ZN9Scripting11UnityEngine20ResourceRequestProxy9InitProxyEv
3967:__ZN9Scripting11UnityEngine20ResourceRequestProxy12CleanupProxyEv
3968:__ZN9Scripting11UnityEngine15ResolutionProxy9InitProxyEv
3969:__ZN9Scripting11UnityEngine15ResolutionProxy12CleanupProxyEv
3970:__ZN9Scripting11UnityEngine9Rendering25SphericalHarmonicsL2Proxy9InitProxyEv
3971:__ZN9Scripting11UnityEngine9Rendering25SphericalHarmonicsL2Proxy12CleanupProxyEv
3972:__ZN9Scripting11UnityEngine9Rendering21ShaderKeywordSetProxy9InitProxyEv
3973:__ZN9Scripting11UnityEngine9Rendering21ShaderKeywordSetProxy12CleanupProxyEv
3974:__ZN9Scripting11UnityEngine9Rendering18ShaderKeywordProxy9InitProxyEv
3975:__ZN9Scripting11UnityEngine9Rendering18ShaderKeywordProxy12CleanupProxyEv
3976:__ZN9Scripting11UnityEngine9Rendering29ReflectionProbeBlendInfoProxy9InitProxyEv
3977:__ZN9Scripting11UnityEngine9Rendering29ReflectionProbeBlendInfoProxy12CleanupProxyEv
3978:__ZN9Scripting11UnityEngine9Rendering23PlatformKeywordSetProxy9InitProxyEv
3979:__ZN9Scripting11UnityEngine9Rendering23PlatformKeywordSetProxy12CleanupProxyEv
3980:__ZN9Scripting11UnityEngine9Rendering23GraphicsDeviceTypeProxy9InitProxyEv
3981:__ZN9Scripting11UnityEngine9Rendering23GraphicsDeviceTypeProxy12CleanupProxyEv
3982:__ZN9Scripting11UnityEngine9Rendering13GPUFenceProxy9InitProxyEv
3983:__ZN9Scripting11UnityEngine9Rendering13GPUFenceProxy12CleanupProxyEv
3984:__ZN9Scripting11UnityEngine9Rendering18CommandBufferProxy9InitProxyEv
3985:__ZN9Scripting11UnityEngine9Rendering18CommandBufferProxy12CleanupProxyEv
3986:__ZN9Scripting11UnityEngine9Rendering28AsyncGPUReadbackRequestProxy9InitProxyEv
3987:__ZN9Scripting11UnityEngine9Rendering28AsyncGPUReadbackRequestProxy12CleanupProxyEv
3988:__ZN9Scripting11UnityEngine20ReflectionProbeProxy9InitProxyEv
3989:__ZN9Scripting11UnityEngine20ReflectionProbeProxy12CleanupProxyEv
3990:__ZN9Scripting11UnityEngine18RectTransformProxy9InitProxyEv
3991:__ZN9Scripting11UnityEngine18RectTransformProxy12CleanupProxyEv
3992:__ZN9Scripting11UnityEngine14TransformProxy9InitProxyEv
3993:__ZN9Scripting11UnityEngine14TransformProxy12CleanupProxyEv
3994:__ZN9Scripting11UnityEngine15RectOffsetProxy9InitProxyEv
3995:__ZN9Scripting11UnityEngine15RectOffsetProxy12CleanupProxyEv
3996:__ZN9Scripting11UnityEngine12RectIntProxy9InitProxyEv
3997:__ZN9Scripting11UnityEngine12RectIntProxy12CleanupProxyEv
3998:__ZN9Scripting11UnityEngine9RectProxy9InitProxyEv
3999:__ZN9Scripting11UnityEngine9RectProxy12CleanupProxyEv
4000:__ZN9Scripting11UnityEngine15QuaternionProxy9InitProxyEv
4001:__ZN9Scripting11UnityEngine15QuaternionProxy12CleanupProxyEv
4002:__ZN9Scripting11UnityEngine17PropertyNameProxy9InitProxyEv
4003:__ZN9Scripting11UnityEngine17PropertyNameProxy12CleanupProxyEv
4004:__ZN9Scripting11UnityEngine9Profiling13RecorderProxy9InitProxyEv
4005:__ZN9Scripting11UnityEngine9Profiling13RecorderProxy12CleanupProxyEv
4006:__ZN9Scripting11UnityEngine9Profiling13ProfilerProxy9InitProxyEv
4007:__ZN9Scripting11UnityEngine9Profiling13ProfilerProxy12CleanupProxyEv
4008:__ZN9Scripting11UnityEngine9Profiling18CustomSamplerProxy9InitProxyEv
4009:__ZN9Scripting11UnityEngine9Profiling18CustomSamplerProxy12CleanupProxyEv
4010:__ZN9Scripting11UnityEngine9Profiling12SamplerProxy9InitProxyEv
4011:__ZN9Scripting11UnityEngine9Profiling12SamplerProxy12CleanupProxyEv
4012:__ZN9Scripting11UnityEngine16PreloadDataProxy9InitProxyEv
4013:__ZN9Scripting11UnityEngine16PreloadDataProxy12CleanupProxyEv
4014:__ZN9Scripting11UnityEngine30PreferBinarySerializationProxy9InitProxyEv
4015:__ZN9Scripting11UnityEngine30PreferBinarySerializationProxy12CleanupProxyEv
4016:__ZN9Scripting11UnityEngine9Playables25ScriptPlayableOutputProxy9InitProxyEv
4017:__ZN9Scripting11UnityEngine9Playables25ScriptPlayableOutputProxy12CleanupProxyEv
4018:__ZN9Scripting11UnityEngine9Playables25PlayableOutputHandleProxy9InitProxyEv
4019:__ZN9Scripting11UnityEngine9Playables25PlayableOutputHandleProxy12CleanupProxyEv
4020:__ZN9Scripting11UnityEngine9Playables19PlayableOutputProxy9InitProxyEv
4021:__ZN9Scripting11UnityEngine9Playables19PlayableOutputProxy12CleanupProxyEv
4022:__ZN9Scripting11UnityEngine9Playables19PlayableHandleProxy9InitProxyEv
4023:__ZN9Scripting11UnityEngine9Playables19PlayableHandleProxy12CleanupProxyEv
4024:__ZN9Scripting11UnityEngine9Playables18PlayableGraphProxy9InitProxyEv
4025:__ZN9Scripting11UnityEngine9Playables18PlayableGraphProxy12CleanupProxyEv
4026:__ZN9Scripting11UnityEngine9Playables22PlayableBehaviourProxy9InitProxyEv
4027:__ZN9Scripting11UnityEngine9Playables22PlayableBehaviourProxy12CleanupProxyEv
4028:__ZN9Scripting11UnityEngine9Playables18PlayableAssetProxy9InitProxyEv
4029:__ZN9Scripting11UnityEngine9Playables18PlayableAssetProxy12CleanupProxyEv
4030:__ZN9Scripting11UnityEngine9Playables13PlayableProxy9InitProxyEv
4031:__ZN9Scripting11UnityEngine9Playables13PlayableProxy12CleanupProxyEv
4032:__ZN9Scripting11UnityEngine10PlaneProxy9InitProxyEv
4033:__ZN9Scripting11UnityEngine10PlaneProxy12CleanupProxyEv
4034:__ZN9Scripting11UnityEngine10Networking16PlayerConnection21PlayerConnectionProxy9InitProxyEv
4035:__ZN9Scripting11UnityEngine10Networking16PlayerConnection21PlayerConnectionProxy12CleanupProxyEv
4036:__ZN9Scripting11UnityEngine21ScriptableObjectProxy9InitProxyEv
4037:__ZN9Scripting11UnityEngine21ScriptableObjectProxy12CleanupProxyEv
4038:__ZN9Scripting11UnityEngine18MonoBehaviourProxy9InitProxyEv
4039:__ZN9Scripting11UnityEngine18MonoBehaviourProxy12CleanupProxyEv
4040:__ZN9Scripting11UnityEngine17MeshRendererProxy9InitProxyEv
4041:__ZN9Scripting11UnityEngine17MeshRendererProxy12CleanupProxyEv
4042:__ZN9Scripting11UnityEngine13RendererProxy9InitProxyEv
4043:__ZN9Scripting11UnityEngine13RendererProxy12CleanupProxyEv
4044:__ZN9Scripting11UnityEngine15MeshFilterProxy9InitProxyEv
4045:__ZN9Scripting11UnityEngine15MeshFilterProxy12CleanupProxyEv
4046:__ZN9Scripting11UnityEngine9MeshProxy9InitProxyEv
4047:__ZN9Scripting11UnityEngine9MeshProxy12CleanupProxyEv
4048:__ZN9Scripting11UnityEngine14Matrix4x4Proxy9InitProxyEv
4049:__ZN9Scripting11UnityEngine14Matrix4x4Proxy12CleanupProxyEv
4050:__ZN9Scripting11UnityEngine13MaterialProxy9InitProxyEv
4051:__ZN9Scripting11UnityEngine13MaterialProxy12CleanupProxyEv
4052:__ZN9Scripting11UnityEngine25ManagedStreamHelpersProxy9InitProxyEv
4053:__ZN9Scripting11UnityEngine25ManagedStreamHelpersProxy12CleanupProxyEv
4054:__ZN9Scripting11UnityEngine24LowerResBlitTextureProxy9InitProxyEv
4055:__ZN9Scripting11UnityEngine24LowerResBlitTextureProxy12CleanupProxyEv
4056:__ZN9Scripting11UnityEngine8LODProxy9InitProxyEv
4057:__ZN9Scripting11UnityEngine8LODProxy12CleanupProxyEv
4058:__ZN9Scripting11UnityEngine17LightmapDataProxy9InitProxyEv
4059:__ZN9Scripting11UnityEngine17LightmapDataProxy12CleanupProxyEv
4060:__ZN9Scripting11UnityEngine14LayerMaskProxy9InitProxyEv
4061:__ZN9Scripting11UnityEngine14LayerMaskProxy12CleanupProxyEv
4062:__ZN9Scripting11UnityEngine13KeyframeProxy9InitProxyEv
4063:__ZN9Scripting11UnityEngine13KeyframeProxy12CleanupProxyEv
4064:__ZN9Scripting11UnityEngine31ImageEffectTransformsToLDRProxy9InitProxyEv
4065:__ZN9Scripting11UnityEngine31ImageEffectTransformsToLDRProxy12CleanupProxyEv
4066:__ZN9Scripting11UnityEngine22ImageEffectOpaqueProxy9InitProxyEv
4067:__ZN9Scripting11UnityEngine22ImageEffectOpaqueProxy12CleanupProxyEv
4068:__ZN9Scripting11UnityEngine26ImageEffectAfterScaleProxy9InitProxyEv
4069:__ZN9Scripting11UnityEngine26ImageEffectAfterScaleProxy12CleanupProxyEv
4070:__ZN9Scripting11UnityEngine20HideInInspectorProxy9InitProxyEv
4071:__ZN9Scripting11UnityEngine20HideInInspectorProxy12CleanupProxyEv
4072:__ZN9Scripting11UnityEngine21HelpURLAttributeProxy9InitProxyEv
4073:__ZN9Scripting11UnityEngine21HelpURLAttributeProxy12CleanupProxyEv
4074:__ZN9Scripting11UnityEngine12Hash128Proxy9InitProxyEv
4075:__ZN9Scripting11UnityEngine12Hash128Proxy12CleanupProxyEv
4076:__ZN9Scripting11UnityEngine21GradientColorKeyProxy9InitProxyEv
4077:__ZN9Scripting11UnityEngine21GradientColorKeyProxy12CleanupProxyEv
4078:__ZN9Scripting11UnityEngine21GradientAlphaKeyProxy9InitProxyEv
4079:__ZN9Scripting11UnityEngine21GradientAlphaKeyProxy12CleanupProxyEv
4080:__ZN9Scripting11UnityEngine13GradientProxy9InitProxyEv
4081:__ZN9Scripting11UnityEngine13GradientProxy12CleanupProxyEv
4082:__ZN9Scripting11UnityEngine15GameObjectProxy9InitProxyEv
4083:__ZN9Scripting11UnityEngine15GameObjectProxy12CleanupProxyEv
4084:__ZN9Scripting11UnityEngine29FailedToLoadScriptObjectProxy9InitProxyEv
4085:__ZN9Scripting11UnityEngine29FailedToLoadScriptObjectProxy12CleanupProxyEv
4086:__ZN9Scripting11UnityEngine12Experimental3U2D15SpriteBoneProxy9InitProxyEv
4087:__ZN9Scripting11UnityEngine12Experimental3U2D15SpriteBoneProxy12CleanupProxyEv
4088:__ZN9Scripting11UnityEngine12Experimental9Rendering27VisibleReflectionProbeProxy9InitProxyEv
4089:__ZN9Scripting11UnityEngine12Experimental9Rendering27VisibleReflectionProbeProxy12CleanupProxyEv
4090:__ZN9Scripting11UnityEngine12Experimental9Rendering17VisibleLightProxy9InitProxyEv
4091:__ZN9Scripting11UnityEngine12Experimental9Rendering17VisibleLightProxy12CleanupProxyEv
4092:__ZN9Scripting11UnityEngine12Experimental9Rendering31SupportedRenderingFeaturesProxy9InitProxyEv
4093:__ZN9Scripting11UnityEngine12Experimental9Rendering31SupportedRenderingFeaturesProxy12CleanupProxyEv
4094:__ZN9Scripting11UnityEngine12Experimental9Rendering20ShadowSplitDataProxy9InitProxyEv
4095:__ZN9Scripting11UnityEngine12Experimental9Rendering20ShadowSplitDataProxy12CleanupProxyEv
4096:__ZN9Scripting11UnityEngine12Experimental9Rendering32ScriptableCullingParametersProxy9InitProxyEv
4097:__ZN9Scripting11UnityEngine12Experimental9Rendering32ScriptableCullingParametersProxy12CleanupProxyEv
4098:__ZN9Scripting11UnityEngine12Experimental9Rendering26RenderPipelineManagerProxy9InitProxyEv
4099:__ZN9Scripting11UnityEngine12Experimental9Rendering26RenderPipelineManagerProxy12CleanupProxyEv
4100:__ZN9Scripting11UnityEngine12Experimental9Rendering24DrawShadowsSettingsProxy9InitProxyEv
4101:__ZN9Scripting11UnityEngine12Experimental9Rendering24DrawShadowsSettingsProxy12CleanupProxyEv
4102:__ZN9Scripting11UnityEngine12Experimental9Rendering16CullResultsProxy9InitProxyEv
4103:__ZN9Scripting11UnityEngine12Experimental9Rendering16CullResultsProxy12CleanupProxyEv
4104:__ZN9Scripting11UnityEngine12Experimental9Rendering21CoreCameraValuesProxy9InitProxyEv
4105:__ZN9Scripting11UnityEngine12Experimental9Rendering21CoreCameraValuesProxy12CleanupProxyEv
4106:__ZN9Scripting11UnityEngine12Experimental9Rendering21CameraPropertiesProxy9InitProxyEv
4107:__ZN9Scripting11UnityEngine12Experimental9Rendering21CameraPropertiesProxy12CleanupProxyEv
4108:__ZN9Scripting11UnityEngine12Experimental10PlayerLoop11UpdateProxy9InitProxyEv
4109:__ZN9Scripting11UnityEngine12Experimental10PlayerLoop11UpdateProxy12CleanupProxyEv
4110:__ZN9Scripting11UnityEngine12Experimental10PlayerLoop14PreUpdateProxy9InitProxyEv
4111:__ZN9Scripting11UnityEngine12Experimental10PlayerLoop14PreUpdateProxy12CleanupProxyEv
4112:__ZN9Scripting11UnityEngine12Experimental10PlayerLoop18PreLateUpdateProxy9InitProxyEv
4113:__ZN9Scripting11UnityEngine12Experimental10PlayerLoop18PreLateUpdateProxy12CleanupProxyEv
4114:__ZN9Scripting11UnityEngine12Experimental10PlayerLoop19PostLateUpdateProxy9InitProxyEv
4115:__ZN9Scripting11UnityEngine12Experimental10PlayerLoop19PostLateUpdateProxy12CleanupProxyEv
4116:__ZN9Scripting11UnityEngine12Experimental10PlayerLoop19InitializationProxy9InitProxyEv
4117:__ZN9Scripting11UnityEngine12Experimental10PlayerLoop19InitializationProxy12CleanupProxyEv
4118:__ZN9Scripting11UnityEngine12Experimental10PlayerLoop16FixedUpdateProxy9InitProxyEv
4119:__ZN9Scripting11UnityEngine12Experimental10PlayerLoop16FixedUpdateProxy12CleanupProxyEv
4120:__ZN9Scripting11UnityEngine12Experimental10PlayerLoop16EarlyUpdateProxy9InitProxyEv
4121:__ZN9Scripting11UnityEngine12Experimental10PlayerLoop16EarlyUpdateProxy12CleanupProxyEv
4122:__ZN9Scripting11UnityEngine12Experimental9Playables26TexturePlayableOutputProxy9InitProxyEv
4123:__ZN9Scripting11UnityEngine12Experimental9Playables26TexturePlayableOutputProxy12CleanupProxyEv
4124:__ZN9Scripting11UnityEngine12Experimental9Playables25TextureMixerPlayableProxy9InitProxyEv
4125:__ZN9Scripting11UnityEngine12Experimental9Playables25TextureMixerPlayableProxy12CleanupProxyEv
4126:__ZN9Scripting11UnityEngine12Experimental9Playables27MaterialEffectPlayableProxy9InitProxyEv
4127:__ZN9Scripting11UnityEngine12Experimental9Playables27MaterialEffectPlayableProxy12CleanupProxyEv
4128:__ZN9Scripting11UnityEngine12Experimental9Playables19CameraPlayableProxy9InitProxyEv
4129:__ZN9Scripting11UnityEngine12Experimental9Playables19CameraPlayableProxy12CleanupProxyEv
4130:__ZN9Scripting11UnityEngine12Experimental8LowLevel29PlayerLoopSystemInternalProxy9InitProxyEv
4131:__ZN9Scripting11UnityEngine12Experimental8LowLevel29PlayerLoopSystemInternalProxy12CleanupProxyEv
4132:__ZN9Scripting11UnityEngine12Experimental18GlobalIllumination17LightmappingProxy9InitProxyEv
4133:__ZN9Scripting11UnityEngine12Experimental18GlobalIllumination17LightmappingProxy12CleanupProxyEv
4134:__ZN9Scripting11UnityEngine12Experimental18GlobalIllumination16LightDataGIProxy9InitProxyEv
4135:__ZN9Scripting11UnityEngine12Experimental18GlobalIllumination16LightDataGIProxy12CleanupProxyEv
4136:__ZN9Scripting11UnityEngine31ExcludeFromPresetAttributeProxy9InitProxyEv
4137:__ZN9Scripting11UnityEngine31ExcludeFromPresetAttributeProxy12CleanupProxyEv
4138:__ZN9Scripting11UnityEngine38ExcludeFromObjectFactoryAttributeProxy9InitProxyEv
4139:__ZN9Scripting11UnityEngine38ExcludeFromObjectFactoryAttributeProxy12CleanupProxyEv
4140:__ZN9Scripting11UnityEngine6Events15UnityEventProxy9InitProxyEv
4141:__ZN9Scripting11UnityEngine6Events15UnityEventProxy12CleanupProxyEv
4142:__ZN9Scripting11UnityEngine6Events19UnityEventBaseProxy9InitProxyEv
4143:__ZN9Scripting11UnityEngine6Events19UnityEventBaseProxy12CleanupProxyEv
4144:__ZN9Scripting11UnityEngine13EnumInfoProxy9InitProxyEv
4145:__ZN9Scripting11UnityEngine13EnumInfoProxy12CleanupProxyEv
4146:__ZN9Scripting11UnityEngine12DisplayProxy9InitProxyEv
4147:__ZN9Scripting11UnityEngine12DisplayProxy12CleanupProxyEv
4148:__ZN9Scripting11UnityEngine21DiagnosticSwitchProxy9InitProxyEv
4149:__ZN9Scripting11UnityEngine21DiagnosticSwitchProxy12CleanupProxyEv
4150:__ZN9Scripting11UnityEngine26DefaultExecutionOrderProxy9InitProxyEv
4151:__ZN9Scripting11UnityEngine26DefaultExecutionOrderProxy12CleanupProxyEv
4152:__ZN9Scripting11UnityEngine34CustomRenderTextureUpdateZoneProxy9InitProxyEv
4153:__ZN9Scripting11UnityEngine34CustomRenderTextureUpdateZoneProxy12CleanupProxyEv
4154:__ZN9Scripting11UnityEngine24CustomRenderTextureProxy9InitProxyEv
4155:__ZN9Scripting11UnityEngine24CustomRenderTextureProxy12CleanupProxyEv
4156:__ZN9Scripting11UnityEngine18RenderTextureProxy9InitProxyEv
4157:__ZN9Scripting11UnityEngine18RenderTextureProxy12CleanupProxyEv
4158:__ZN9Scripting11UnityEngine17CullingGroupProxy9InitProxyEv
4159:__ZN9Scripting11UnityEngine17CullingGroupProxy12CleanupProxyEv
4160:__ZN9Scripting11UnityEngine12CubemapProxy9InitProxyEv
4161:__ZN9Scripting11UnityEngine12CubemapProxy12CleanupProxyEv
4162:__ZN9Scripting11UnityEngine12TextureProxy9InitProxyEv
4163:__ZN9Scripting11UnityEngine12TextureProxy12CleanupProxyEv
4164:__ZN9Scripting11UnityEngine14CoroutineProxy9InitProxyEv
4165:__ZN9Scripting11UnityEngine14CoroutineProxy12CleanupProxyEv
4166:__ZN9Scripting11UnityEngine16ContextMenuProxy9InitProxyEv
4167:__ZN9Scripting11UnityEngine16ContextMenuProxy12CleanupProxyEv
4168:__ZN9Scripting11UnityEngine18ComputeBufferProxy9InitProxyEv
4169:__ZN9Scripting11UnityEngine18ComputeBufferProxy12CleanupProxyEv
4170:__ZN9Scripting11UnityEngine15ColorGamutProxy9InitProxyEv
4171:__ZN9Scripting11UnityEngine15ColorGamutProxy12CleanupProxyEv
4172:__ZN9Scripting11UnityEngine12Color32Proxy9InitProxyEv
4173:__ZN9Scripting11UnityEngine12Color32Proxy12CleanupProxyEv
4174:__ZN9Scripting11UnityEngine10ColorProxy9InitProxyEv
4175:__ZN9Scripting11UnityEngine10ColorProxy12CleanupProxyEv
4176:__ZN9Scripting11UnityEngine28ClassLibraryInitializerProxy9InitProxyEv
4177:__ZN9Scripting11UnityEngine28ClassLibraryInitializerProxy12CleanupProxyEv
4178:__ZN9Scripting11UnityEngine11CameraProxy9InitProxyEv
4179:__ZN9Scripting11UnityEngine11CameraProxy12CleanupProxyEv
4180:__ZN9Scripting11UnityEngine15CacheIndexProxy9InitProxyEv
4181:__ZN9Scripting11UnityEngine15CacheIndexProxy12CleanupProxyEv
4182:__ZN9Scripting11UnityEngine22CachedAssetBundleProxy9InitProxyEv
4183:__ZN9Scripting11UnityEngine22CachedAssetBundleProxy12CleanupProxyEv
4184:__ZN9Scripting11UnityEngine14BoundsIntProxy9InitProxyEv
4185:__ZN9Scripting11UnityEngine14BoundsIntProxy12CleanupProxyEv
4186:__ZN9Scripting11UnityEngine11BoundsProxy9InitProxyEv
4187:__ZN9Scripting11UnityEngine11BoundsProxy12CleanupProxyEv
4188:__ZN9Scripting11UnityEngine12Vector3Proxy9InitProxyEv
4189:__ZN9Scripting11UnityEngine12Vector3Proxy12CleanupProxyEv
4190:__ZN9Scripting11UnityEngine19BootConfigDataProxy9InitProxyEv
4191:__ZN9Scripting11UnityEngine19BootConfigDataProxy12CleanupProxyEv
4192:__ZN9Scripting11UnityEngine15BoneWeightProxy9InitProxyEv
4193:__ZN9Scripting11UnityEngine15BoneWeightProxy12CleanupProxyEv
4194:__ZN9Scripting11UnityEngine14BehaviourProxy9InitProxyEv
4195:__ZN9Scripting11UnityEngine14BehaviourProxy12CleanupProxyEv
4196:__ZN9Scripting11UnityEngine14ComponentProxy9InitProxyEv
4197:__ZN9Scripting11UnityEngine14ComponentProxy12CleanupProxyEv
4198:__ZN9Scripting11UnityEngine11ObjectProxy9InitProxyEv
4199:__ZN9Scripting11UnityEngine11ObjectProxy12CleanupProxyEv
4200:__Z35scripting_class_get_field_from_name17ScriptingClassPtrPKc
4201:__ZN9Scripting11UnityEngine26AttributeHelperEngineProxy9InitProxyEv
4202:__ZN9Scripting11UnityEngine26AttributeHelperEngineProxy12CleanupProxyEv
4203:__ZN9Scripting11UnityEngine19AsyncOperationProxy9InitProxyEv
4204:__ZN9Scripting11UnityEngine19AsyncOperationProxy12CleanupProxyEv
4205:__ZN9Scripting11UnityEngine21YieldInstructionProxy9InitProxyEv
4206:__ZN9Scripting11UnityEngine21YieldInstructionProxy12CleanupProxyEv
4207:__ZN9Scripting11UnityEngine29AssemblyIsEditorAssemblyProxy9InitProxyEv
4208:__ZN9Scripting11UnityEngine29AssemblyIsEditorAssemblyProxy12CleanupProxyEv
4209:__ZN9Scripting11UnityEngine16ApplicationProxy9InitProxyEv
4210:__ZN9Scripting11UnityEngine16ApplicationProxy12CleanupProxyEv
4211:__ZN9Scripting11UnityEngine19AnimationCurveProxy9InitProxyEv
4212:__ZN9Scripting11UnityEngine19AnimationCurveProxy12CleanupProxyEv
4213:__ZN9Scripting5Unity11Collections23WriteOnlyAttributeProxy9InitProxyEv
4214:__ZN9Scripting5Unity11Collections23WriteOnlyAttributeProxy12CleanupProxyEv
4215:__ZN9Scripting5Unity11Collections22ReadOnlyAttributeProxy9InitProxyEv
4216:__ZN9Scripting5Unity11Collections22ReadOnlyAttributeProxy12CleanupProxyEv
4217:__ZN9Scripting5Unity11Collections44NativeMatchesParallelForLengthAttributeProxy9InitProxyEv
4218:__ZN9Scripting5Unity11Collections44NativeMatchesParallelForLengthAttributeProxy12CleanupProxyEv
4219:__ZN9Scripting5Unity11Collections31NativeFixedLengthAttributeProxy9InitProxyEv
4220:__ZN9Scripting5Unity11Collections31NativeFixedLengthAttributeProxy12CleanupProxyEv
4221:__ZN9Scripting5Unity11Collections49NativeDisableParallelForRestrictionAttributeProxy9InitProxyEv
4222:__ZN9Scripting5Unity11Collections49NativeDisableParallelForRestrictionAttributeProxy12CleanupProxyEv
4223:__ZN9Scripting5Unity11Collections8LowLevel6Unsafe34NativeSetThreadIndexAttributeProxy9InitProxyEv
4224:__ZN9Scripting5Unity11Collections8LowLevel6Unsafe34NativeSetThreadIndexAttributeProxy12CleanupProxyEv
4225:__ZN9Scripting5Unity11Collections8LowLevel6Unsafe48NativeSetClassTypeToNullOnScheduleAttributeProxy9InitProxyEv
4226:__ZN9Scripting5Unity11Collections8LowLevel6Unsafe48NativeSetClassTypeToNullOnScheduleAttributeProxy12CleanupProxyEv
4227:__ZN9Scripting5Unity11Collections8LowLevel6Unsafe47NativeDisableUnsafePtrRestrictionAttributeProxy9InitProxyEv
4228:__ZN9Scripting5Unity11Collections8LowLevel6Unsafe47NativeDisableUnsafePtrRestrictionAttributeProxy12CleanupProxyEv
4229:__ZN9Scripting5Unity11Collections8LowLevel6Unsafe53NativeDisableContainerSafetyRestrictionAttributeProxy9InitProxyEv
4230:__ZN9Scripting5Unity11Collections8LowLevel6Unsafe53NativeDisableContainerSafetyRestrictionAttributeProxy12CleanupProxyEv
4231:__ZN9Scripting5Unity11Collections8LowLevel6Unsafe59NativeContainerSupportsMinMaxWriteRestrictionAttributeProxy9InitProxyEv
4232:__ZN9Scripting5Unity11Collections8LowLevel6Unsafe59NativeContainerSupportsMinMaxWriteRestrictionAttributeProxy12CleanupProxyEv
4233:__ZN9Scripting5Unity11Collections8LowLevel6Unsafe54NativeContainerSupportsDeferredConvertListToArrayProxy9InitProxyEv
4234:__ZN9Scripting5Unity11Collections8LowLevel6Unsafe54NativeContainerSupportsDeferredConvertListToArrayProxy12CleanupProxyEv
4235:__ZN9Scripting5Unity11Collections8LowLevel6Unsafe62NativeContainerSupportsDeallocateOnJobCompletionAttributeProxy9InitProxyEv
4236:__ZN9Scripting5Unity11Collections8LowLevel6Unsafe62NativeContainerSupportsDeallocateOnJobCompletionAttributeProxy12CleanupProxyEv
4237:__ZN9Scripting5Unity11Collections8LowLevel6Unsafe45NativeContainerNeedsThreadIndexAttributeProxy9InitProxyEv
4238:__ZN9Scripting5Unity11Collections8LowLevel6Unsafe45NativeContainerNeedsThreadIndexAttributeProxy12CleanupProxyEv
4239:__ZN9Scripting5Unity11Collections8LowLevel6Unsafe39NativeContainerIsReadOnlyAttributeProxy9InitProxyEv
4240:__ZN9Scripting5Unity11Collections8LowLevel6Unsafe39NativeContainerIsReadOnlyAttributeProxy12CleanupProxyEv
4241:__ZN9Scripting5Unity11Collections8LowLevel6Unsafe46NativeContainerIsAtomicWriteOnlyAttributeProxy9InitProxyEv
4242:__ZN9Scripting5Unity11Collections8LowLevel6Unsafe46NativeContainerIsAtomicWriteOnlyAttributeProxy12CleanupProxyEv
4243:__ZN9Scripting5Unity11Collections8LowLevel6Unsafe29NativeContainerAttributeProxy9InitProxyEv
4244:__ZN9Scripting5Unity11Collections8LowLevel6Unsafe29NativeContainerAttributeProxy12CleanupProxyEv
4245:__ZN9Scripting5Unity11Collections39DeallocateOnJobCompletionAttributeProxy9InitProxyEv
4246:__ZN9Scripting5Unity11Collections39DeallocateOnJobCompletionAttributeProxy12CleanupProxyEv
4247:__ZN9Scripting5Unity11Collections14AllocatorProxy9InitProxyEv
4248:__ZN9Scripting5Unity11Collections14AllocatorProxy12CleanupProxyEv
4249:__ZN5Unity9Component16CheckConsistencyEv
4250:__ZNK5Unity9Component7GetNameEv
4251:__ZN5Unity9Component7SetNameEPKc
4252:__ZN6Object24SetCachedScriptingObjectE18ScriptingObjectPtr
4253:__ZN9Behaviour10DeactivateE19DeactivateOperation
4254:__ZN9Behaviour10SetEnabledEb
4255:__ZN9Transform18GetTransformAccessEv
4256:__ZN32TransformHierarchyChangeDispatch19SetSystemInterestedE15TransformAccess36TransformHierarchyChangeSystemHandleb
4257:__Z25FindAncestorComponentImplR10GameObjectPKN5Unity4TypeE
4258:__ZN14SafeBinaryRead13BeginTransferEPKcS1_PPFbPvRS_Eb
4259:__ZN14SafeBinaryRead11EndTransferEv
4260:__ZN9Behaviour8TransferI14SafeBinaryReadEEvRT_
4261:__ZN12CachedReader15UpdateReadCacheEPvj
4262:__ZN5Unity9Component8TransferI14SafeBinaryReadEEvRT_
4263:__ZN12ImmediatePtrI10GameObjectE8TransferI14SafeBinaryReadEEvRT_
4264:__Z43LocalSerializedObjectIdentifierToInstanceIDRK31LocalSerializedObjectIdentifierRi
4265:__Z38PreallocateObjectFromPersistentManagerib
4266:__ZNK16TypeTreeIterator4NameEv
4267:__ZNK16TypeTreeIterator8ChildrenEv
4268:__ZL4WalkRK16TypeTreeIteratorR12CachedReaderPxb
4269:__ZNK16TypeTreeIterator4NextEv
4270:__Z23GetAllowNameConversionsPK20AllowNameConversionsPKcS3_
4271:__ZNK16TypeTreeIterator4TypeEv
4272:__Z13FindConverterPKcS0_
4273:__ZN24GenerateTypeTreeTransfer13BeginTransferEPKcS1_Pc17TransferMetaFlags
4274:__ZN24GenerateTypeTreeTransfer11EndTransferEv
4275:__ZNK16TypeTreeIterator6FatherEv
4276:__ZN9Behaviour8TransferI24GenerateTypeTreeTransferEEvRT_
4277:__ZN24GenerateTypeTreeTransfer5AlignEv
4278:__ZNK16TypeTreeIterator4LastEv
4279:__ZN5Unity9Component8TransferI24GenerateTypeTreeTransferEEvRT_
4280:__ZN8TypeTree8AddChildERK16TypeTreeIterator
4281:__ZN8TypeTree16AssignByteOffsetERK16TypeTreeIteratorj
4282:__ZN9Behaviour8TransferI17RemapPPtrTransferEEvRT_
4283:__ZN5Unity9Component8TransferI17RemapPPtrTransferEEvRT_
4284:__ZN17RemapPPtrTransfer12PushMetaFlagE17TransferMetaFlags
4285:__ZN9Behaviour8TransferI18StreamedBinaryReadEEvRT_
4286:__ZN18StreamedBinaryRead5AlignEv
4287:__ZN5Unity9Component8TransferI18StreamedBinaryReadEEvRT_
4288:__ZN12ImmediatePtrI10GameObjectE8TransferI18StreamedBinaryReadEEvRT_
4289:__ZN9Behaviour8TransferI19StreamedBinaryWriteEEvRT_
4290:__ZN12CachedWriter16UpdateWriteCacheEPKvj
4291:__ZN19StreamedBinaryWrite5AlignEv
4292:__ZN12CachedWriter11Align4WriteEv
4293:__ZN5Unity9Component8TransferI19StreamedBinaryWriteEEvRT_
4294:__ZN12ImmediatePtrI10GameObjectE8TransferI19StreamedBinaryWriteEEvRT_
4295:__Z43InstanceIDToLocalSerializedObjectIdentifieriR31LocalSerializedObjectIdentifier
4296:__ZN17PersistentManager43InstanceIDToLocalSerializedObjectIdentifierEiR31LocalSerializedObjectIdentifier
4297:__ZN17PersistentManager32GlobalToLocalSerializedFileIndexERK26SerializedObjectIdentifier
4298:__ZN13dynamic_arrayI14FileIdentifierLj0EE12emplace_backERKS0_
4299:__ZN13dynamic_arrayIN10GameObject13ComponentPairELj0EE9push_backERKS1_
4300:__ZN10GameObject28FinalizeAddComponentInternalEPN5Unity9ComponentE
4301:__ZN9Behaviour13AwakeFromLoadE17AwakeFromLoadMode
4302:__ZNK5Unity9Component22GetTypeVirtualInternalEv
4303:__ZN5Unity9Component23VirtualRedirectTransferER24GenerateTypeTreeTransfer
4304:__ZN5Unity9Component23VirtualRedirectTransferER14SafeBinaryRead
4305:__ZN5Unity9Component10SetEnabledEb
4306:__ZN9BehaviourD2Ev
4307:__ZNK9Behaviour22GetTypeVirtualInternalEv
4308:__ZN9Behaviour23VirtualRedirectTransferER24GenerateTypeTreeTransfer
4309:__ZN9Behaviour23VirtualRedirectTransferER14SafeBinaryRead
4310:__ZN11SpriteAtlasD2Ev
4311:__ZN11SpriteAtlasD0Ev
4312:__ZNK11SpriteAtlas22GetTypeVirtualInternalEv
4313:__ZN11NamedObject7SetNameEPKc
4314:__ZN11SpriteAtlas23VirtualRedirectTransferER19StreamedBinaryWrite
4315:__ZN11SpriteAtlas23VirtualRedirectTransferER18StreamedBinaryRead
4316:__ZN11SpriteAtlas23VirtualRedirectTransferER17RemapPPtrTransfer
4317:__ZN11SpriteAtlas23VirtualRedirectTransferER24GenerateTypeTreeTransfer
4318:__ZN11SpriteAtlas23VirtualRedirectTransferER14SafeBinaryRead
4319:__ZN11SpriteAtlas8TransferI14SafeBinaryReadEEvRT_
4320:__ZN11NamedObject8TransferI14SafeBinaryReadEEvRT_
4321:__ZN14SafeBinaryRead21TransferSTLStyleArrayI13dynamic_arrayI4PPtrI6SpriteELj0EEEEvRT_17TransferMetaFlags
4322:__ZN14SafeBinaryRead21TransferSTLStyleArrayI13dynamic_arrayIN4core12basic_stringIcNS2_20StringStorageDefaultIcEEEELj0EEEEvRT_17TransferMetaFlags
4323:__ZN14SafeBinaryRead19TransferSTLStyleMapIN4core8hash_mapINSt3__24pairI9UnityGUIDxEE15SpriteAtlasData23SpriteRenderDataKeyHashNS3_8equal_toIS6_EEEEEEvRT_17TransferMetaFlags
4324:__ZN14SafeBinaryRead18BeginArrayTransferEPKcS1_Ri
4325:__ZN14SafeBinaryRead16EndArrayTransferEv
4326:__ZN15SerializeTraitsIN4core4pairINSt3__24pairI9UnityGUIDxEE15SpriteAtlasDataLb0EEEE8TransferI14SafeBinaryReadEEvRS7_RT_
4327:__ZN4core8hash_setINS_4pairIKNSt3__24pairI9UnityGUIDxEE15SpriteAtlasDataLb0EEENS_9hash_pairI23SpriteRenderDataKeyHashS6_S7_EENS_10equal_pairINS2_8equal_toIS5_EES6_S7_EEE6insertERKS8_
4328:__ZN4core8hash_setINS_4pairIKNSt3__24pairI9UnityGUIDxEE15SpriteAtlasDataLb0EEENS_9hash_pairI23SpriteRenderDataKeyHashS6_S7_EENS_10equal_pairINS2_8equal_toIS5_EES6_S7_EEE4growEi
4329:__ZN10SpookyHash7Hash128EPKvjPyS2_
4330:__ZN10SpookyHash5ShortEPKvjPyS2_
4331:__ZN15SpriteAtlasData8TransferI14SafeBinaryReadEEvRT_
4332:__ZN5RectTIfE8TransferI14SafeBinaryReadEEvRT_
4333:__ZN14ConstantString6assignEPKc10MemLabelId
4334:__ZN11SpriteAtlas8TransferI24GenerateTypeTreeTransferEEvRT_
4335:__ZN11NamedObject8TransferI24GenerateTypeTreeTransferEEvRT_
4336:__ZN24GenerateTypeTreeTransfer18BeginArrayTransferEPKcS1_Ri17TransferMetaFlags
4337:__ZN24GenerateTypeTreeTransfer16EndArrayTransferEv
4338:__ZN15SpriteAtlasData8TransferI24GenerateTypeTreeTransferEEvRT_
4339:__ZN11SpriteAtlas8TransferI17RemapPPtrTransferEEvRT_
4340:__ZN11SpriteAtlas8TransferI18StreamedBinaryReadEEvRT_
4341:__ZN11NamedObject8TransferI18StreamedBinaryReadEEvRT_
4342:__ZN18StreamedBinaryRead19TransferSTLStyleMapIN4core8hash_mapINSt3__24pairI9UnityGUIDxEE15SpriteAtlasData23SpriteRenderDataKeyHashNS3_8equal_toIS6_EEEEEEvRT_17TransferMetaFlags
4343:__ZN15SpriteAtlasData8TransferI18StreamedBinaryReadEEvRT_
4344:__ZN11SpriteAtlas8TransferI19StreamedBinaryWriteEEvRT_
4345:__ZN11NamedObject8TransferI19StreamedBinaryWriteEEvRT_
4346:__ZN15SerializeTraitsIN4core8hash_mapINSt3__24pairI9UnityGUIDxEE15SpriteAtlasData23SpriteRenderDataKeyHashNS2_8equal_toIS5_EEEEE8TransferI19StreamedBinaryWriteEEvRSA_RT_
4347:__ZN15SpriteAtlasData8TransferI19StreamedBinaryWriteEEvRT_
4348:__ZN14ConstantStringD2Ev
4349:__ZN11NamedObjectD2Ev
4350:__ZN11NamedObjectD0Ev
4351:__ZNK11NamedObject22GetTypeVirtualInternalEv
4352:__ZN11NamedObject23VirtualRedirectTransferER24GenerateTypeTreeTransfer
4353:__ZN11NamedObject23VirtualRedirectTransferER14SafeBinaryRead
4354:__ZN12TLSAllocatorI14StackAllocatorED2Ev
4355:__ZN12TLSAllocatorI14StackAllocatorED0Ev
4356:__ZN12TLSAllocatorI14StackAllocatorE10DeallocateEPv
4357:__ZNK12TLSAllocatorI14StackAllocatorE8ContainsEPKv
4358:__ZNK12TLSAllocatorI14StackAllocatorE10GetPtrSizeEPKv
4359:__ZNK12TLSAllocatorI14StackAllocatorE10IsAssignedEv
4360:__ZNK12TLSAllocatorI14StackAllocatorE22GetAllocatedMemorySizeEv
4361:__ZNK12TLSAllocatorI14StackAllocatorE21GetReservedMemorySizeEv
4362:__ZNK12TLSAllocatorI14StackAllocatorE24GetBookKeepingMemorySizeEv
4363:__ZN12TLSAllocatorI14StackAllocatorE16ThreadInitializeEP13BaseAllocator
4364:__ZN12TLSAllocatorI14StackAllocatorE13ThreadCleanupEv
4365:__ZN12TLSAllocatorI14StackAllocatorE16FrameMaintenanceEb
4366:__ZNK14StackAllocator20IsOverflowAllocationEPKv
4367:__ZN25ThreadsafeLinearAllocatorD2Ev
4368:__ZN25ThreadsafeLinearAllocatorD0Ev
4369:__ZN25ThreadsafeLinearAllocator8AllocateEji
4370:__ZN25ThreadsafeLinearAllocator10ReallocateEPvji
4371:__ZN25ThreadsafeLinearAllocator10DeallocateEPv
4372:__ZN25ThreadsafeLinearAllocator13TryDeallocateEPv
4373:__ZNK25ThreadsafeLinearAllocator8ContainsEPKv
4374:__ZNK25ThreadsafeLinearAllocator10GetPtrSizeEPKv
4375:__ZNK25ThreadsafeLinearAllocator22GetAllocatedMemorySizeEv
4376:__ZNK25ThreadsafeLinearAllocator21GetReservedMemorySizeEv
4377:__ZN25ThreadsafeLinearAllocator16FrameMaintenanceEb
4378:__ZN25ThreadsafeLinearAllocator15SelectFreeBlockEv
4379:__ZN14StackAllocatorD2Ev
4380:__ZN14StackAllocatorD0Ev
4381:__ZNK14StackAllocator8ContainsEPKv
4382:__ZN14StackAllocator16FrameMaintenanceEb
4383:__ZN13MemoryManager18LowLevelReallocateEPvjj
4384:__ZN10TagManagerD2Ev
4385:__ZN10TagManagerD0Ev
4386:__ZN11GameManager17MainThreadCleanupEv
4387:__ZN10TagManager5ResetEv
4388:__ZNK10TagManager22GetTypeVirtualInternalEv
4389:__ZN10TagManager23VirtualRedirectTransferER19StreamedBinaryWrite
4390:__ZN10TagManager23VirtualRedirectTransferER18StreamedBinaryRead
4391:__ZN10TagManager23VirtualRedirectTransferER17RemapPPtrTransfer
4392:__ZN10TagManager23VirtualRedirectTransferER24GenerateTypeTreeTransfer
4393:__ZN10TagManager23VirtualRedirectTransferER14SafeBinaryRead
4394:__ZN10TagManager8TransferI14SafeBinaryReadEEvRT_
4395:__ZN10TagManager32RegisterDefaultTagsAndLayerMasksEv
4396:__ZN10TagManager11RegisterTagEjRKN4core12basic_stringIcNS0_20StringStorageDefaultIcEEEE
4397:__ZN14SafeBinaryRead12IsOldVersionEi
4398:__ZN10TagManager13RegisterLayerEjRKN4core12basic_stringIcNS0_20StringStorageDefaultIcEEEE
4399:__ZN14SafeBinaryRead21TransferSTLStyleArrayI13dynamic_arrayI17SortingLayerEntryLj0EEEEvRT_17TransferMetaFlags
4400:__ZN10TagManager23AddDefaultLayerIfNeededEv
4401:__ZN13dynamic_arrayI17SortingLayerEntryLj0EE6insertEPS0_jRKS0_
4402:__ZN13dynamic_arrayI17SortingLayerEntryLj0EE18resize_initializedEj12ResizePolicy
4403:__ZN15SerializeTraitsI17SortingLayerEntryE8TransferI14SafeBinaryReadEEvRS0_RT_
4404:__ZNSt3__26__treeINS_12__value_typeIN4core12basic_stringIcNS2_20StringStorageDefaultIcEEEEjEENS_19__map_value_compareIS6_S7_NS_4lessIS6_EELb1EEE13stl_allocatorIS7_L18MemLabelIdentifier7ELi16EEE25__emplace_unique_key_argsIS6_JNS_4pairIS6_jEEEEENSH_INS_15__tree_iteratorIS7_PNS_11__tree_nodeIS7_PvEEiEEbEERKT_DpOT0_
4405:__ZNSt3__26__treeINS_12__value_typeIjN4core12basic_stringIcNS2_20StringStorageDefaultIcEEEEEENS_19__map_value_compareIjS7_NS_4lessIjEELb1EEE13stl_allocatorIS7_L18MemLabelIdentifier7ELi16EEE25__emplace_unique_key_argsIjJNS_4pairIjS6_EEEEENSH_INS_15__tree_iteratorIS7_PNS_11__tree_nodeIS7_PvEEiEEbEERKT_DpOT0_
4406:__ZNSt3__26__treeINS_12__value_typeIN4core12basic_stringIcNS2_20StringStorageDefaultIcEEEEjEENS_19__map_value_compareIS6_S7_NS_4lessIS6_EELb1EEE13stl_allocatorIS7_L18MemLabelIdentifier7ELi16EEE7destroyEPNS_11__tree_nodeIS7_PvEE
4407:__ZNSt3__26__treeINS_12__value_typeIjN4core12basic_stringIcNS2_20StringStorageDefaultIcEEEEEENS_19__map_value_compareIjS7_NS_4lessIjEELb1EEE13stl_allocatorIS7_L18MemLabelIdentifier7ELi16EEE7destroyEPNS_11__tree_nodeIS7_PvEE
4408:__ZN10TagManager8TransferI24GenerateTypeTreeTransferEEvRT_
4409:__ZN15SerializeTraitsI13dynamic_arrayI17SortingLayerEntryLj0EEE8TransferI24GenerateTypeTreeTransferEEvRS2_RT_
4410:__ZN10TagManager8TransferI17RemapPPtrTransferEEvRT_
4411:__ZN10TagManager8TransferI18StreamedBinaryReadEEvRT_
4412:__ZN18StreamedBinaryRead21TransferSTLStyleArrayI13dynamic_arrayI17SortingLayerEntryLj0EEEEvRT_17TransferMetaFlags
4413:__ZN10TagManager8TransferI19StreamedBinaryWriteEEvRT_
4414:__ZN15SerializeTraitsI13dynamic_arrayI17SortingLayerEntryLj0EEE8TransferI19StreamedBinaryWriteEEvRS2_RT_
4415:__ZN10TagManager15ThreadedCleanupEv
4416:__ZN11GameManagerD2Ev
4417:__ZN11GameManagerD0Ev
4418:__ZNK11GameManager22GetTypeVirtualInternalEv
4419:__ZNK17GlobalGameManager22GetTypeVirtualInternalEv
4420:__ZN17GlobalGameManager23VirtualRedirectTransferER24GenerateTypeTreeTransfer
4421:__ZN17GlobalGameManager23VirtualRedirectTransferER14SafeBinaryRead
4422:__ZNK6Object22GetTypeVirtualInternalEv
4423:__ZNK16LevelGameManager22GetTypeVirtualInternalEv
4424:__ZN16LevelGameManager23VirtualRedirectTransferER24GenerateTypeTreeTransfer
4425:__ZN16LevelGameManager23VirtualRedirectTransferER14SafeBinaryRead
4426:__ZN10GameObjectD2Ev
4427:__ZN10GameObjectD0Ev
4428:__ZN10GameObject13AwakeFromLoadE17AwakeFromLoadMode
4429:__ZN10GameObject16CheckConsistencyEv
4430:__ZN10GameObject5ResetEv
4431:__ZNK10GameObject22GetTypeVirtualInternalEv
4432:__ZN10GameObject7SetNameEPKc
4433:__ZN10GameObject12SetHideFlagsEN6Object9HideFlagsE
4434:__ZN10GameObject23VirtualRedirectTransferER19StreamedBinaryWrite
4435:__ZN10GameObject23VirtualRedirectTransferER18StreamedBinaryRead
4436:__ZN10GameObject23VirtualRedirectTransferER17RemapPPtrTransfer
4437:__ZN10GameObject23VirtualRedirectTransferER24GenerateTypeTreeTransfer
4438:__ZN10GameObject23VirtualRedirectTransferER14SafeBinaryRead
4439:__ZN10GameObject8TransferI14SafeBinaryReadEEvRT_
4440:__ZN10GameObject18TransferComponentsI14SafeBinaryReadEEvRT_
4441:__ZN14SafeBinaryRead23IsVersionSmallerOrEqualEi
4442:__ZN14SafeBinaryRead21TransferSTLStyleArrayI13dynamic_arrayINSt3__24pairIi12ImmediatePtrIN5Unity9ComponentEEEELj0EEEEvRT_17TransferMetaFlags
4443:__ZN14SafeBinaryRead21TransferSTLStyleArrayI13dynamic_arrayIN10GameObject13ComponentPairELj0EEEEvRT_17TransferMetaFlags
4444:__ZN12ImmediatePtrIN5Unity9ComponentEE8TransferI14SafeBinaryReadEEvRT_
4445:__ZN14SafeBinaryRead8TransferIN10GameObject13ComponentPairEEEvRT_PKc17TransferMetaFlags
4446:__ZN15SerializeTraitsINSt3__24pairIi12ImmediatePtrIN5Unity9ComponentEEEEE8TransferI14SafeBinaryReadEEvRS6_RT_
4447:__ZN10GameObject8TransferI24GenerateTypeTreeTransferEEvRT_
4448:__ZN10GameObject18TransferComponentsI24GenerateTypeTreeTransferEEvRT_
4449:__ZN17RemapPPtrTransfer8TransferI13dynamic_arrayIN10GameObject13ComponentPairELj0EEEEvRT_PKc17TransferMetaFlags
4450:__ZN10GameObject8TransferI18StreamedBinaryReadEEvRT_
4451:__ZN18StreamedBinaryRead21TransferSTLStyleArrayI13dynamic_arrayIN10GameObject13ComponentPairELj0EEEEvRT_17TransferMetaFlags
4452:__ZN12ImmediatePtrIN5Unity9ComponentEE8TransferI18StreamedBinaryReadEEvRT_
4453:__ZN10GameObject8TransferI19StreamedBinaryWriteEEvRT_
4454:__Z17IsObjectAvailablei
4455:__ZN10GameObject21EnsureUniqueTransformEv
4456:__Z24MergeTransformComponentsR9TransformS0_b
4457:__Z30AddTransformComponentUncheckedR10GameObjectPKN5Unity4TypeE
4458:__ZN13dynamic_arrayIN10GameObject13ComponentPairELj0EE6insertEPS1_jRKS1_
4459:__ZN10GameObject20AddComponentInternalEPN5Unity9ComponentE
4460:__ZN9Transform7GetRootEv
4461:__ZN9Transform47ClearTransformHierarchyAndApplyToSerializedDataEv
4462:__ZN9Transform8GetSceneEv
4463:__ZN10UnityScene19RemoveRootFromSceneER9Transformb
4464:__ZN10UnityScene14AddRootToSceneERS_R9Transform
4465:__ZN9Transform4FindEPKS_
4466:__ZN9Transform25RebuildTransformHierarchyEv
4467:__ZN9Transform30EnsureTransformHierarchyExistsEv
4468:__ZN9Transform35SetLocalPositionWithoutNotificationERKN4math7_float3Ey
4469:__ZN9Transform35SetLocalRotationWithoutNotificationERKN4math7_float4Ey
4470:__ZN9Transform32SetLocalScaleWithoutNotificationERKN4math7_float3Ey
4471:__ZN17TransformInternal36OnScaleChangedCalculateTransformTypeE15TransformAccess
4472:__ZNK9Transform14CountNodesDeepEv
4473:__ZN17TransformInternal24CreateTransformHierarchyEj10MemLabelId
4474:__ZN17TransformInternal23AllocateTransformThreadER18TransformHierarchyjj
4475:__ZN9Transform37InitializeTransformHierarchyRecursiveER18TransformHierarchyRii
4476:__ZN23TransformChangeDispatch32QueueTransformChangeIfHasChangedERK15TransformAccess
4477:__ZN17TransformInternal25DestroyTransformHierarchyEP18TransformHierarchy
4478:__ZN23TransformChangeDispatch24RemoveTransformHierarchyER18TransformHierarchy
4479:__ZN23TransformChangeDispatch32QueueTransformChangeIfHasChangedER18TransformHierarchy
4480:__ZN17TransformInternal12InitLocalTRSE15TransformAccessRKN4math7_float3ERKNS1_7_float4ES4_
4481:__ZN23TransformChangeDispatch29RecalculatePermanentInterestsE15TransformAccess
4482:__ZN14BatchAllocator16AllocateInternalEPPvijjj
4483:__ZN14BatchAllocator6CommitE10MemLabelId
4484:__ZN17PersistentManager17IsObjectAvailableEi
4485:__ZN15SharedLightData5ResetEv
4486:__ZN14ShadowSettings5ResetEv
4487:__ZN12BaseRendererD2Ev
4488:__ZN12BaseRenderer23RendererCullingCallbackEv
4489:__ZN12BaseRenderer17GetSortingGroupIDEj
4490:__ZN12BaseRenderer17SetSortingGroupIDEjj
4491:__ZN12BaseRenderer20GetSortingGroupOrderEj
4492:__ZN12BaseRenderer20SetSortingGroupOrderEjj
4493:__ZNK12BaseRenderer21GetGlobalLayeringDataEj
4494:__ZN12BaseRenderer21SetGlobalLayeringDataE18GlobalLayeringDataj
4495:__Z16GetRenderManagerv
4496:__ZN13RenderManager19GetCurrentCameraPtrEv
4497:__ZNK6Camera22GetWorldToCameraMatrixEv
4498:__ZN33RendererCullingCallbackPropertiesC2ERK6CameraRK10Matrix4x4f
4499:__ZNK6Camera33CalculateFarPlaneWorldSpaceLengthEv
4500:__ZNK6Camera16GetCullingMatrixEv
4501:__ZNK6Camera20GetWorldToClipMatrixEv
4502:__ZNK6Camera19GetProjectionMatrixEv
4503:__ZN10Matrix4x4f8SetScaleERK8Vector3f
4504:__ZNK9Transform28GetWorldToLocalMatrixNoScaleEv
4505:__ZN10Matrix4x4fmLERKS_
4506:__Z22MultiplyMatrices4x4REFPK10Matrix4x4fS1_PS_
4507:__ZN10Matrix4x4f14SetPerspectiveEffff
4508:__ZN10Matrix4x4f8SetOrthoEffffff
4509:__ZNK6Camera13GetCameraRectEbb
4510:__ZNK6Camera18ScreenToWorldPointERK8Vector3f21MonoOrStereoscopicEye
4511:__Z14RectfToRectIntRK5RectTIfE
4512:__ZNK6Camera19GetStereoViewMatrixE15StereoscopicEye
4513:__Z25InvertMatrix4x4_General3DPKfPf
4514:__ZNK6Camera25GetStereoProjectionMatrixE15StereoscopicEye
4515:__Z20InvertMatrix4x4_FullPKfPf
4516:__Z15CameraUnProjectRK8Vector3fRK10Matrix4x4fS4_RK5RectTIiERS_b
4517:__ZL19GetCameraTargetRectRK6Camerabbb
4518:__ZNK13RenderTexture14GetScaledWidthEv
4519:__ZNK13RenderTexture15GetScaledHeightEv
4520:__ZN21ScalableBufferManager11GetInstanceEv
4521:__ZN13RuntimeStaticI21ScalableBufferManagerLb0EE10InitializeEv
4522:__Z18GetQualitySettingsv
4523:__ZN6CameraD2Ev
4524:__ZN6CameraD0Ev
4525:__ZN6Camera17MainThreadCleanupEv
4526:__ZN6Camera13AwakeFromLoadE17AwakeFromLoadMode
4527:__ZN6Camera16CheckConsistencyEv
4528:__ZN6Camera5ResetEv
4529:__ZNK6Camera22GetTypeVirtualInternalEv
4530:__ZN6Camera23VirtualRedirectTransferER19StreamedBinaryWrite
4531:__ZN6Camera23VirtualRedirectTransferER18StreamedBinaryRead
4532:__ZN6Camera23VirtualRedirectTransferER17RemapPPtrTransfer
4533:__ZN6Camera23VirtualRedirectTransferER24GenerateTypeTreeTransfer
4534:__ZN6Camera23VirtualRedirectTransferER14SafeBinaryRead
4535:__ZN6Camera12AddToManagerEv
4536:__ZN6Camera17RemoveFromManagerEv
4537:__ZN27IntermediateRendererManager26ClearIntermediateRenderersEij
4538:__ZN13RenderManager12RemoveCameraEP6Camera
4539:__ZNSt3__24listI4PPtrI6CameraENS_9allocatorIS3_EEE6removeERKS3_
4540:__ZN13RenderManager9AddCameraEP6Camera
4541:__ZN6Camera38InitializePreviousViewProjectionMatrixEv
4542:__ZNK6Camera16GetTargetTextureEv
4543:__ZN6Camera8TransferI14SafeBinaryReadEEvRT_
4544:__ZN15SerializeTraitsI10ColorRGBAfE8TransferI14SafeBinaryReadEEvRS0_RT_
4545:__ZN14SafeBinaryRead8TransferI8BitFieldEEvRT_PKc17TransferMetaFlags
4546:__ZN6Camera8TransferI24GenerateTypeTreeTransferEEvRT_
4547:__ZN10ColorRGBAf8TransferI24GenerateTypeTreeTransferEEvRT_
4548:__ZN6Camera8TransferI18StreamedBinaryReadEEvRT_
4549:__ZN6Camera8TransferI19StreamedBinaryWriteEEvRT_
4550:__Z19GetGraphicsSettingsv
4551:__ZN13MonoBehaviour33AddImageEffectCallbacksToManagersEv
4552:__Z30scripting_method_has_attribute18ScriptingMethodPtr17ScriptingClassPtr
4553:__ZN13MonoBehaviour17RenderImageFilterEPN5Unity9ComponentEP13RenderTextureS4_
4554:__Z25GetRenderLoopImageFiltersR10RenderLoop
4555:__ZN12ImageFilters14AddImageFilterERK11ImageFilter
4556:__ZN12ImageFilters17RemoveImageFilterERK11ImageFilter
4557:__ZNSt3__26vectorI11ImageFilterNS_9allocatorIS1_EEE6insertENS_11__wrap_iterIPKS1_EERS6_
4558:__ZN13MonoBehaviour30InvokeMethodOrCoroutineCheckedE18ScriptingMethodPtr18ScriptingObjectPtr
4559:__ZN9Scripting19ScriptingWrapperForEP6Object
4560:__ZN9Scripting34ScriptingWrapperClassForNativeTypeEPKN5Unity4TypeE
4561:__Z33scripting_unity_engine_object_new17ScriptingClassPtrP6Object
4562:__ZN19ScriptingInvocationC2E18ScriptingObjectPtr18ScriptingMethodPtr
4563:__ZN13MonoBehaviour30InvokeMethodOrCoroutineCheckedE18ScriptingMethodPtr18ScriptingObjectPtrP21ScriptingExceptionPtr
4564:__Z11IsCoroutine18ScriptingMethodPtrRK22CommonScriptingClasses
4565:__ZN13MonoBehaviour24TryCreateAndRunCoroutineE18ScriptingObjectPtr18ScriptingMethodPtrPP9Coroutine
4566:__Z35scripting_object_get_virtual_method18ScriptingObjectPtr18ScriptingMethodPtr
4567:__ZN9Coroutine3RunEPb
4568:__ZN9Coroutine16CleanupCoroutineEPv
4569:__ZN9Coroutine14InvokeMoveNextEP21ScriptingExceptionPtr
4570:__ZN9Coroutine23ProcessCoroutineCurrentEv
4571:__Z28scripting_class_is_valuetype17ScriptingClassPtr
4572:__ZN9Coroutine17ContinueCoroutineEP6ObjectPv
4573:__Z11CallDelayedPF15CallObjectStateP6ObjectPvE4PPtrIS0_EfS2_fPFS_S2_EN18DelayedCallManager15DelayedCallModeE
4574:__ZN9Coroutine35HandleIEnumerableCurrentReturnValueE18ScriptingObjectPtr
4575:__ZN9CoroutineC2Ev
4576:__Z23scripting_type_get_type16ScriptingTypePtr
4577:__Z24scripting_class_get_type17ScriptingClassPtr
4578:__Z20scripting_object_new17ScriptingClassPtr
4579:__ZN19RenderEventsContext23RemoveAllCommandBuffersEv
4580:__ZN13RenderTexture7ReleaseEv
4581:__ZN6Camera21CleanupAfterRenderingEPK11CullResults
4582:__ZN15LODGroupManager26CollectAllLODGroupManagersERK16CoreCameraValuesR13dynamic_arrayIPS_Lj0EEb
4583:__ZN15LODGroupManager20DestroyCameraLODDataEi
4584:__Z22CleanupAfterRenderLoopR10RenderLoop
4585:__ZN19RenderBufferManager8Textures17ReleaseTempBufferEP13RenderTexture
4586:__Z19ClearShadowMapCacheP14ShadowMapCache
4587:__ZNSt3__26__treeINS_12__value_typeIi17ShadowCachingDataEENS_19__map_value_compareIiS3_NS_4lessIiEELb1EEE13stl_allocatorIS3_L18MemLabelIdentifier66ELi16EEE7destroyEPNS_11__tree_nodeIS3_PvEE
4588:__ZN4core8hash_mapI17RenderTextureDescPN19RenderBufferManager8Textures12TextureEntryENS3_9KeyHasherENSt3__28equal_toIS1_EEE6insertERKS1_RKS5_
4589:__ZN13RenderTexture21SwitchOutOfFastMemoryEb
4590:__ZN9ShaderLab23ClearGrabPassFrameStateEv
4591:__ZN17RenderLoopContextD2Ev
4592:__ZN19SharedRendererSceneD2Ev
4593:__ZNK15RenderNodeQueue17SyncDependentJobsEv
4594:__ZN27PerObjectLightCullingOutputD2Ev
4595:__ZN12ActiveLightsD2Ev
4596:__ZN19RenderEventsContextD2Ev
4597:__ZN19RenderEventsContext20RemoveCommandBuffersEi
4598:__ZN22RenderingCommandBufferD2Ev
4599:__ZN22RenderingCommandBuffer13ClearCommandsEv
4600:__ZN14GrowableBufferD2Ev
4601:__ZN17GPUFenceInternals7ReleaseEv
4602:__ZN16RenderTextureMap5QueryEPK17RenderSurfaceBase
4603:__ZN13RenderTexture21MakeRenderTargetSetupEiP12ObjectHandleI17RenderSurface_TagP17RenderSurfaceBaseES4_i11CubemapFaceiNS_14SetActiveFlagsE
4604:__ZN13RenderTexture9SetActiveERK20GfxRenderTargetSetupPPS_NS_14SetActiveFlagsE
4605:__ZN13RenderTexture15DestroySurfacesEv
4606:__ZN16RenderTextureMap6RemoveEPK17RenderSurfaceBase
4607:__ZN6Camera24OnRenderSurfaceDestroyedE12ObjectHandleI17RenderSurface_TagP17RenderSurfaceBaseEP13RenderTexture
4608:__ZN9GfxDevice16SetRenderTargetsERK20GfxRenderTargetSetup
4609:__ZNK6Camera25GetNormalizedViewportRectEP13RenderTextureb
4610:__Z22CalculateMipMapCount3Diii
4611:__Z16DeleteRenderLoopP10RenderLoop
4612:__Z21DestroyShadowMapCacheP14ShadowMapCache
4613:__ZN12FlareManager8AddFlareENS_9OwnerTypeE
4614:__ZN12FlareManager11UpdateFlareEiP5FlareR9TransformbfRK10ColorRGBAffjj
4615:__ZNSt3__26vectorIN12FlareManager10FlareEntryENS_9allocatorIS2_EEE21__push_back_slow_pathIS2_EEvOT_
4616:__ZN10FlareLayerD0Ev
4617:__ZNK10FlareLayer22GetTypeVirtualInternalEv
4618:__ZN10FlareLayer12AddToManagerEv
4619:__ZN10FlareLayer17RemoveFromManagerEv
4620:__ZN12FlareManager12RemoveCameraER6Camera
4621:__ZN12FlareManager9AddCameraER6Camera
4622:__ZNSt3__26vectorIfNS_9allocatorIfEEE8__appendEjRKf
4623:__ZN20IntermediateRendererD2Ev
4624:__ZN20IntermediateRendererD0Ev
4625:__ZN20IntermediateRenderer15AddAsRenderNodeER15RenderNodeQueueRK20DeprecatedSourceData
4626:__ZNK20IntermediateRenderer8GetLayerEv
4627:__ZNK20IntermediateRenderer11GetMaterialEi
4628:__ZN12BaseRenderer16FlattenBasicDataERKS_fR10RenderNode
4629:__ZN12BaseRenderer18FlattenCustomPropsEPKPK19ShaderPropertySheetiR22PerThreadPageAllocatorR10RenderNode
4630:__ZN12BaseRenderer25FlattenSharedMaterialDataILb0EEEbRKS_R22PerThreadPageAllocatorR10RenderNode
4631:__ZN22PerThreadPageAllocator14AcquireNewPageEj
4632:__ZN8Material25AcquireSharedMaterialDataEv
4633:__ZN8Material15BuildPropertiesEv
4634:__ZN8Material12UpdateHashesEv
4635:__ZNK9ShaderLab4Pass21ComputePassValuesHashERK16ShaderKeywordSetPK19ShaderPropertySheetP6Shader
4636:__ZN9ShaderLab27ComputeStateBlockValuesHashERK13dynamic_arrayIiLj0EEPK19ShaderPropertySheetS6_
4637:__ZN9ShaderLab9IntShader23CreateStateBlocksForKeyEjPK19ShaderPropertySheetS3_
4638:__ZN9ShaderLab11ShaderState15AddDeviceStatesEjPK19ShaderPropertySheetS3_
4639:__ZNK9ShaderLab11ShaderState17BuildDeviceStatesER9GfxDevicePK19ShaderPropertySheetS5_RNS0_12DeviceStatesE
4640:__ZNK9ShaderLab20ShaderBlendStateDesc15ToGfxBlendStateEPK19ShaderPropertySheetS3_R13GfxBlendState
4641:__ZN9ShaderLab11shaderprops8GetFloatEPK19ShaderPropertySheetS3_NS_16FastPropertyNameE
4642:__ZNK9ShaderLab21ShaderRasterStateDesc16ToGfxRasterStateEPK19ShaderPropertySheetS3_R14GfxRasterState
4643:__ZNK9ShaderLab22ShaderStencilStateDesc17ToGfxStencilStateEPK19ShaderPropertySheetS3_RK14GfxRasterStateR15GfxStencilState
4644:__ZNK9ShaderLab7Program21GetMatchingSubProgramEPK6ShaderPKNS_4PassERK16ShaderKeywordSetjPS7_R19ShaderSnippetResult
4645:__ZNK20GpuProgramParameters23PrepareOverridingValuesERK19ShaderPropertySheetR13dynamic_arrayIhLj4EE
4646:__ZL22PrepareValueParametersI27OverridingParameterPreparerEvRK13dynamic_arrayIN20GpuProgramParameters14ValueParameterELj0EEjjjRS1_IhLj4EERKT_
4647:__ZNK9ShaderLab6TexEnv11PrepareDataEiibP15GfxTextureParam
4648:__Z35UnityShaderExtPluginKeywordsEnabledRK16ShaderKeywordSet
4649:__Z41UnityShaderExtIsCustomPluginVariantNeededjj
4650:__ZN24dense_hashtable_iteratorINSt3__24pairIKN9ShaderLab7Program23ShaderKeywordSetAndHashEPKNS2_10SubProgramEEES4_NS3_24ShaderKeywordHashFunctorEN14dense_hash_mapIS4_S8_SA_NS0_8equal_toIS4_EE13stl_allocatorIS9_L18MemLabelIdentifier67ELi16EEE9SelectKeyESD_SG_E30advance_past_empty_and_deletedEv
4651:__ZNK15dense_hashtableINSt3__24pairIKN9ShaderLab7Program23ShaderKeywordSetAndHashEPKNS2_10SubProgramEEES4_NS3_24ShaderKeywordHashFunctorEN14dense_hash_mapIS4_S8_SA_NS0_8equal_toIS4_EE13stl_allocatorIS9_L18MemLabelIdentifier67ELi16EEE9SelectKeyESD_SG_E23find_position_with_hashERS5_j
4652:__ZN9ShaderLab32FindBestMatchingShaderKeywordSetERK16ShaderKeywordSetRK13dynamic_arrayIS0_Lj0EEPS5_
4653:__ZN9ShaderLab10SubProgram7CompileEv
4654:__ZNK9ShaderLab7Program24MarkVariantAsUnsupportedERK16ShaderKeywordSet
4655:__ZN15dense_hashtableINSt3__24pairIKN9ShaderLab7Program23ShaderKeywordSetAndHashEPKNS2_10SubProgramEEES4_NS3_24ShaderKeywordHashFunctorEN14dense_hash_mapIS4_S8_SA_NS0_8equal_toIS4_EE13stl_allocatorIS9_L18MemLabelIdentifier67ELi16EEE9SelectKeyESD_SG_E12resize_deltaEjj
4656:__ZN15dense_hashtableINSt3__24pairIKN9ShaderLab7Program23ShaderKeywordSetAndHashEPKNS2_10SubProgramEEES4_NS3_24ShaderKeywordHashFunctorEN14dense_hash_mapIS4_S8_SA_NS0_8equal_toIS4_EE13stl_allocatorIS9_L18MemLabelIdentifier67ELi16EEE9SelectKeyESD_SG_E15insert_noresizeERKS9_
4657:__ZN15dense_hashtableINSt3__24pairIKN9ShaderLab7Program23ShaderKeywordSetAndHashEPKNS2_10SubProgramEEES4_NS3_24ShaderKeywordHashFunctorEN14dense_hash_mapIS4_S8_SA_NS0_8equal_toIS4_EE13stl_allocatorIS9_L18MemLabelIdentifier67ELi16EEE9SelectKeyESD_SG_E12maybe_shrinkEv
4658:__ZN15dense_hashtableINSt3__24pairIKN9ShaderLab7Program23ShaderKeywordSetAndHashEPKNS2_10SubProgramEEES4_NS3_24ShaderKeywordHashFunctorEN14dense_hash_mapIS4_S8_SA_NS0_8equal_toIS4_EE13stl_allocatorIS9_L18MemLabelIdentifier67ELi16EEE9SelectKeyESD_SG_E9copy_fromERKSJ_j
4659:__ZN20GpuProgramParametersaSERKS_
4660:__Z34UnityShaderExtCanCompileGPUProgramRK16ShaderKeywordSet20ShaderGpuProgramType
4661:__ZN16PropertyNamesSet6insertERKS_
4662:__ZN22CreateGpuProgramOutputD2Ev
4663:__ZN20GpuProgramParametersD2Ev
4664:__ZNSt3__213__vector_baseIN20GpuProgramParameters14ConstantBufferENS_9allocatorIS2_EEED2Ev
4665:__ZNSt3__26vectorIN20GpuProgramParameters16TextureParameterENS_9allocatorIS2_EEE6assignIPS2_EENS_9enable_ifIXaasr21__is_forward_iteratorIT_EE5valuesr16is_constructibleIS2_NS_15iterator_traitsIS9_E9referenceEEE5valueEvE4typeES9_S9_
4666:__ZNSt3__26vectorIN20GpuProgramParameters12UAVParameterENS_9allocatorIS2_EEE6assignIPS2_EENS_9enable_ifIXaasr21__is_forward_iteratorIT_EE5valuesr16is_constructibleIS2_NS_15iterator_traitsIS9_E9referenceEEE5valueEvE4typeES9_S9_
4667:__ZNSt3__26vectorIN20GpuProgramParameters14ConstantBufferENS_9allocatorIS2_EEE6assignIPS2_EENS_9enable_ifIXaasr21__is_forward_iteratorIT_EE5valuesr16is_constructibleIS2_NS_15iterator_traitsIS9_E9referenceEEE5valueEvE4typeES9_S9_
4668:__ZNSt3__26vectorIN20GpuProgramParameters15StructParameterENS_9allocatorIS2_EEE6assignIPS2_EENS_9enable_ifIXaasr21__is_forward_iteratorIT_EE5valuesr16is_constructibleIS2_NS_15iterator_traitsIS9_E9referenceEEE5valueEvE4typeES9_S9_
4669:__ZNSt3__26vectorIN20GpuProgramParameters15StructParameterENS_9allocatorIS2_EEEC2ERKS5_
4670:__ZNSt3__26vectorIN20GpuProgramParameters14ConstantBufferENS_9allocatorIS2_EEE10deallocateEv
4671:__ZN22CreateGpuProgramOutputC2Ev
4672:__ZN6Shader10GetDefaultEv
4673:__ZN19ShaderPropertySheet8CopyFromERKS_
4674:__ZN18UnityPropertySheet20AddNewShaderlabPropsERK19ShaderPropertySheet
4675:__ZN18UnityPropertySheet25AssignDefinedPropertiesToER19ShaderPropertySheet
4676:__ZN8Material10SetTextureEN9ShaderLab16FastPropertyNameEP7Texture
4677:__ZN24MaterialDisplayListCache22InvalidateDisplayListsER18SharedMaterialData
4678:__ZN19ShaderPropertySheet10SetTextureERK23FastTexturePropertyNameP7Texture
4679:__ZN8Material28UpdateHashesOnPropertyChangeEN9ShaderLab16FastPropertyNameE
4680:__ZN23TextureStreamingManager14UpdateMaterialER8Material
4681:__ZN20TextureStreamingData15FreeTextureInfoEP17StreamingRenderer
4682:__ZN19ShaderPropertySheet18AddTextureFromInfoERK23FastTexturePropertyNamePKN9ShaderLab25SerializedTexturePropertyE
4683:__ZN19ShaderPropertySheet17UpdateTextureInfoEiRK23FastTexturePropertyNameP7Textureb9TextureID
4684:__ZN9ShaderLab6TexEnv14SetTextureInfoE9TextureID16TextureDimension14VRTextureUsage19TextureSamplingTypeRKNS_16FastPropertyNameE
4685:__Z19GetActiveColorSpacev
4686:__Z22GetTextureDecodeValues16TextureUsageMode17TextureColorSpace
4687:__ZN19ShaderPropertySheet37CreateTextureAuxPropertyUninitializedEN9ShaderLab16FastPropertyNameES1_PKc
4688:__ZNK9ShaderLab16FastPropertyName7GetNameEv
4689:__ZN19ShaderPropertySheet27AddNewPropertyUninitializedEN9ShaderLab16FastPropertyNameENS_12PropertyTypeEj
4690:__ZN13dynamic_arrayIN9ShaderLab16FastPropertyNameELj0EE6insertEPS1_jRKS1_
4691:__ZN13dynamic_arrayIjLj0EE6insertEPjjRKj
4692:__Z20GetPlayerSettingsPtrv
4693:__ZN9ShaderLab6TexEnvC2ERKNS_25SerializedTexturePropertyE
4694:__ZN24MaterialDisplayListCache16CachedShaderPass10ReleaseAllEv
4695:__ZN19ShaderPropertySheet8SetFloatEN9ShaderLab16FastPropertyNameEfNS_8SetFlagsE
4696:__ZN19ShaderPropertySheet9SetVectorEN9ShaderLab16FastPropertyNameERK8Vector4fNS_8SetFlagsE
4697:__ZN19ShaderPropertySheet23SetTextureWithPlacementERK23FastTexturePropertyNameP7Texture8Vector2fS5_
4698:__ZNK19ShaderPropertySheet24GetFloatValueInsRGBSpaceEi
4699:__ZNK19ShaderPropertySheet25GetVectorValueInsRGBSpaceEi
4700:__ZNK22BuiltinResourceManager11GetResourceEPKN5Unity4TypeERKN4core12basic_stringIcNS4_20StringStorageDefaultIcEEEE
4701:__ZNK13sorted_vectorIN22BuiltinResourceManager8ResourceENSt3__24lessIS1_EENS2_9allocatorIS1_EEE4findIS1_EENS2_11__wrap_iterIPKS1_EERKT_
4702:__ZN19AtomicPageAllocator12AllocatePageEj
4703:__Z11FormatBytesx
4704:__ZN4Mesh10CreateMeshEv
4705:__ZN12BaseRenderer16FlattenProbeDataE4PPtrI9TransformERisRK17LightProbeContextR10RenderNode
4706:__ZN17MeshRenderingData4InitEP4MeshS1_iP9GfxBufferS3_
4707:__Z20RenderMultipleMeshesRK15RenderNodeQueueRK18RenderMultipleData16VertexInputMasks
4708:__ZN8DrawUtil24DrawMeshRawFromNodeQueueERK15RenderNodeQueuej16VertexInputMasksi
4709:__ZN8DrawUtil31CleanupDrawMeshRawFromNodeQueueER15RenderNodeQueuej
4710:__ZN17MeshRenderingData7ReleaseEv
4711:__Z30ExtractMeshBuffersAndDrawRangeR11MeshBuffersR16DrawBuffersRangeRK9GfxDeviceRK17MeshRenderingData16VertexInputMasksib
4712:__Z18ExtractMeshBuffersR11MeshBuffersP14SharedMeshDataS2_P23SharedMeshRenderingDataS4_16VertexInputMasksP9GfxBufferb
4713:__ZNK16MeshVertexFormat28CalculateRequiredStreamCountE17ShaderChannelMask
4714:__Z30AddDefaultStreamsToMeshBuffersR9GfxDeviceR11MeshBuffersj17ShaderChannelMaskS3_
4715:__ZN16MeshVertexFormat20GetVertexDeclarationER9GfxDevice16VertexInputMasksPKS_
4716:__ZNK16MeshVertexFormat28GetVertexDeclarationInternalER9GfxDevice17ShaderChannelMaskPKS_
4717:__ZN9GfxDevice20GetVertexDeclarationERK18VertexChannelsInfoNS_30VertexDeclarationMRUCacheIndexE
4718:__ZN25VertexDeclarationMRUCache13GetVertexDeclER9GfxDeviceRK18VertexChannelsInfo
4719:__ZNK18VertexChannelsInfoneERKS_
4720:__ZL13MeshExtractorPv16VertexInputMasksiR11MeshBuffersR16DrawBuffersRangeRiS5_
4721:__ZNK17InstancingBatcher15RenderInstancesERK15RenderNodeQueuePK17BatchInstanceDataj16VertexInputMasksPFbPvS6_iR11MeshBuffersR16DrawBuffersRangeRiSC_E
4722:__ZN8DrawUtil26ApplySharedNodeCustomPropsER9GfxDeviceRK10RenderNodei
4723:__Z18ExtractMeshBuffersR11MeshBuffersRK17MeshRenderingData16VertexInputMasksbb
4724:__Z17RenderStaticBatchR9GfxDevice10Matrix4x4fR13dynamic_arrayI7SubMeshLj0EERK11MeshBuffersPK17BatchInstanceDataj16VertexInputMasks
4725:__ZNK14VertexDataInfo17GetChannelsLayoutEv
4726:__ZN9GfxDevice13GetDynamicVBOEv
4727:__Z29CalculateDefaultChannelsToAdd17ShaderChannelMaskS_
4728:__Z40BuildSingleStreamChannelInfoWithDefaultsP11ChannelInfoRK20VertexChannelsLayout17ShaderChannelMaskS4_S4_
4729:__Z30ProcessDynamicBatchGeometryJobP25DynamicVBOGeometryJobDataj
4730:__Z30CleanupDynamicBatchGeometryJobP25DynamicVBOGeometryJobData
4731:__Z17SetupObjectMatrixRK10Matrix4x4fi
4732:__Z27TransformVerticesStridedREFPhRK10Matrix4x4fjPKhiS4_ii25GfxTransformVerticesFlagsj
4733:__ZN10Matrix3x3f15InvertTransposeEv
4734:__Z26TransformVerticesInnerLoopILb0ELb0ELb0EEvPhRK10Matrix4x4fRK10Matrix3x3fjPKhiS8_ii25GfxTransformVerticesFlagsj
4735:__Z26TransformVerticesInnerLoopILb1ELb0ELb0EEvPhRK10Matrix4x4fRK10Matrix3x3fjPKhiS8_ii25GfxTransformVerticesFlagsj
4736:__Z26TransformVerticesInnerLoopILb0ELb1ELb0EEvPhRK10Matrix4x4fRK10Matrix3x3fjPKhiS8_ii25GfxTransformVerticesFlagsj
4737:__Z26TransformVerticesInnerLoopILb1ELb1ELb0EEvPhRK10Matrix4x4fRK10Matrix3x3fjPKhiS8_ii25GfxTransformVerticesFlagsj
4738:__Z26TransformVerticesInnerLoopILb0ELb0ELb1EEvPhRK10Matrix4x4fRK10Matrix3x3fjPKhiS8_ii25GfxTransformVerticesFlagsj
4739:__Z26TransformVerticesInnerLoopILb1ELb0ELb1EEvPhRK10Matrix4x4fRK10Matrix3x3fjPKhiS8_ii25GfxTransformVerticesFlagsj
4740:__Z26TransformVerticesInnerLoopILb0ELb1ELb1EEvPhRK10Matrix4x4fRK10Matrix3x3fjPKhiS8_ii25GfxTransformVerticesFlagsj
4741:__Z26TransformVerticesInnerLoopILb1ELb1ELb1EEvPhRK10Matrix4x4fRK10Matrix3x3fjPKhiS8_ii25GfxTransformVerticesFlagsj
4742:__ZN10Matrix4x4f5ScaleERK8Vector3f
4743:__ZN10Matrix4x4fC2ERK10Matrix3x3f
4744:__ZN10Matrix3x3fC2ERK10Matrix4x4f
4745:__ZNK17InstancingBatcher18MapConstantBuffersER9GfxDeviceR13dynamic_arrayIPvLj0EERS2_I5CbKeyLj0EERS2_IjLj0EEj
4746:__ZNK17InstancingBatcher25FillInstanceBufferWithJobIN10Instancing14RenderLoopArgsEEEvR8JobFenceR13dynamic_arrayIPvLj0EEjjRKT_
4747:__ZNK15RenderNodeQueue15AddDependentJobER8JobFence
4748:__ZL17InstanceBufferJobIN10Instancing14RenderLoopArgsEEvP21InstanceBufferJobDataIT_E
4749:__Z19ScheduleJobInternalR8JobFencePFvPvES1_11JobPriority
4750:__ZNK15InstancingProps35FillInstanceBufferDispatchConstantsIN10Instancing14RenderLoopArgsEEEvPPvjjRK19ShaderPropertySheetRKT_
4751:__ZNK27SharedObjectDeleteReleaseOpI21InstanceBufferJobDataIN10Instancing14RenderLoopArgsEEEclEPS3_10MemLabelId
4752:__Z26DrawSpriteRawFromNodeQueueRK15RenderNodeQueuej16VertexInputMasksi
4753:__Z20GetSpriteDeviceColorRK10ColorRGBAf
4754:__Z16TransformIndicesPtPKvjjjjb
4755:__Z17TransformVerticesPhRK10Matrix4x4fPKhjj26GfxTransformVerticesParams25GfxTransformVerticesFlagsj
4756:__ZN19ShaderPropertySheetD2Ev
4757:__ZN19ShaderPropertySheetD0Ev
4758:__ZNK28ReflectionProbeAnchorManager35FindCachedReflectionProbeFromAnchorEPK9TransformRK4AABBRS3_RsS7_
4759:__ZNK28ReflectionProbeAnchorManager28GetCachedProbeAnchorPositionERK9Transform
4760:__Z38CalculateLightProbeSamplingCoordinatesRK17LightProbeContextRK8Vector3fiR29LightProbeSamplingCoordinates
4761:__ZNK11LightProbes14LightProbeData33GetLightProbeInterpolationWeightsERK8Vector3fRiR8Vector4f
4762:__Z37GetBarycentricCoordinatesForOuterCellPPK8Vector3fRK13dynamic_arrayIS_Lj0EERS0_RK11TetrahedronR8Vector4f
4763:__ZN15LightProbeUtils32BarycentricCoordinates3DTriangleEPK8Vector3fRS1_
4764:__ZN28ReflectionProbeAnchorManager37FindReflectionProbeFromAnchorInternalEPK9Transform8Vector3fRK4AABBRS4_RsS8_
4765:__ZNK10GameObject25QueryComponentByExactTypeEPKN5Unity4TypeE
4766:__ZN4Mesh5ClearEb
4767:__ZN4Mesh15UnshareMeshDataEv
4768:__Z27ConvertSubMeshesToTrianglesIjEvR13dynamic_arrayI7SubMeshLj0EERS0_IhLj0EE
4769:__Z27ConvertSubMeshesToTrianglesItEvR13dynamic_arrayI7SubMeshLj0EERS0_IhLj0EE
4770:__ZN23SharedMeshRenderingData25CreateOrUpdateIndexBufferERK13GfxBufferDescPKv20GfxUpdateBufferFlags
4771:__ZN18VertexChannelsInfoC2ERA14_K11ChannelInfo
4772:__ZN14SharedMeshDataC2ERKS_
4773:__ZN10VertexDataC2E10MemLabelIdRKS_17ShaderChannelMask
4774:__ZN14VertexDataInfo12UpdateFormatEj17ShaderChannelMaskS0_RK19VertexStreamsLayoutRK20VertexChannelsLayout
4775:__ZL12CopyChannelsj17ShaderChannelMaskRA4_K10StreamInfoRA14_K11ChannelInfoPKhS3_S7_Ph
4776:__ZN14VertexDataInfo18UpdateImplicitDataEv
4777:__Z43IsVertexFormatCompatibleWithDynamicBatchingRK14VertexDataInfo
4778:__ZN13dynamic_arrayI7SubMeshLj0EE9push_backERKS0_
4779:__Z16ClearBlendShapesR14BlendShapeData
4780:__ZN4Mesh14ResizeVerticesEj17ShaderChannelMaskS0_RK20VertexChannelsLayout
4781:__ZN14VertexDataInfoC2Ev
4782:__ZN14SharedMeshData22ClearCachedBoneWeightsEv
4783:__Z17SendMessageDirectR6ObjectRK17MessageIdentifierR11MessageData
4784:__ZN10VertexDataD2Ev
4785:__ZN10VertexData4SwapERS_
4786:__ZN10VertexData6ResizeEj17ShaderChannelMaskS0_RK19VertexStreamsLayoutRK20VertexChannelsLayout
4787:__ZN18ShadowMapJobHeaderD2Ev
4788:__ZN18ShadowMapJobHeaderD0Ev
4789:__ZN15SharedLightDataD2Ev
4790:__ZN16GraphicsSettingsD2Ev
4791:__ZN16GraphicsSettingsD0Ev
4792:__ZN16GraphicsSettings10SmartResetEv
4793:__ZNK16GraphicsSettings22GetTypeVirtualInternalEv
4794:__ZN16GraphicsSettings23VirtualRedirectTransferER19StreamedBinaryWrite
4795:__ZN16GraphicsSettings23VirtualRedirectTransferER18StreamedBinaryRead
4796:__ZN16GraphicsSettings23VirtualRedirectTransferER17RemapPPtrTransfer
4797:__ZN16GraphicsSettings23VirtualRedirectTransferER24GenerateTypeTreeTransfer
4798:__ZN16GraphicsSettings23VirtualRedirectTransferER14SafeBinaryRead
4799:__ZN16GraphicsSettings8TransferI14SafeBinaryReadEEvRT_
4800:__ZN21BuiltinShaderSettings8TransferI14SafeBinaryReadEEvRT_
4801:__ZN14SafeBinaryRead21TransferSTLStyleArrayINSt3__26vectorI4PPtrI6ShaderE13stl_allocatorIS5_L18MemLabelIdentifier53ELi16EEEEEEvRT_17TransferMetaFlags
4802:__ZN14SafeBinaryRead21TransferSTLStyleArrayINSt3__26vectorI4PPtrI23ShaderVariantCollectionE13stl_allocatorIS5_L18MemLabelIdentifier53ELi16EEEEEEvRT_17TransferMetaFlags
4803:__ZN20TierGraphicsSettings8TransferI14SafeBinaryReadEEvRT_
4804:__ZN14SafeBinaryRead21TransferSTLStyleArrayI13dynamic_arrayI21PlatformShaderDefinesLj0EEEEvRT_17TransferMetaFlags
4805:__ZN5Light17PrecalcLightColorEb
4806:__ZN16GraphicsSettings28SetLightsUseColorTemperatureEb
4807:__ZN15SharedLightData17PrecalcLightColorEb
4808:__Z31CorrelatedColorTemperatureToRGBf
4809:__ZN15SharedLightDataC2ERKS_
4810:__ZN19RenderEventsContextC2ERKS_
4811:__ZN22RenderingCommandBufferC2E10MemLabelIdRKS_
4812:__ZN14GrowableBufferC2ERKS_
4813:__ZN15SerializeTraitsI21PlatformShaderDefinesE8TransferI14SafeBinaryReadEEvRS0_RT_
4814:__Z14resize_trimmedINSt3__26vectorI4PPtrI23ShaderVariantCollectionE13stl_allocatorIS4_L18MemLabelIdentifier53ELi16EEEEEvRT_j
4815:__ZNSt3__26vectorI4PPtrI23ShaderVariantCollectionE13stl_allocatorIS3_L18MemLabelIdentifier53ELi16EEE6assignINS_11__wrap_iterIPS3_EEEENS_9enable_ifIXaasr21__is_forward_iteratorIT_EE5valuesr16is_constructibleIS3_NS_15iterator_traitsISD_E9referenceEEE5valueEvE4typeESD_SD_
4816:__ZNSt3__26vectorI4PPtrI23ShaderVariantCollectionE13stl_allocatorIS3_L18MemLabelIdentifier53ELi16EEE8__appendEj
4817:__ZN16GraphicsSettings8TransferI24GenerateTypeTreeTransferEEvRT_
4818:__ZN24GenerateTypeTreeTransfer8TransferI21BuiltinShaderSettingsEEvRT_PKc17TransferMetaFlags
4819:__ZN20TierGraphicsSettings8TransferI24GenerateTypeTreeTransferEEvRT_
4820:__ZN24GenerateTypeTreeTransfer8TransferI21PlatformShaderDefinesEEvRT_PKc17TransferMetaFlags
4821:__ZN16GraphicsSettings8TransferI17RemapPPtrTransferEEvRT_
4822:__ZN16GraphicsSettings8TransferI18StreamedBinaryReadEEvRT_
4823:__ZN20TierGraphicsSettings8TransferI18StreamedBinaryReadEEvRT_
4824:__ZN18StreamedBinaryRead21TransferSTLStyleArrayI13dynamic_arrayI21PlatformShaderDefinesLj0EEEEvRT_17TransferMetaFlags
4825:__ZN21PlatformShaderDefines8TransferI18StreamedBinaryReadEEvRT_
4826:__ZN16GraphicsSettings8TransferI19StreamedBinaryWriteEEvRT_
4827:__ZN20TierGraphicsSettings8TransferI19StreamedBinaryWriteEEvRT_
4828:__ZN21PlatformShaderDefines8TransferI19StreamedBinaryWriteEEvRT_
4829:__ZN21LightProbeProxyVolume27ValidateBoundingBoxSettingsEv
4830:__ZNK9Transform21GetWorldToLocalMatrixEv
4831:__ZN26LightProbeProxyVolumeUtilsL27ComputeLocalAABBOnHierarchyERK10Matrix4x4fR9TransformR10MinMaxAABB
4832:__ZN8Renderer29GetTransformInfoAndUpdateSlowEv
4833:__ZNK4AABB17CalculateVerticesEP8Vector3f
4834:__ZN21RendererUpdateManager20UpdateSingleRendererER8RendererR13RendererScene
4835:__Z28CalculateGlobalMatrixInverse23TransformAccessReadOnly
4836:__ZN15ReflectionProbe13AwakeFromLoadE17AwakeFromLoadMode
4837:__ZN15ReflectionProbe16CheckConsistencyEv
4838:__ZN15ReflectionProbe5ResetEv
4839:__ZNK15ReflectionProbe22GetTypeVirtualInternalEv
4840:__ZN15ReflectionProbe23VirtualRedirectTransferER19StreamedBinaryWrite
4841:__ZN15ReflectionProbe23VirtualRedirectTransferER18StreamedBinaryRead
4842:__ZN15ReflectionProbe23VirtualRedirectTransferER17RemapPPtrTransfer
4843:__ZN15ReflectionProbe23VirtualRedirectTransferER24GenerateTypeTreeTransfer
4844:__ZN15ReflectionProbe23VirtualRedirectTransferER14SafeBinaryRead
4845:__ZN15ReflectionProbe12AddToManagerEv
4846:__ZN15ReflectionProbe17RemoveFromManagerEv
4847:__ZN16ReflectionProbes11RemoveProbeE4PPtrI15ReflectionProbeE
4848:__ZNK15ReflectionProbe10GetTextureEv
4849:__ZN16ReflectionProbes22ForceProbeToUseTextureER15ReflectionProbeP7Texture
4850:__Z35GetTextureDecodeValuesWithIntensity16TextureUsageMode17TextureColorSpace10ColorSpacef
4851:__ZNSt3__25dequeI18ReflectionProbeJobNS_9allocatorIS1_EEE19__add_back_capacityEv
4852:__ZNSt3__212__deque_baseI18ReflectionProbeJobNS_9allocatorIS1_EEED2Ev
4853:__ZNSt3__214__split_bufferIP18ReflectionProbeJobNS_9allocatorIS2_EEE9push_backEOS2_
4854:__ZNSt3__214__split_bufferIP18ReflectionProbeJobNS_9allocatorIS2_EEE10push_frontEOS2_
4855:__ZN16ReflectionProbes8AddProbeE4PPtrI15ReflectionProbeE
4856:__ZN16ReflectionProbes8ScheduleEN18ReflectionProbeJob7JobTypeEP15ReflectionProbei
4857:__ZN15ReflectionProbe8TransferI14SafeBinaryReadEEvRT_
4858:__ZN15ReflectionProbe8TransferI24GenerateTypeTreeTransferEEvRT_
4859:__ZN15ReflectionProbe8TransferI18StreamedBinaryReadEEvRT_
4860:__ZN15ReflectionProbe8TransferI19StreamedBinaryWriteEEvRT_
4861:__ZNK12GraphicsCaps17IsFormatSupportedE14GraphicsFormat11FormatUsage13FormatSupport
4862:__ZN11HaloManager10DeleteHaloEiP6Object
4863:__ZNSt3__26vectorIN11HaloManager8HaloDataENS_9allocatorIS2_EEE21__push_back_slow_pathIS2_EEvOT_
4864:__ZN11HaloManager10UpdateHaloEiR9Transform11ColorRGBA32fjP6Object
4865:__ZN20SphericalHarmonicsL28TransferI14SafeBinaryReadEEvRT_
4866:__ZN20SphericalHarmonicsL28TransferI24GenerateTypeTreeTransferEEvRT_
4867:__ZN18StreamedBinaryRead10ReadDirectEPvi
4868:__ZN12CachedReader4ReadEPvj
4869:__ZN20SphericalHarmonicsL28TransferI18StreamedBinaryReadEEvRT_
4870:__ZN20SphericalHarmonicsL28TransferI19StreamedBinaryWriteEEvRT_
4871:__ZN14RenderSettingsD2Ev
4872:__ZN14RenderSettingsD0Ev
4873:__ZN14RenderSettings13AwakeFromLoadE17AwakeFromLoadMode
4874:__ZN14RenderSettings16CheckConsistencyEv
4875:__ZN14RenderSettings5ResetEv
4876:__ZNK14RenderSettings22GetTypeVirtualInternalEv
4877:__ZN14RenderSettings23VirtualRedirectTransferER19StreamedBinaryWrite
4878:__ZN14RenderSettings23VirtualRedirectTransferER18StreamedBinaryRead
4879:__ZN14RenderSettings23VirtualRedirectTransferER17RemapPPtrTransfer
4880:__ZN14RenderSettings23VirtualRedirectTransferER24GenerateTypeTreeTransfer
4881:__ZN14RenderSettings23VirtualRedirectTransferER14SafeBinaryRead
4882:__ZN14RenderSettings8TransferI14SafeBinaryReadEEvRT_
4883:__ZN14RenderSettings18TransferDeprecatedI14SafeBinaryReadEEvRT_
4884:__ZN14RenderSettings8TransferI24GenerateTypeTreeTransferEEvRT_
4885:__ZN14RenderSettings8TransferI17RemapPPtrTransferEEvRT_
4886:__ZN14RenderSettings8TransferI18StreamedBinaryReadEEvRT_
4887:__ZN14RenderSettings8TransferI19StreamedBinaryWriteEEvRT_
4888:__ZNK22BuiltinResourceManager21GetResourceInstanceIDEPKN5Unity4TypeERKN4core12basic_stringIcNS4_20StringStorageDefaultIcEEEE
4889:__ZN14RenderSettings17UpdateGlobalStateEv
4890:__ZN14RenderSettings23UpdateFinalAmbientProbeEv
4891:__ZN14RenderSettings14ApplyFogParamsEv
4892:__ZN5Light9SetupHaloEv
4893:__ZN5Light10SetupFlareEv
4894:__ZN16ReflectionProbes17SetDefaultTextureE4PPtrI7CubemapEf
4895:__ZN14RenderSettings27UpdateIndirectSpecularColorEv
4896:__ZN16ReflectionProbes16UpdateSampleDataEv
4897:__ZNK16ReflectionProbes21GenerateDefaultSampleEv
4898:__ZN16ReflectionProbes11UpdateProbeER15ReflectionProbej
4899:__ZNK9Transform28GetLocalToWorldMatrixNoScaleEv
4900:__ZNK10GameObject16GetCullSceneMaskEv
4901:__ZNK28ReflectionProbeAnchorManager14IsAnchorCachedERK9Transform
4902:__ZN19RuntimeSceneManager14GetActiveSceneEv
4903:__ZN12FlareManager11DeleteFlareEi
4904:__ZN12LightManager28IsLightTransformDataUpToDateEPK5Light
4905:__ZN12LightManager27UpdateAllLightTransformDataEv
4906:__ZN23TransformChangeDispatch28GetAndClearChangedTransformsE27TransformChangeSystemHandleR13dynamic_arrayI23TransformAccessReadOnlyLj0EEPN9profiling6MarkerE
4907:__ZN5Light25UpdateLightDataTransformsEv
4908:__ZN15SharedLightData15UpdateTransformERK9Transform
4909:__ZN15SharedLightData7PrecalcEv
4910:__Z24CalculateVertexLightDataRK15SharedLightDataR14GfxVertexLight
4911:__ZL31GetAndClearChangedTransformsJobP27GetChangedTransformsJobDatajPK23TransformAccessReadOnlyPKyj
4912:__ZN23TransformChangeDispatch40GetAndClearChangedAsBatchedJobs_InternalEyPFvPvjPK23TransformAccessReadOnlyPKyjES0_PFvS0_EPN9profiling6MarkerE
4913:__Z40ConfigureBlockRangesWithMinIndicesPerJobP10BlockRangeii
4914:__ZN18BlockRangeInternal16PopLastNodeIndexEP10BlockRangeji
4915:__ZN18BlockRangeInternal25GetSizeFromLastBlockRangeEP10BlockRangej
4916:__Z43GetUniqueDependenciesAndClearHierarchyFencePP18TransformHierarchyjP8JobFence
4917:__Z26ScheduleMultiDependencyJobR8JobFenceR18JobBatchDispatcherPKS_j
4918:__ZL8BatchJobP18BatchJobDataSingle
4919:__ZN11HaloManager7AddHaloENS_9OwnerTypeE
4920:__ZN20SphericalHarmonicsL27SetZeroEv
4921:__ZN20SphericalHarmonicsL211AddWeightedERKS_f
4922:__ZN20SphericalHarmonicsL215AddAmbientLightERK10ColorRGBAf
4923:__ZN20SphericalHarmonicsL219AddDirectionalLightERKN4math7_float3ERKNS0_7_float4E
4924:__ZN17AmbientProbeBaker29CalculateAmbientFaceProcessorclER5ImageiRK8Vector3fS5_S5_b
4925:__ZN6prcore10ClearImageER14ImageReferenceRK11ColorRGBA3214ImageClearMode
4926:__Z20GetTextureFormatInfo13TextureFormat
4927:__ZN6prcoreL11inner_clearILj1EEEvPhjjj
4928:__ZN6prcoreL11inner_clearILj2EEEvPhjjj
4929:__ZN6prcoreL11inner_clearILj3EEEvPhjjj
4930:__ZN6prcoreL11inner_clearILj4EEEvPhjjj
4931:__ZN5ImageC2Eii13TextureFormat
4932:__Z25GetBytesFromTextureFormat13TextureFormat
4933:__ZN20SphericalHarmonicsL217AddToCoefficientsEPKN4math7_float4EPKf
4934:__ZN5Light17MainThreadCleanupEv
4935:__ZN5Light13AwakeFromLoadE17AwakeFromLoadMode
4936:__ZN5Light16CheckConsistencyEv
4937:__ZN5Light5ResetEv
4938:__ZNK5Light22GetTypeVirtualInternalEv
4939:__ZN5Light23VirtualRedirectTransferER19StreamedBinaryWrite
4940:__ZN5Light23VirtualRedirectTransferER18StreamedBinaryRead
4941:__ZN5Light23VirtualRedirectTransferER17RemapPPtrTransfer
4942:__ZN5Light23VirtualRedirectTransferER24GenerateTypeTreeTransfer
4943:__ZN5Light23VirtualRedirectTransferER14SafeBinaryRead
4944:__ZN5Light12AddToManagerEv
4945:__ZN5Light17RemoveFromManagerEv
4946:__ZN12LightManager11RemoveLightEP5Light
4947:__ZN23TransformChangeDispatch19SetSystemInterestedE15TransformAccess27TransformChangeSystemHandleb
4948:__ZN12LightManager8AddLightEP5Light
4949:__ZN5Light8TransferI14SafeBinaryReadEEvRT_
4950:__ZN14ShadowSettings8TransferI14SafeBinaryReadEEvRT_
4951:__ZN17LightBakingOutput8TransferI14SafeBinaryReadEEvRT_
4952:__ZN16LightmapBakeMode8TransferI14SafeBinaryReadEEvRT_
4953:__ZN5Light8TransferI24GenerateTypeTreeTransferEEvRT_
4954:__ZN14ShadowSettings8TransferI24GenerateTypeTreeTransferEEvRT_
4955:__ZN17LightBakingOutput8TransferI24GenerateTypeTreeTransferEEvRT_
4956:__ZN5Light8TransferI17RemapPPtrTransferEEvRT_
4957:__ZN5Light8TransferI18StreamedBinaryReadEEvRT_
4958:__ZN14ShadowSettings8TransferI18StreamedBinaryReadEEvRT_
4959:__ZN17LightBakingOutput8TransferI18StreamedBinaryReadEEvRT_
4960:__ZN5Light8TransferI19StreamedBinaryWriteEEvRT_
4961:__ZN17LightBakingOutput8TransferI19StreamedBinaryWriteEEvRT_
4962:__ZN15SharedLightData16CheckConsistencyEv
4963:__ZN5Light7PrecalcEv
4964:__ZN15SharedLightData22UpdateCookieTextureRefEv
4965:__ZN12LightManager19DirtyDispatchUpdateER5Light
4966:__ZN10TextureRef4InitEP7Textureb
4967:__ZN8Playable13SetInputCountEi
4968:__ZN8Playable14SetOutputCountEi
4969:__ZN8Playable14SetInputWeightEif
4970:__ZNK8Playable14GetInputWeightEi
4971:__ZN8Playable11PrepareDataERK19DirectorVisitorInfo
4972:__ZN8Playable12PrepareFrameERK19DirectorVisitorInfo
4973:__ZN8Playable11SetLeadTimeEf
4974:__ZN8Playable7SetTimeEd
4975:__ZN8Playable7SetDataEyPv
4976:__ZN8Playable13OnAdvanceTimeEd
4977:__ZN8Playable19SetOutputConnectionEPS_i
4978:__ZN8Playable20ClearInputConnectionEi
4979:__ZN8Playable21ClearOutputConnectionEi
4980:__Z8WrapTimedd16DirectorWrapModed
4981:__ZN8Playable19DeallocateResourcesEv
4982:__ZN8Playable7DestroyEv
4983:__ZNK15PlayableMethods21InvokePlayableDestroyER18ScriptingObjectPtrRK9HPlayable
4984:__ZNK8Playable11DerivesFromE17ScriptingClassPtr
4985:__Z11CopyTextureP7TextureS0_
4986:__ZL29CheckCopyTextureBaseArgumentsP7TextureS0_
4987:__ZN9Texture2D18UnshareTextureDataEv
4988:__Z28EnsureRenderTextureIsCreatedP13RenderTexture
4989:__ZN13RenderTexture6CreateERK12ObjectHandleI17RenderSurface_TagP17RenderSurfaceBaseES6_NS_11CreateFlagsE
4990:__ZN13RenderTexture25AdjustDescForGraphicsCapsER17RenderTextureDescR9GfxDeviceRK12GraphicsCapsPS_
4991:__Z12GetMSAALeveli
4992:__Z17GetGraphicsFormat17DepthBufferFormat
4993:__ZN9GfxDevice18AliasRenderSurfaceE9TextureIDP17RenderSurfaceBase
4994:__ZN16RenderTextureMap6UpdateEPK17RenderSurfaceBaseP13RenderTexture
4995:__ZN4core8hash_mapIPK17RenderSurfaceBaseP13RenderTexture19PointerHashFunctionIS3_ENSt3__28equal_toIS3_EEE6insertERKS3_RKS5_
4996:__ZN21ScalableBufferManager21RegisterRenderSurfaceEP17RenderSurfaceBase
4997:__Z23GetGraphicsFormatString14GraphicsFormat
4998:__ZN4core13StringBuilder6appendEi
4999:__Z11IntToStringi
5000:__ZN19RenderBufferManager8Textures13GetTempBufferEii17DepthBufferFormat19RenderTextureFormat22RenderTextureReadWriteNS0_5FlagsE14VRTextureUsagei23RenderTextureMemoryless
5001:__ZN19RenderBufferManager8Textures13GetTempBufferE17RenderTextureDesc
5002:__ZNK6Camera24GetScreenViewportRectIntEb
5003:__ZN13RenderTexture21FixInvalidDescOptionsER17RenderTextureDesc
5004:__ZNK4core8hash_setINS_4pairIK17RenderTextureDescPN19RenderBufferManager8Textures12TextureEntryELb0EEENS_9hash_pairINS5_9KeyHasherES3_S7_EENS_10equal_pairINSt3__28equal_toIS2_EES3_S7_EEE6lookupIS2_EEPNSH_4nodeERKT_
5005:__ZN6Object27AllocateAndAssignInstanceIDEPS_
5006:__ZN13RenderTexture20SetRenderTextureDescERK17RenderTextureDesc
5007:__ZN13RenderTexture18SetUseDynamicScaleEb
5008:__ZN13RenderTexture6CreateENS_11CreateFlagsE
5009:__ZN10MemoryPool8AllocateEj
5010:__ZN13RenderTexture15DiscardContentsEbb
5011:__ZN13RenderTexture24CorrectVerticalTexelSizeEb
5012:__ZN13RenderTexture20SwitchIntoFastMemoryE11SurfaceType12SurfaceUsage15FastMemoryFlagsbf
5013:__ZN10MemoryPool14AllocNewBubbleEv
5014:__ZN13RenderTexture14SetColorFormatE19RenderTextureFormat
5015:__ZN13RenderTexture9SetMipMapEb
5016:__ZN13RenderTexture16SetBindTextureMSEb
5017:__ZN13RenderTexture12SetDimensionE16TextureDimension
5018:__ZN13RenderTextureC2E10MemLabelId18ObjectCreationMode
5019:__ZN7TextureC2E10MemLabelId18ObjectCreationMode
5020:__ZN13RenderTextureD2Ev
5021:__ZN13RenderTextureD0Ev
5022:__ZN13RenderTexture17MainThreadCleanupEv
5023:__ZN13RenderTexture13AwakeFromLoadE17AwakeFromLoadMode
5024:__ZN7Texture16CheckConsistencyEv
5025:__ZN7Texture5ResetEv
5026:__ZNK13RenderTexture22GetTypeVirtualInternalEv
5027:__ZN7Texture7SetNameEPKc
5028:__ZNK13RenderTexture20GetRuntimeMemorySizeEv
5029:__ZN13RenderTexture23VirtualRedirectTransferER19StreamedBinaryWrite
5030:__ZN13RenderTexture23VirtualRedirectTransferER18StreamedBinaryRead
5031:__ZN13RenderTexture23VirtualRedirectTransferER17RemapPPtrTransfer
5032:__ZN13RenderTexture23VirtualRedirectTransferER24GenerateTypeTreeTransfer
5033:__ZN13RenderTexture23VirtualRedirectTransferER14SafeBinaryRead
5034:__ZN13RenderTexture13ApplySettingsEv
5035:__ZNK13RenderTexture21GetShadowSamplingModeEv
5036:__ZNK13RenderTexture14IsDepthTextureEv
5037:__ZNK13RenderTexture12IsMemorylessEv
5038:__ZNK13RenderTexture19IsBoundMultisampledEv
5039:__ZNK13RenderTexture12IsUAVAllowedEv
5040:__ZNK13RenderTexture12GetDataWidthEv
5041:__ZNK13RenderTexture13GetDataHeightEv
5042:__ZNK13RenderTexture20GetTextureLayerCountEv
5043:__ZNK13RenderTexture12GetDimensionEv
5044:__ZNK13RenderTexture10GetVRUsageEv
5045:__ZN7Texture33VerifyFileTextureUploadCompletionEv
5046:__ZNK13RenderTexture16ExtractImageImplEP14ImageReference13ImageBlitModebi
5047:__ZNK13RenderTexture37IsBoundMultisampledOnSecondaryTextureEv
5048:__ZN15TextureSettings38ClearUnsupportedSettingsForColorFormatE19RenderTextureFormat
5049:__ZNK15TextureSettings5ApplyE9TextureID16TextureDimensionb17TextureColorSpace18ShadowSamplingModeb
5050:__ZNK15TextureSettings5ApplyER9GfxDevice9TextureID16TextureDimensionb17TextureColorSpace18ShadowSamplingModeb
5051:__ZNK12GraphicsCaps16FindUploadFormatE14GraphicsFormat11FormatUsage
5052:__ZN13RenderTexture8TransferI14SafeBinaryReadEEvRT_
5053:__ZN7Texture8TransferI14SafeBinaryReadEEvRT_
5054:__ZN15TextureSettings8TransferI14SafeBinaryReadEEvRT_
5055:__ZN13RenderTexture8TransferI24GenerateTypeTreeTransferEEvRT_
5056:__ZN7Texture8TransferI24GenerateTypeTreeTransferEEvRT_
5057:__ZN15TextureSettings8TransferI24GenerateTypeTreeTransferEEvRT_
5058:__ZN13RenderTexture8TransferI18StreamedBinaryReadEEvRT_
5059:__ZN7Texture8TransferI18StreamedBinaryReadEEvRT_
5060:__ZN15TextureSettings8TransferI18StreamedBinaryReadEEvRT_
5061:__ZN13RenderTexture8TransferI19StreamedBinaryWriteEEvRT_
5062:__ZN7Texture8TransferI19StreamedBinaryWriteEEvRT_
5063:__ZN15TextureSettings8TransferI19StreamedBinaryWriteEEvRT_
5064:__ZN15TextureSettings16CheckConsistencyEv
5065:__ZN6Camera24OnRenderTextureDestroyedEP13RenderTexture
5066:__ZN25CameraStackRenderingState16GetTargetTextureEv
5067:__ZN7Texture17MainThreadCleanupEv
5068:__ZN19ShaderPropertySheet26SetMatchingTextureIDToNoneE9TextureID
5069:__ZN25CameraStackRenderingState32GetCameraStackTempEyeTextureDescEv
5070:__ZN25CameraStackRenderingState29GetCameraStackTempTextureDescEv
5071:__ZN19StereoRenderTexture12AllocateTempER17RenderTextureDesc
5072:__Z27GetRenderTextureColorFormatbbb
5073:__ZNK13RenderTexture18GetUseDynamicScaleEv
5074:__ZN6Camera23SetTargetTextureBuffersEP13RenderTextureiPK12ObjectHandleI17RenderSurface_TagP17RenderSurfaceBaseES6_PS1_
5075:__ZN7TextureD2Ev
5076:__ZNK7Texture22GetTypeVirtualInternalEv
5077:__ZN7Texture23VirtualRedirectTransferER24GenerateTypeTreeTransfer
5078:__ZN7Texture23VirtualRedirectTransferER14SafeBinaryRead
5079:__ZN7Texture13ApplySettingsEv
5080:__ZN11NamedObjectC2E10MemLabelId18ObjectCreationMode
5081:__ZN6ObjectC2E10MemLabelId18ObjectCreationMode
5082:__ZN14ConstantString12create_emptyEv
5083:__ZNK15PlayableMethods18InvokePrepareFrameER18ScriptingObjectPtrRK9HPlayableP18ScriptingFrameData
5084:__ZNK15PlayableMethods17InvokePrepareDataER18ScriptingObjectPtrRK9HPlayableP18ScriptingFrameData
5085:__ZN8PlayableD2Ev
5086:__ZN15DirectorManager14ConnectionPool4FreeEP14ConnectionList
5087:__ZN15DirectorManager8FreeNodeEP5HNode
5088:__ZN8PlayableD0Ev
5089:__ZN8Playable7ProcessEiRK9FrameDataPv
5090:__ZNK8Playable7GetTypeEv
5091:__ZN8Playable18SetInputConnectionEPS_ii
5092:__ZN15DirectorManager14ConnectionPool12SwitchBucketEP14ConnectionList
5093:__ZNK15PlayableMethods18InvokeProcessFrameER18ScriptingObjectPtrRK9HPlayableP18ScriptingFrameDataRK9FrameData
5094:__ZNK9Transform18GetWorldScaleLossyEv
5095:__Z25CalculateGlobalScaleLossy23TransformAccessReadOnly
5096:__ZN22DeviceMVPMatricesStateD2Ev
5097:__ZN29ExtractProjectionPlanesHelperILb0EE5ApplyERK10Matrix4x4fP5Plane
5098:__ZL20InitializeGUIShadersv
5099:__ZN9ShaderLab4Pass9ApplyPassEjPK19ShaderPropertySheetR17ShaderPassContextP6ShaderiPKNS_10GrabPassesEPNS_11SubProgramsEPK22DeviceRenderStateBlock
5100:__ZNK9ShaderLab11ShaderState16ApplyShaderStateEjPK19ShaderPropertySheetRK17ShaderPassContextP6ShaderPNS_4PassEPNS_11SubProgramsEPK22DeviceRenderStateBlock
5101:__ZN9ShaderLab10GrabPasses13ApplyGrabPassERKNS_16FastPropertyNameER17ShaderPassContextRKS0_
5102:__ZN9ShaderLab10GrabPasses23ApplyGrabPassMainThreadERKNS_16FastPropertyNameER17ShaderPassContext
5103:__ZN9ShaderLabL15GetSizedTextureEPK6CameraRKNS_16FastPropertyNameEbbRb
5104:__ZN13RenderTexture17SetGlobalPropertyERKN9ShaderLab16FastPropertyNameER17ShaderPassContext
5105:__ZN9ShaderLabL27GetDesiredRenderTextureDescEPK6Camera
5106:__ZN13RenderTexture9GetActiveEi
5107:__ZN13RenderTexture10GrabPixelsEiiii
5108:__ZN7Texture13SetFilterModeE17TextureFilterMode
5109:__ZN13RenderTexture10GrabPixelsE12ObjectHandleI17RenderSurface_TagP17RenderSurfaceBaseES4_iiii
5110:__ZN19ShaderPropertySheet38CopyTextureWithAuxiliaryPropertiesFromERKN9ShaderLab16FastPropertyNameERKS_
5111:__ZNK9ShaderLab11ShaderState20FindSubProgramsToUseEPK6ShaderPKNS_4PassERNS_11SubProgramsERK17ShaderPassContext
5112:__ZN14GraphicsHelper28PrepareShaderParameterBufferER13dynamic_arrayIhLj4EERA6_P10GpuProgramRA6_PK20GpuProgramParametersRA6_PKhRKN9ShaderLab11SubProgramsEPK19ShaderPropertySheetSM_
5113:__ZNK22DeviceRenderStateBlock8OverrideERN9ShaderLab11ShaderState12DeviceStatesERi
5114:__ZNK20GpuProgramParameters13PrepareValuesEPK19ShaderPropertySheetS2_R13dynamic_arrayIhLj4EEjP12GfxPatchInfoPb
5115:__ZL22PrepareValueParametersI21FullParameterPreparerEvRK13dynamic_arrayIN20GpuProgramParameters14ValueParameterELj0EEjjjRS1_IhLj4EERKT_
5116:__ZNK21FullParameterPreparer16OnPrepareTextureERPKN9ShaderLab6TexEnvERKN20GpuProgramParameters16TextureParameterEj
5117:__ZNK21FullParameterPreparer22OnPrepareComputeBufferER15ComputeBufferIDRKN20GpuProgramParameters15BufferParameterEj
5118:__ZN9ShaderLab11shaderprops16GetComputeBufferEPK19ShaderPropertySheetS3_NS_16FastPropertyNameE
5119:__ZN9ShaderLab11shaderprops9GetTexEnvEPK19ShaderPropertySheetS3_NS_16FastPropertyNameE16TextureDimensionb
5120:__ZNK21FullParameterPreparer13OnPrepareImplIfEEbR12PartialArrayIT_EN8GfxPatch4TypeERKN20GpuProgramParameters14ValueParameterERKN9ShaderLab11shaderprops16PropertyLocationEj
5121:__ZN9ShaderLab11shaderprops9GetVectorEPK19ShaderPropertySheetS3_NS_16FastPropertyNameE
5122:__ZN9ShaderLab11shaderprops9GetMatrixEPK19ShaderPropertySheetS3_NS_16FastPropertyNameE
5123:__ZN13dynamic_arrayI16ShaderKeywordSetLj0EE6insertEPS0_PKS0_S4_
5124:__ZN9ShaderLab11ShaderState25RemoveUnsupportedProgramsEPK6Shader
5125:__ZNK9ShaderLab10SubProgram14EnsureCompiledEv
5126:__ZN6Shader27MarkShaderStateNotSupportedEPKS_
5127:__ZN6Shader19MarkShaderHasErrorsEPKS_
5128:__ZNK9ShaderLab11ShaderState34ShouldRemoveAnyUnsupportedProgramsEv
5129:__ZNK9ShaderLab7Program19HasMatchingVariantsERK13dynamic_arrayI16ShaderKeywordSetLj0EE
5130:__ZN9ShaderLab7Program14RemoveVariantsERK13dynamic_arrayI16ShaderKeywordSetLj0EE
5131:__Z15GetScriptMapperv
5132:__ZN12ScriptMapper10FindShaderERKN4core12basic_stringIcNS0_20StringStorageDefaultIcEEEE
5133:__ZN8Material14CreateMaterialER6ShaderN6Object9HideFlagsEb
5134:__ZN8Material9GetShaderEv
5135:__ZN8MaterialD2Ev
5136:__ZN8MaterialD0Ev
5137:__ZN8Material17MainThreadCleanupEv
5138:__ZN8Material13AwakeFromLoadE17AwakeFromLoadMode
5139:__ZN8Material5ResetEv
5140:__ZNK8Material22GetTypeVirtualInternalEv
5141:__ZNK8Material20GetRuntimeMemorySizeEv
5142:__ZN8Material23VirtualRedirectTransferER19StreamedBinaryWrite
5143:__ZN8Material23VirtualRedirectTransferER18StreamedBinaryRead
5144:__ZN8Material23VirtualRedirectTransferER17RemapPPtrTransfer
5145:__ZN8Material23VirtualRedirectTransferER24GenerateTypeTreeTransfer
5146:__ZN8Material23VirtualRedirectTransferER14SafeBinaryRead
5147:__ZN8Material8TransferI14SafeBinaryReadEEvRT_
5148:__ZN14SafeBinaryRead19TransferSTLStyleMapINSt3__23mapIN4core12basic_stringIcNS3_20StringStorageDefaultIcEEEES7_NS1_4lessIS7_EE13stl_allocatorINS1_4pairIKS7_S7_EEL18MemLabelIdentifier1ELi16EEEEEEvRT_17TransferMetaFlags
5149:__ZN14SafeBinaryRead21TransferSTLStyleArrayINSt3__26vectorIN4core12basic_stringIcNS3_20StringStorageDefaultIcEEEE13stl_allocatorIS7_L18MemLabelIdentifier1ELi16EEEEEEvRT_17TransferMetaFlags
5150:__ZNSt3__26vectorINS_4pairI11ShaderTagIDS2_EENS_9allocatorIS3_EEE6insertENS_11__wrap_iterIPKS3_EEOS3_
5151:__ZN18UnityPropertySheet8TransferI14SafeBinaryReadEEvRT_
5152:__ZNSt3__26__treeINS_12__value_typeIN4core12basic_stringIcNS2_20StringStorageDefaultIcEEEES6_EENS_19__map_value_compareIS6_S7_NS_4lessIS6_EELb1EEE13stl_allocatorIS7_L18MemLabelIdentifier1ELi16EEE7destroyEPNS_11__tree_nodeIS7_PvEE
5153:__ZN14SafeBinaryRead19TransferSTLStyleMapINSt3__23mapI39DeprecatedFastPropertyNameSerializationN18UnityPropertySheet11UnityTexEnvENS1_4lessIS3_EENS1_9allocatorINS1_4pairIKS3_S5_EEEEEEEEvRT_17TransferMetaFlags
5154:__ZN14SafeBinaryRead19TransferSTLStyleMapINSt3__23mapI39DeprecatedFastPropertyNameSerializationfNS1_4lessIS3_EENS1_9allocatorINS1_4pairIKS3_fEEEEEEEEvRT_17TransferMetaFlags
5155:__ZN14SafeBinaryRead19TransferSTLStyleMapINSt3__23mapI39DeprecatedFastPropertyNameSerialization10ColorRGBAfNS1_4lessIS3_EENS1_9allocatorINS1_4pairIKS3_S4_EEEEEEEEvRT_17TransferMetaFlags
5156:__ZN14SafeBinaryRead19TransferSTLStyleMapINSt3__23mapIN9ShaderLab16FastPropertyNameEN18UnityPropertySheet11UnityTexEnvENS1_4lessIS4_EENS1_9allocatorINS1_4pairIKS4_S6_EEEEEEEEvRT_17TransferMetaFlags
5157:__ZN14SafeBinaryRead19TransferSTLStyleMapINSt3__23mapIN9ShaderLab16FastPropertyNameEfNS1_4lessIS4_EENS1_9allocatorINS1_4pairIKS4_fEEEEEEEEvRT_17TransferMetaFlags
5158:__ZN14SafeBinaryRead19TransferSTLStyleMapINSt3__23mapIN9ShaderLab16FastPropertyNameE10ColorRGBAfNS1_4lessIS4_EENS1_9allocatorINS1_4pairIKS4_S5_EEEEEEEEvRT_17TransferMetaFlags
5159:__ZNSt3__26__treeINS_12__value_typeIN9ShaderLab16FastPropertyNameE10ColorRGBAfEENS_19__map_value_compareIS3_S5_NS_4lessIS3_EELb1EEENS_9allocatorIS5_EEE7destroyEPNS_11__tree_nodeIS5_PvEE
5160:__ZN15SerializeTraitsINSt3__24pairIN9ShaderLab16FastPropertyNameE10ColorRGBAfEEE8TransferI14SafeBinaryReadEEvRS5_RT_
5161:__ZNSt3__26__treeINS_12__value_typeIN9ShaderLab16FastPropertyNameEfEENS_19__map_value_compareIS3_S4_NS_4lessIS3_EELb1EEENS_9allocatorIS4_EEE7destroyEPNS_11__tree_nodeIS4_PvEE
5162:__ZN15SerializeTraitsINSt3__24pairIN9ShaderLab16FastPropertyNameEfEEE8TransferI14SafeBinaryReadEEvRS4_RT_
5163:__ZNSt3__26__treeINS_12__value_typeIN9ShaderLab16FastPropertyNameEN18UnityPropertySheet11UnityTexEnvEEENS_19__map_value_compareIS3_S6_NS_4lessIS3_EELb1EEENS_9allocatorIS6_EEE7destroyEPNS_11__tree_nodeIS6_PvEE
5164:__ZN15SerializeTraitsINSt3__24pairIN9ShaderLab16FastPropertyNameEN18UnityPropertySheet11UnityTexEnvEEEE8TransferI14SafeBinaryReadEEvRS6_RT_
5165:__ZN18UnityPropertySheet11UnityTexEnv8TransferI14SafeBinaryReadEEvRT_
5166:__ZNSt3__26__treeINS_12__value_typeI39DeprecatedFastPropertyNameSerialization10ColorRGBAfEENS_19__map_value_compareIS2_S4_NS_4lessIS2_EELb1EEENS_9allocatorIS4_EEE7destroyEPNS_11__tree_nodeIS4_PvEE
5167:__ZN15SerializeTraitsINSt3__24pairI39DeprecatedFastPropertyNameSerialization10ColorRGBAfEEE8TransferI14SafeBinaryReadEEvRS4_RT_
5168:__ZN39DeprecatedFastPropertyNameSerialization8TransferI14SafeBinaryReadEEvRT_
5169:__ZNSt3__26__treeINS_12__value_typeI39DeprecatedFastPropertyNameSerializationfEENS_19__map_value_compareIS2_S3_NS_4lessIS2_EELb1EEENS_9allocatorIS3_EEE7destroyEPNS_11__tree_nodeIS3_PvEE
5170:__ZNSt3__26__treeINS_12__value_typeI39DeprecatedFastPropertyNameSerializationN18UnityPropertySheet11UnityTexEnvEEENS_19__map_value_compareIS2_S5_NS_4lessIS2_EELb1EEENS_9allocatorIS5_EEE7destroyEPNS_11__tree_nodeIS5_PvEE
5171:__ZN15SerializeTraitsINSt3__24pairI39DeprecatedFastPropertyNameSerializationN18UnityPropertySheet11UnityTexEnvEEEE8TransferI14SafeBinaryReadEEvRS5_RT_
5172:__ZNSt3__214__split_bufferINS_4pairI11ShaderTagIDS2_EERNS_9allocatorIS3_EEE9push_backEOS3_
5173:__ZN18SharedMaterialDataD2Ev
5174:__ZN18SharedMaterialDataD0Ev
5175:__ZN24MaterialDisplayListCache20MaterialDisplayLists22InvalidateDisplayListsEv
5176:__Z14resize_trimmedINSt3__26vectorIN4core12basic_stringIcNS2_20StringStorageDefaultIcEEEE13stl_allocatorIS6_L18MemLabelIdentifier1ELi16EEEEEvRT_j
5177:__ZNSt3__26vectorIN4core12basic_stringIcNS1_20StringStorageDefaultIcEEEE13stl_allocatorIS5_L18MemLabelIdentifier1ELi16EEE7reserveEj
5178:__ZNSt3__26vectorIN4core12basic_stringIcNS1_20StringStorageDefaultIcEEEE13stl_allocatorIS5_L18MemLabelIdentifier1ELi16EEE6assignINS_11__wrap_iterIPS5_EEEENS_9enable_ifIXaasr21__is_forward_iteratorIT_EE5valuesr16is_constructibleIS5_NS_15iterator_traitsISF_E9referenceEEE5valueEvE4typeESF_SF_
5179:__ZNSt3__26vectorIN4core12basic_stringIcNS1_20StringStorageDefaultIcEEEE13stl_allocatorIS5_L18MemLabelIdentifier1ELi16EEE8__appendEj
5180:__ZNSt3__26vectorIN4core12basic_stringIcNS1_20StringStorageDefaultIcEEEE13stl_allocatorIS5_L18MemLabelIdentifier1ELi16EEEC2INS_11__wrap_iterIPS5_EEEET_SE_RKS8_PNS_9enable_ifIXaasr21__is_forward_iteratorISE_EE5valuesr16is_constructibleIS5_NS_15iterator_traitsISE_E9referenceEEE5valueEvE4typeE
5181:__ZN15SerializeTraitsINSt3__24pairIN4core12basic_stringIcNS2_20StringStorageDefaultIcEEEES6_EEE8TransferI14SafeBinaryReadEEvRS7_RT_
5182:__ZNSt3__26__treeINS_12__value_typeIN4core12basic_stringIcNS2_20StringStorageDefaultIcEEEES6_EENS_19__map_value_compareIS6_S7_NS_4lessIS6_EELb1EEE13stl_allocatorIS7_L18MemLabelIdentifier1ELi16EEE25__emplace_unique_key_argsIS6_JRNS_4pairIS6_S6_EEEEENSH_INS_15__tree_iteratorIS7_PNS_11__tree_nodeIS7_PvEEiEEbEERKT_DpOT0_
5183:__ZNSt3__26__treeINS_12__value_typeIN4core12basic_stringIcNS2_20StringStorageDefaultIcEEEES6_EENS_19__map_value_compareIS6_S7_NS_4lessIS6_EELb1EEE13stl_allocatorIS7_L18MemLabelIdentifier1ELi16EEE16__construct_nodeIJRNS_4pairIS6_S6_EEEEENS_10unique_ptrINS_11__tree_nodeIS7_PvEENS_22__tree_node_destructorISC_ISN_LSD_1ELi16EEEEEEDpOT_
5184:__ZN8Material8TransferI24GenerateTypeTreeTransferEEvRT_
5185:__ZN24GenerateTypeTreeTransfer19TransferSTLStyleMapINSt3__23mapIN4core12basic_stringIcNS3_20StringStorageDefaultIcEEEES7_NS1_4lessIS7_EE13stl_allocatorINS1_4pairIKS7_S7_EEL18MemLabelIdentifier1ELi16EEEEEEvRT_17TransferMetaFlags
5186:__ZN18UnityPropertySheet8TransferI24GenerateTypeTreeTransferEEvRT_
5187:__ZN15SerializeTraitsIN18UnityPropertySheet11UnityTexEnvEE8TransferI24GenerateTypeTreeTransferEEvRS1_RT_
5188:__ZN15SerializeTraitsINSt3__24pairIN4core12basic_stringIcNS2_20StringStorageDefaultIcEEEES6_EEE8TransferI24GenerateTypeTreeTransferEEvRS7_RT_
5189:__ZN8Material8TransferI17RemapPPtrTransferEEvRT_
5190:__ZN8Material8TransferI18StreamedBinaryReadEEvRT_
5191:__ZN18StreamedBinaryRead19TransferSTLStyleMapINSt3__23mapIN4core12basic_stringIcNS3_20StringStorageDefaultIcEEEES7_NS1_4lessIS7_EE13stl_allocatorINS1_4pairIKS7_S7_EEL18MemLabelIdentifier1ELi16EEEEEEvRT_17TransferMetaFlags
5192:__ZN18StreamedBinaryRead19TransferSTLStyleMapINSt3__23mapIN9ShaderLab16FastPropertyNameEN18UnityPropertySheet11UnityTexEnvENS1_4lessIS4_EENS1_9allocatorINS1_4pairIKS4_S6_EEEEEEEEvRT_17TransferMetaFlags
5193:__ZN18StreamedBinaryRead19TransferSTLStyleMapINSt3__23mapIN9ShaderLab16FastPropertyNameEfNS1_4lessIS4_EENS1_9allocatorINS1_4pairIKS4_fEEEEEEEEvRT_17TransferMetaFlags
5194:__ZN18StreamedBinaryRead19TransferSTLStyleMapINSt3__23mapIN9ShaderLab16FastPropertyNameE10ColorRGBAfNS1_4lessIS4_EENS1_9allocatorINS1_4pairIKS4_S5_EEEEEEEEvRT_17TransferMetaFlags
5195:__ZN18StreamedBinaryRead8TransferINSt3__24pairIN9ShaderLab16FastPropertyNameEfEEEEvRT_PKc17TransferMetaFlags
5196:__ZN18UnityPropertySheet11UnityTexEnv8TransferI18StreamedBinaryReadEEvRT_
5197:__ZN8Material8TransferI19StreamedBinaryWriteEEvRT_
5198:__ZN9shadertag16GetShaderTagNameE11ShaderTagID
5199:__ZNSt3__26__treeINS_12__value_typeIN4core12basic_stringIcNS2_20StringStorageDefaultIcEEEES6_EENS_19__map_value_compareIS6_S7_NS_4lessIS6_EELb1EEE13stl_allocatorIS7_L18MemLabelIdentifier1ELi16EEE25__emplace_unique_key_argsIS6_JRKNS_21piecewise_construct_tENS_5tupleIJOS6_EEENSK_IJEEEEEENS_4pairINS_15__tree_iteratorIS7_PNS_11__tree_nodeIS7_PvEEiEEbEERKT_DpOT0_
5200:__ZN18UnityPropertySheet8TransferI19StreamedBinaryWriteEEvRT_
5201:__Z36UnityPropertySheet_MakeSortedTexEnvsRKNSt3__23mapIN9ShaderLab16FastPropertyNameEN18UnityPropertySheet11UnityTexEnvENS_4lessIS2_EENS_9allocatorINS_4pairIKS2_S4_EEEEEER10vector_mapIS2_S4_S6_NS7_INS8_IS2_S4_EEEEE
5202:__ZN15SerializeTraitsIN9ShaderLab16FastPropertyNameEE8TransferI19StreamedBinaryWriteEEvRS1_RT_
5203:__ZN18UnityPropertySheet11UnityTexEnv8TransferI19StreamedBinaryWriteEEvRT_
5204:__Z35UnityPropertySheet_MakeSortedFloatsRKNSt3__23mapIN9ShaderLab16FastPropertyNameEfNS_4lessIS2_EENS_9allocatorINS_4pairIKS2_fEEEEEER10vector_mapIS2_fS4_NS5_INS6_IS2_fEEEEE
5205:__Z35UnityPropertySheet_MakeSortedColorsRKNSt3__23mapIN9ShaderLab16FastPropertyNameE10ColorRGBAfNS_4lessIS2_EENS_9allocatorINS_4pairIKS2_S3_EEEEEER10vector_mapIS2_S3_S5_NS6_INS7_IS2_S3_EEEEE
5206:__ZL15SortColorByNameRKNSt3__24pairIN9ShaderLab16FastPropertyNameE10ColorRGBAfEES6_
5207:__ZNSt3__26__sortIRPFbRKNS_4pairIN9ShaderLab16FastPropertyNameE10ColorRGBAfEES7_EPS5_EEvT0_SC_T_
5208:__ZNSt3__26vectorINS_4pairIN9ShaderLab16FastPropertyNameE10ColorRGBAfEENS_9allocatorIS5_EEE21__push_back_slow_pathIS5_EEvOT_
5209:__ZNSt3__27__sort3IRPFbRKNS_4pairIN9ShaderLab16FastPropertyNameE10ColorRGBAfEES7_EPS5_EEjT0_SC_SC_T_
5210:__ZNSt3__27__sort4IRPFbRKNS_4pairIN9ShaderLab16FastPropertyNameE10ColorRGBAfEES7_EPS5_EEjT0_SC_SC_SC_T_
5211:__ZNSt3__27__sort5IRPFbRKNS_4pairIN9ShaderLab16FastPropertyNameE10ColorRGBAfEES7_EPS5_EEjT0_SC_SC_SC_SC_T_
5212:__ZNSt3__227__insertion_sort_incompleteIRPFbRKNS_4pairIN9ShaderLab16FastPropertyNameE10ColorRGBAfEES7_EPS5_EEbT0_SC_T_
5213:__ZNSt3__26__sortIRPFbRKNS_4pairIN9ShaderLab16FastPropertyNameEfEES6_EPS4_EEvT0_SB_T_
5214:__ZNSt3__27__sort3IRPFbRKNS_4pairIN9ShaderLab16FastPropertyNameEfEES6_EPS4_EEjT0_SB_SB_T_
5215:__ZNSt3__27__sort5IRPFbRKNS_4pairIN9ShaderLab16FastPropertyNameEfEES6_EPS4_EEjT0_SB_SB_SB_SB_T_
5216:__ZNSt3__227__insertion_sort_incompleteIRPFbRKNS_4pairIN9ShaderLab16FastPropertyNameEfEES6_EPS4_EEbT0_SB_T_
5217:__ZNSt3__26__sortIRPFbRKNS_4pairIN9ShaderLab16FastPropertyNameEN18UnityPropertySheet11UnityTexEnvEEES8_EPS6_EEvT0_SD_T_
5218:__ZNSt3__26vectorINS_4pairIN9ShaderLab16FastPropertyNameEN18UnityPropertySheet11UnityTexEnvEEENS_9allocatorIS6_EEE21__push_back_slow_pathIS6_EEvOT_
5219:__ZNSt3__27__sort3IRPFbRKNS_4pairIN9ShaderLab16FastPropertyNameEN18UnityPropertySheet11UnityTexEnvEEES8_EPS6_EEjT0_SD_SD_T_
5220:__ZNSt3__27__sort4IRPFbRKNS_4pairIN9ShaderLab16FastPropertyNameEN18UnityPropertySheet11UnityTexEnvEEES8_EPS6_EEjT0_SD_SD_SD_T_
5221:__ZNSt3__27__sort5IRPFbRKNS_4pairIN9ShaderLab16FastPropertyNameEN18UnityPropertySheet11UnityTexEnvEEES8_EPS6_EEjT0_SD_SD_SD_SD_T_
5222:__ZNSt3__227__insertion_sort_incompleteIRPFbRKNS_4pairIN9ShaderLab16FastPropertyNameEN18UnityPropertySheet11UnityTexEnvEEES8_EPS6_EEbT0_SD_T_
5223:__ZN8Material15ResetWithShaderEP6Shader
5224:__ZN19ShaderPropertySheet5ClearEb
5225:__ZN8Material17UpdateToNewShaderEb
5226:__ZN8Material14SetOverrideTagE11ShaderTagIDS0_
5227:__ZN8keywords18StringToKeywordSetERKN4core12basic_stringIcNS0_20StringStorageDefaultIcEEEER16ShaderKeywordSet
5228:__ZN15NameToObjectMapI6ShaderNSt3__23mapI4PPtrIS0_EN4core12basic_stringIcNS5_20StringStorageDefaultIcEEEENS1_4lessIS4_EENS1_9allocatorINS1_4pairIKS4_S9_EEEEEENS1_8multimapIS9_S4_NSA_IS9_EENSC_INSD_IKS9_S4_EEEEEEE4FindERSK_
5229:__ZNSt3__26__treeINS_12__value_typeIN4core12basic_stringIcNS2_20StringStorageDefaultIcEEEE4PPtrI6ShaderEEENS_19__map_value_compareIS6_SA_NS_4lessIS6_EELb1EEENS_9allocatorISA_EEE19__equal_range_multiIS6_EENS_4pairINS_15__tree_iteratorISA_PNS_11__tree_nodeISA_PvEEiEESP_EERKT_
5230:__ZN22DeviceMVPMatricesStateC2ER9GfxDevice
5231:__ZN19ShaderPropertySheet18SetTextureUnscaledERK23FastTexturePropertyNameP7Texture8Vector2fS5_
5232:__ZN19ShaderPropertySheet24SetTextureScaleAndOffsetERK23FastTexturePropertyName8Vector2fS3_
5233:__ZN19ShaderPropertySheetC2E10MemLabelIdRKS_
5234:__ZNK14PlayableOutput7GetTypeEv
5235:__ZNK14PlayableOutput11DerivesFromE17ScriptingClassPtr
5236:__ZN14PlayableOutput17SetSourcePlayableEP8Playable
5237:__ZNK14PlayableOutput17GetSourcePlayableEv
5238:__ZN20BaseBehaviourManagerD2Ev
5239:__ZNSt3__26__treeINS_12__value_typeIiNS_4pairIP4ListI8ListNodeI9BehaviourEES8_EEEENS_19__map_value_compareIiSA_NS_4lessIiEELb1EEENS_9allocatorISA_EEE7destroyEPNS_11__tree_nodeISA_PvEE
5240:__ZN18DelayedCallManagerD2Ev
5241:__ZN18DelayedCallManagerD0Ev
5242:__ZN18DelayedCallManager17MainThreadCleanupEv
5243:__ZNK18DelayedCallManager22GetTypeVirtualInternalEv
5244:__ZN18DelayedCallManager6UpdateEi
5245:__ZN18DelayedCallManager8ClearAllEv
5246:__ZNSt3__26__treeIN18DelayedCallManager8CallbackENS_4lessIS2_EENS_9allocatorIS2_EEE7destroyEPNS_11__tree_nodeIS2_PvEE
5247:__ZN6SpriteD2Ev
5248:__ZN6SpriteD0Ev
5249:__ZN6Sprite17MainThreadCleanupEv
5250:__ZN6Sprite13AwakeFromLoadE17AwakeFromLoadMode
5251:__ZNK6Sprite22GetTypeVirtualInternalEv
5252:__ZN6Sprite23VirtualRedirectTransferER19StreamedBinaryWrite
5253:__ZN6Sprite23VirtualRedirectTransferER18StreamedBinaryRead
5254:__ZN6Sprite23VirtualRedirectTransferER17RemapPPtrTransfer
5255:__ZN6Sprite23VirtualRedirectTransferER24GenerateTypeTreeTransfer
5256:__ZN6Sprite23VirtualRedirectTransferER14SafeBinaryRead
5257:__ZN6Sprite8TransferI14SafeBinaryReadEEvRT_
5258:__ZN16SpriteRenderData8TransferI14SafeBinaryReadEEvRT_
5259:__ZN14SafeBinaryRead21TransferSTLStyleArrayINSt3__26vectorI13dynamic_arrayI8Vector2fLj0EENS1_9allocatorIS5_EEEEEEvRT_17TransferMetaFlags
5260:__ZN14SafeBinaryRead21TransferSTLStyleArrayI13dynamic_arrayI10SpriteBoneLj0EEEEvRT_17TransferMetaFlags
5261:__ZN13dynamic_arrayI10SpriteBoneLj0EE18resize_initializedEj12ResizePolicy
5262:__ZN10SpriteBone8TransferI14SafeBinaryReadEEvRT_
5263:__Z14resize_trimmedINSt3__26vectorI13dynamic_arrayI8Vector2fLj0EENS0_9allocatorIS4_EEEEEvRT_j
5264:__ZN14SafeBinaryRead21TransferSTLStyleArrayI13dynamic_arrayI8Vector2fLj0EEEEvRT_17TransferMetaFlags
5265:__ZNSt3__26vectorI13dynamic_arrayI8Vector2fLj0EENS_9allocatorIS3_EEE7reserveEj
5266:__ZNSt3__26vectorI13dynamic_arrayI8Vector2fLj0EENS_9allocatorIS3_EEE6assignINS_11__wrap_iterIPS3_EEEENS_9enable_ifIXaasr21__is_forward_iteratorIT_EE5valuesr16is_constructibleIS3_NS_15iterator_traitsISC_E9referenceEEE5valueEvE4typeESC_SC_
5267:__ZNSt3__26vectorI13dynamic_arrayI8Vector2fLj0EENS_9allocatorIS3_EEE8__appendEj
5268:__ZNSt3__26vectorI13dynamic_arrayI8Vector2fLj0EENS_9allocatorIS3_EEEC2INS_11__wrap_iterIPS3_EEEET_SB_RKS5_PNS_9enable_ifIXaasr21__is_forward_iteratorISB_EE5valuesr16is_constructibleIS3_NS_15iterator_traitsISB_E9referenceEEE5valueEvE4typeE
5269:__ZN14SafeBinaryRead21TransferSTLStyleArrayI13dynamic_arrayI7SubMeshLj0EEEEvRT_17TransferMetaFlags
5270:__ZN14SafeBinaryRead21TransferSTLStyleArrayI13dynamic_arrayI12SpriteVertexLj0EEEEvRT_17TransferMetaFlags
5271:__ZN14SafeBinaryRead21TransferSTLStyleArrayI13dynamic_arrayItLj0EEEEvRT_17TransferMetaFlags
5272:__Z23SetSpriteMeshIndexCountP14SharedMeshDataj
5273:__Z24SetSpriteMeshVertexCountP14SharedMeshDataj
5274:__ZN10VertexData8TransferI14SafeBinaryReadEEvRT_
5275:__ZN14SafeBinaryRead21TransferSTLStyleArrayI13dynamic_arrayI10Matrix4x4fLj16EEEEvRT_17TransferMetaFlags
5276:__ZN14SafeBinaryRead21TransferSTLStyleArrayI13dynamic_arrayI12BoneWeights4Lj0EEEEvRT_17TransferMetaFlags
5277:__ZN16SpriteRenderData14SetBoneWeightsEPK12BoneWeights4i
5278:__ZN12BoneWeights48TransferI14SafeBinaryReadEEvRT_
5279:__ZN10Matrix4x4f8TransferI14SafeBinaryReadEEvRT_
5280:__ZN14SafeBinaryRead21TransferSTLStyleArrayI13dynamic_arrayI11ChannelInfoLj0EEEEvRT_17TransferMetaFlags
5281:__Z33BuildLegacyShaderChannelsFromMaskR13dynamic_arrayI11ChannelInfoLj0EEj
5282:__ZN10VertexData27ConvertLegacyShaderChannelsERK13dynamic_arrayI11ChannelInfoLj0EE
5283:__ZN14SafeBinaryRead16TransferTypelessEPjPKc17TransferMetaFlags
5284:__ZN14SafeBinaryRead20TransferTypelessDataEjPvi
5285:__ZN10VertexDataC2E10MemLabelIdRKS_17ShaderChannelMaskRK19VertexStreamsLayoutRK20VertexChannelsLayout
5286:__ZN15SerializeTraitsI11ChannelInfoE8TransferI14SafeBinaryReadEEvRS0_RT_
5287:__ZN14SafeBinaryRead8TransferItEEvRT_PKc17TransferMetaFlags
5288:__ZN12SpriteVertex8TransferI14SafeBinaryReadEEvRT_
5289:__ZN13dynamic_arrayI7SubMeshLj0EE18resize_initializedEj12ResizePolicy
5290:__ZN7SubMesh8TransferI14SafeBinaryReadEEvRT_
5291:__ZN6Sprite8TransferI24GenerateTypeTreeTransferEEvRT_
5292:__ZN16SpriteRenderData8TransferI24GenerateTypeTreeTransferEEvRT_
5293:__ZN24GenerateTypeTreeTransfer8TransferINSt3__26vectorI13dynamic_arrayI8Vector2fLj0EENS1_9allocatorIS5_EEEEEEvRT_PKc17TransferMetaFlags
5294:__ZN15SerializeTraitsI13dynamic_arrayI10SpriteBoneLj0EEE8TransferI24GenerateTypeTreeTransferEEvRS2_RT_
5295:__ZN10SpriteBone8TransferI24GenerateTypeTreeTransferEEvRT_
5296:__ZN7SubMesh8TransferI24GenerateTypeTreeTransferEEvRT_
5297:__ZN10VertexData8TransferI24GenerateTypeTreeTransferEEvRT_
5298:__ZN10Matrix4x4f8TransferI24GenerateTypeTreeTransferEEvRT_
5299:__ZN11ChannelInfo8TransferI24GenerateTypeTreeTransferEEvRT_
5300:__ZN24GenerateTypeTreeTransfer16TransferTypelessEPjPKc17TransferMetaFlags
5301:__ZN16SpriteRenderData8TransferI17RemapPPtrTransferEEvRT_
5302:__ZN6Sprite8TransferI18StreamedBinaryReadEEvRT_
5303:__ZN16SpriteRenderData8TransferI18StreamedBinaryReadEEvRT_
5304:__ZN18StreamedBinaryRead21TransferSTLStyleArrayI13dynamic_arrayI8Vector2fLj0EEEEvRT_17TransferMetaFlags
5305:__ZN10SpriteBone8TransferI18StreamedBinaryReadEEvRT_
5306:__ZN7SubMesh8TransferI18StreamedBinaryReadEEvRT_
5307:__ZN10VertexData8TransferI18StreamedBinaryReadEEvRT_
5308:__ZN18StreamedBinaryRead21TransferSTLStyleArrayI13dynamic_arrayI10Matrix4x4fLj16EEEEvRT_17TransferMetaFlags
5309:__ZN10Matrix4x4f8TransferI18StreamedBinaryReadEEvRT_
5310:__ZN11ChannelInfo8TransferI18StreamedBinaryReadEEvRT_
5311:__ZN18StreamedBinaryRead16TransferTypelessEPjPKc17TransferMetaFlags
5312:__ZN18StreamedBinaryRead20TransferTypelessDataEjPvi
5313:__ZN12CachedReader4SkipEj
5314:__ZN6Sprite8TransferI19StreamedBinaryWriteEEvRT_
5315:__ZN16SpriteRenderData8TransferI19StreamedBinaryWriteEEvRT_
5316:__ZN19StreamedBinaryWrite8TransferI13dynamic_arrayI8Vector2fLj0EEEEvRT_PKc17TransferMetaFlags
5317:__ZN10SpriteBone8TransferI19StreamedBinaryWriteEEvRT_
5318:__ZN7SubMesh8TransferI19StreamedBinaryWriteEEvRT_
5319:__ZN10VertexData8TransferI19StreamedBinaryWriteEEvRT_
5320:__ZN10Matrix4x4f8TransferI19StreamedBinaryWriteEEvRT_
5321:__ZN11ChannelInfo8TransferI19StreamedBinaryWriteEEvRT_
5322:__ZN19StreamedBinaryWrite16TransferTypelessEPjPKc17TransferMetaFlags
5323:__ZN19StreamedBinaryWrite20TransferTypelessDataEjPvi
5324:__ZN12CachedWriter5WriteEPKvj
5325:__ZN6Sprite19LoadAtlasRenderDataEb
5326:__ZN18SpriteAtlasManager8GetAtlasERK4PPtrI6SpriteE
5327:__ZNK11SpriteAtlas20GetRuntimeRenderDataEPK6Sprite
5328:__ZNK4core8hash_setINS_4pairIKNSt3__24pairI9UnityGUIDxEE15SpriteAtlasDataLb0EEENS_9hash_pairI23SpriteRenderDataKeyHashS6_S7_EENS_10equal_pairINS2_8equal_toIS5_EES6_S7_EEE6lookupIS5_EEPNSG_4nodeERKT_
5329:__ZN13sorted_vectorI4PPtrI11SpriteAtlasENSt3__24lessIS2_EE13stl_allocatorIS2_L18MemLabelIdentifier1ELi16EEE21sort_clear_duplicatesEv
5330:__ZNK4core8hash_setINS_4pairIKNS_12basic_stringIcNS_20StringStorageDefaultIcEEEE10vector_setI4PPtrI11SpriteAtlasENSt3__24lessISA_EE13stl_allocatorISA_L18MemLabelIdentifier81ELi16EEELb1EEENS_9hash_pairINS_4hashIS5_EES6_SH_EENS_10equal_pairINSB_8equal_toIS5_EES6_SH_EEE6lookupIS5_EEPNSR_4nodeERKT_
5331:__ZN18SpriteAtlasManager19AddRequestingSpriteE4PPtrI6SpriteE
5332:__ZNK4core8hash_setINS_4pairIKNS_12basic_stringIcNS_20StringStorageDefaultIcEEEE13dynamic_arrayI4PPtrI6SpriteELj0EELb1EEENS_9hash_pairINS_4hashIS5_EES6_SB_EENS_10equal_pairINSt3__28equal_toIS5_EES6_SB_EEE6lookupIS5_EEPNSM_4nodeERKT_
5333:__ZN4core8hash_mapINS_12basic_stringIcNS_20StringStorageDefaultIcEEEE13dynamic_arrayI4PPtrI6SpriteELj0EENS_4hashIS4_EENSt3__28equal_toIS4_EEEixERKS4_
5334:__ZN13sorted_vectorIN4core12basic_stringIcNS0_20StringStorageDefaultIcEEEENSt3__24lessIS4_EE13stl_allocatorIS4_L18MemLabelIdentifier81ELi16EEE4findIS4_EENS5_11__wrap_iterIPS4_EERKT_
5335:__ZNSt3__26vectorIN4core12basic_stringIcNS1_20StringStorageDefaultIcEEEE13stl_allocatorIS5_L18MemLabelIdentifier81ELi16EEE21__push_back_slow_pathIRKS5_EEvOT_
5336:__ZN4core8hash_setINS_4pairIKNS_12basic_stringIcNS_20StringStorageDefaultIcEEEE13dynamic_arrayI4PPtrI6SpriteELj0EELb1EEENS_9hash_pairINS_4hashIS5_EES6_SB_EENS_10equal_pairINSt3__28equal_toIS5_EES6_SB_EEE4growEi
5337:__ZNSt3__213__stable_sortIRNS_4lessI4PPtrI11SpriteAtlasEEENS_11__wrap_iterIPS4_EEEEvT0_SA_T_NS_15iterator_traitsISA_E15difference_typeEPNSD_10value_typeEi
5338:__ZNSt3__218__stable_sort_moveIRNS_4lessI4PPtrI11SpriteAtlasEEENS_11__wrap_iterIPS4_EEEEvT0_SA_T_NS_15iterator_traitsISA_E15difference_typeEPNSD_10value_typeE
5339:__ZNSt3__215__inplace_mergeIRNS_4lessI4PPtrI11SpriteAtlasEEENS_11__wrap_iterIPS4_EEEEvT0_SA_SA_T_NS_15iterator_traitsISA_E15difference_typeESE_PNSD_10value_typeEi
5340:__ZN16SpriteRenderData17MainThreadCleanupEv
5341:__ZN23SharedMeshRenderingData6UnloadEv
5342:__ZN16SpriteRenderDataD2Ev
5343:__ZN12CubemapArrayD2Ev
5344:__ZN12CubemapArrayD0Ev
5345:__ZN12CubemapArray17MainThreadCleanupEv
5346:__ZN12CubemapArray13AwakeFromLoadE17AwakeFromLoadMode
5347:__ZN12CubemapArray21AwakeFromLoadThreadedEv
5348:__ZN12CubemapArray5ResetEv
5349:__ZNK12CubemapArray22GetTypeVirtualInternalEv
5350:__ZN12CubemapArray23VirtualRedirectTransferER19StreamedBinaryWrite
5351:__ZN12CubemapArray23VirtualRedirectTransferER18StreamedBinaryRead
5352:__ZN12CubemapArray23VirtualRedirectTransferER24GenerateTypeTreeTransfer
5353:__ZN12CubemapArray23VirtualRedirectTransferER14SafeBinaryRead
5354:__ZNK12CubemapArray26CanReuploadDataToGfxDeviceEv
5355:__ZNK12CubemapArray20GetTextureLayerCountEv
5356:__ZNK12CubemapArray12GetDimensionEv
5357:__ZN12CubemapArray34UpdateFileTextureUploadInstructionEP24TextureUploadInstructionj
5358:__ZNK12CubemapArray13GetIsReadableEv
5359:__ZN12CubemapArray19UnloadFromGfxDeviceEb
5360:__ZN12CubemapArray17UploadToGfxDeviceEv
5361:__ZNK12CubemapArray16ExtractImageImplEP14ImageReference13ImageBlitModebi
5362:__ZN14ImageReference9BlitImageERKS_13ImageBlitMode
5363:__ZL13BlitImageImplR14ImageReferenceiiRKS_17TextureColorSpace13ImageBlitModeb
5364:__ZN6prcore14BlitImageFlipYERK14ImageReferenceRS0_ii
5365:__ZN6prcore9BlitImageERK14ImageReferenceRS0_ii
5366:__ZN6prcore14BlitImageFlipYERK14ImageReferenceRS0_13ImageBlitMode
5367:__ZN6prcore9BlitImageERK14ImageReferenceRS0_13ImageBlitMode
5368:__ZL21BlitScaleStbImageImplRK14ImageReferenceRS_17TextureColorSpace
5369:__ZN6prcore10FlipImageYER14ImageReference
5370:__ZN6prcoreL10inner_flipILj2EEEvPhS1_j
5371:__ZN6prcoreL10inner_flipILj3EEEvPhS1_j
5372:__ZN6prcoreL10inner_flipILj4EEEvPhS1_j
5373:__ZN6prcoreL10inner_flipILj1EEEvPhS1_j
5374:__Z11IsHDRFormat13TextureFormat
5375:__ZL8StbAllocjPv
5376:__ZL7StbFreePvS_
5377:_stbir_resize
5378:__ZL23stbir__resize_arbitraryPvPKviiiS_iiiffffPfiij14stbir_datatype12stbir_filterS4_10stbir_edgeS5_16stbir_colorspace
5379:__ZL23stbir__calculate_memoryP11stbir__info
5380:__ZL24stbir__calculate_filtersP19stbir__contributorsPf12stbir_filterffii
5381:__ZL22stbir__decode_scanlineP11stbir__infoi
5382:__ZL35stbir__resample_horizontal_upsampleP11stbir__infoPf
5383:__ZL37stbir__resample_horizontal_downsampleP11stbir__infoPf
5384:__ZL22stbir__encode_scanlineP11stbir__infoiPvPfiii
5385:__ZL19stbir__support_zerof
5386:__ZL23stbir__filter_trapezoidff
5387:__ZL24stbir__support_trapezoidf
5388:__ZL22stbir__filter_triangleff
5389:__ZL18stbir__support_onef
5390:__ZL19stbir__filter_cubicff
5391:__ZL18stbir__support_twof
5392:__ZL24stbir__filter_catmullromff
5393:__ZL22stbir__filter_mitchellff
5394:__ZL31stbir__filter_mitchell_modifiedff
5395:__ZN6prcore14BlitImageFloatERK14ImageReferenceRS0_13ImageBlitMode
5396:__ZN6prcore21BlitImageRemapNoScaleERK14ImageReferenceRS0_
5397:__ZN6prcore17GetIntegerBlitterE13TextureFormatS0_13ImageBlitMode
5398:__ZN6prcoreL29BlitFuncExecuteFromSelectInfoEPKNS_9InnerInfoEPKv
5399:__ZN6prcoreL21CreateRemapAnyBlitterE13TextureFormatS0_
5400:__ZN6prcoreL18BlitIntegerToFloatERK14ImageReferenceRS0_
5401:__ZN6prcoreL17BlitBilinearFloatERK14ImageReferenceRS0_
5402:__ZN6prcoreL18BlitFloatToIntegerERK14ImageReferenceRS0_
5403:__ZN6prcore16BlitFuncInfoSIMD19BlitFuncExecuteSIMDEPKNS_9InnerInfoEPKv
5404:__ZN14ImageReferenceC2Eiii13TextureFormatPv
5405:__ZN7Texture25ReloadFromStorageIfNeededEPvb
5406:__ZN12CubemapArray13UploadTextureEv
5407:__ZN17PersistentManager14ReloadFromDiskER6Object
5408:__Z21CalculateMipMapOffsetii13TextureFormati
5409:__Z18CalculateImageSizeii13TextureFormat
5410:__Z29GetRowBytesFromWidthAndFormati13TextureFormat
5411:__ZNK7Texture41QueryPersistentManagerForDataAvailabilityEv
5412:__ZN12CubemapArray8TransferI14SafeBinaryReadEEvRT_
5413:__ZN14SafeBinaryRead21TransferResourceImageE19ActiveResourceImagePKcR13StreamingInfoPvjiPKN5Unity4TypeE
5414:__ZN13StreamingInfo8TransferI14SafeBinaryReadEEvRT_
5415:__ZN12CubemapArray8TransferI24GenerateTypeTreeTransferEEvRT_
5416:__ZN24GenerateTypeTreeTransfer21TransferResourceImageE19ActiveResourceImagePKcR13StreamingInfoPvjiPKN5Unity4TypeE
5417:__ZN29SerializeTraitsForStringTypesIN4core12basic_stringIcNS0_20StringStorageDefaultIcEEEEE8TransferI24GenerateTypeTreeTransferEEvRS4_RT_
5418:__ZN12CubemapArray8TransferI18StreamedBinaryReadEEvRT_
5419:__ZN18StreamedBinaryRead21TransferResourceImageE19ActiveResourceImagePKcR13StreamingInfoPvjiPKN5Unity4TypeE
5420:__ZN12CubemapArray8TransferI19StreamedBinaryWriteEEvRT_
5421:__ZN19StreamedBinaryWrite21TransferResourceImageE19ActiveResourceImagePKcR13StreamingInfoPvjiPKN5Unity4TypeE
5422:__ZN7Texture16BeginAsyncUploadEj
5423:__Z18UploadAsyncTextureR7Texturej
5424:__ZN7Texture38InitializeFileTextureUploadInstructionER24TextureUploadInstructionj
5425:__ZL26CalculateAsyncTextureSizesPK24TextureUploadInstructionRjS2_S2_
5426:__ZL32AsyncTextureReadCompleteCallbackbRK23AsyncUploadCallbackInfo
5427:__ZL38AsyncTextureProcessingCompleteCallbackR9GfxDeviceRK23AsyncUploadCallbackInfo
5428:__ZN18AsyncUploadManager16QueueUploadAssetEPKcjjjRK18AsyncUploadHandler
5429:__ZN15TextureSettings38ClearUnsupportedSettingsForColorFormatE13TextureFormat
5430:__Z19UploadTexture2DDataRK23UploadTextureDataParams
5431:__Z17UploadCubemapData9TextureIDPhjiiii14GraphicsFormat18TextureUploadFlagsR9GfxDevice
5432:__Z16DecompressCrunchPKhRjR13TextureFormatiiii10MemLabelIdi
5433:__ZN4crnd17crnd_unpack_beginEPKvj
5434:__ZN4crnd21crnd_get_texture_infoEPKvjPNS_16crn_texture_infoE
5435:__Z24CalculateImageMipMapSizeii13TextureFormat
5436:__ZN4crnd17crnd_unpack_levelEPvPS0_jjj
5437:__ZN4crnd12crn_unpackerD2Ev
5438:__ZN4crndL20crnd_default_reallocEPvjPjbS0_
5439:__ZN4crnd11crnd_deleteINS_13prefix_coding14decoder_tablesEEEvPT_
5440:__ZN4crnd12crn_unpacker12unpack_levelEPKvjPPvjjj
5441:__ZN4crnd12crn_unpacker11unpack_dxt1EPPhjjj
5442:__ZN4crnd12crn_unpacker11unpack_dxt5EPPhjjj
5443:__ZN4crnd12crn_unpacker12unpack_dxt5aEPPhjjj
5444:__ZN4crnd12crn_unpacker10unpack_dxnEPPhjjj
5445:__ZN4crnd12crn_unpacker11unpack_etc1EPPhjjj
5446:__ZN4crnd12crn_unpacker12unpack_etc2aEPPhjjj
5447:__ZN4crnd16elemental_vector17increase_capacityEjbjPFvPvS1_jE
5448:__ZN4crnd12symbol_codec6decodeERKNS_25static_huffman_data_modelE
5449:__ZN4crnd11crnd_mallocEjPj
5450:__ZN4crnd12crn_unpacker11init_tablesEv
5451:__ZN4crnd12crn_unpacker15decode_palettesEv
5452:__ZN4crnd12crn_unpacker22decode_color_endpointsEv
5453:__ZN4crnd12crn_unpacker22decode_color_selectorsEv
5454:__ZN4crnd12crn_unpacker22decode_alpha_endpointsEv
5455:__ZN4crnd12crn_unpacker26decode_alpha_selectors_etcEv
5456:__ZN4crnd12crn_unpacker22decode_alpha_selectorsEv
5457:__ZN4crnd12symbol_codec32decode_receive_static_data_modelERNS_25static_huffman_data_modelE
5458:__ZN4crnd12symbol_codec11decode_bitsEj
5459:__ZN4crnd25static_huffman_data_model22prepare_decoder_tablesEv
5460:__ZN4crnd13prefix_coding14decoder_tables4initEjPKhj
5461:__Z29SkipMipLevelsForTextureUploadi13TextureFormatiPPKhPiS3_S3_b
5462:__Z19GetBytesForOnePixel13TextureFormat
5463:__ZL17DoScaledPaddedJobP24TextureUploadInstruction
5464:__ZN9TextureOpI11TextureDataE15ExtractMipLevelEPS0_S2_iibb
5465:__ZL18DoCubemapMipmapJobP24TextureUploadInstruction
5466:__ZL15DoDeCruncherJobP24TextureUploadInstruction
5467:__Z25ClampMipLevelToSafeLimitsiiiib
5468:__Z21SourceMipLevelForBlitiiii
5469:__Z23BlitCopyCompressedImage13TextureFormatPKhiiPhiib
5470:__ZN9TextureOpI11TextureDataE12ExtractImageEPS0_P14ImageReference13ImageBlitModebi
5471:__ZN17SharedTextureData32GetCrunchDecompressedTextureDataI11TextureDataEEbRKT_
5472:__ZN9TextureOpI17SharedTextureDataE12ExtractImageEPS0_P14ImageReference13ImageBlitModebi
5473:__Z26GetDecompressTextureFormat13TextureFormat
5474:__ZN5Image8SetImageERK14ImageReferenceb
5475:__Z41DecompressNativeTextureFormatWithMipLevel13TextureFormatS_iiiPKjiiPj
5476:__ZNK14ImageReference9ClipImageEiiii
5477:__Z14PadImageBorderR14ImageReferenceii
5478:__Z29DecompressNativeTextureFormat13TextureFormatS_iiPKjiiPj
5479:__Z19GetColorBlockColorsPK11DXTColBlockP9Color8888
5480:__Z16DecodeColorBlockPjRK11DXTColBlockiPKj
5481:__Z19DecodeAlphaExplicitPjRK21DXTAlphaBlockExplicitij
5482:__Z21DecodeAlpha3BitLinearPjRK23DXTAlphaBlock3BitLineariji
5483:__Z14DecompressBC6HiiiPKjPj13TextureFormat
5484:__Z13DecompressBC7iiiPKjPj
5485:__Z14DecodeBC7BlockP9HDRColorAPKh
5486:__Z15DecodeBC6HBlockP9HDRColorAPKh
5487:__ZN5Image8SetImageEii13TextureFormatb
5488:__ZN17SharedTextureData32GetCrunchDecompressedTextureDataIS_EEbRKT_
5489:__ZN7CubemapD2Ev
5490:__ZN7CubemapD0Ev
5491:__ZN9Texture2D17MainThreadCleanupEv
5492:__ZN9Texture2D13AwakeFromLoadE17AwakeFromLoadMode
5493:__ZN9Texture2D21AwakeFromLoadThreadedEv
5494:__ZN9Texture2D5ResetEv
5495:__ZNK7Cubemap22GetTypeVirtualInternalEv
5496:__ZNK9Texture2D20GetRuntimeMemorySizeEv
5497:__ZN7Cubemap23VirtualRedirectTransferER19StreamedBinaryWrite
5498:__ZN7Cubemap23VirtualRedirectTransferER18StreamedBinaryRead
5499:__ZN7Cubemap23VirtualRedirectTransferER17RemapPPtrTransfer
5500:__ZN7Cubemap23VirtualRedirectTransferER24GenerateTypeTreeTransfer
5501:__ZN7Cubemap23VirtualRedirectTransferER14SafeBinaryRead
5502:__ZN9Texture2D13ApplySettingsEv
5503:__ZNK9Texture2D20GetUnscaledTextureIDEv
5504:__ZNK9Texture2D16GetNpotTexelSizeEv
5505:__ZNK9Texture2D13IsNPOTAllowedEv
5506:__ZNK9Texture2D26CanReuploadDataToGfxDeviceEv
5507:__ZNK9Texture2D13GetDataHeightEv
5508:__ZNK7Cubemap12GetDimensionEv
5509:__ZN7Cubemap34UpdateFileTextureUploadInstructionEP24TextureUploadInstructionj
5510:__ZN9Texture2D33VerifyFileTextureUploadCompletionEv
5511:__ZNK9Texture2D13GetIsReadableEv
5512:__ZN9Texture2D19UnloadFromGfxDeviceEb
5513:__ZN9Texture2D17UploadToGfxDeviceEv
5514:__ZNK9Texture2D16ExtractImageImplEP14ImageReference13ImageBlitModebi
5515:__ZN7Cubemap13UploadTextureEi
5516:__ZNK9Texture2D13GetDataFormatEv
5517:__ZN7Cubemap11InitTextureEii13TextureFormat20TextureCreationFlagsiii16TextureDimension
5518:__ZN9Texture2D15UpdateImageDataEv
5519:__ZN9Texture2D30UpdateImageDataDontTouchMipmapEv
5520:__ZN7Cubemap13RebuildMipMapEv
5521:__Z12CreateMipMapPhiii13TextureFormat
5522:__Z20IsNPOTTextureAllowedb
5523:__ZN9Texture2D11InitTextureEii13TextureFormat20TextureCreationFlagsiii16TextureDimension
5524:__Z20IsValidTextureFormat13TextureFormat
5525:__Z25GetNextAllowedTextureSizeib13TextureFormat
5526:__Z30CalculateImageSizeWithMipCountii13TextureFormatj
5527:__ZN9Texture2D19InitTextureInternalEii13TextureFormati20TextureCreationFlagsii
5528:__ZN23TextureStreamingManager13RemoveTextureER9Texture2D
5529:__ZN9Texture2D16DeleteGfxTextureEv
5530:__ZN23TextureStreamingManager10AddTextureER9Texture2D
5531:__ZN23TextureStreamingManager14AddTextureDataER9Texture2D
5532:__ZN20TextureStreamingData10AddTextureEii13TextureFormatiii
5533:__ZN20TextureStreamingData15ReserveTexturesEj
5534:__ZN17SharedTextureDataC2E10MemLabelIdii13TextureFormatjiibb
5535:__ZN23TextureStreamingManager21RemoveTextureInternalER9Texture2D
5536:__ZN20TextureStreamingData13RemoveTextureEi
5537:__Z29GetTextureSizeAllowedMultiple13TextureFormat
5538:__ZN23TextureStreamingManager20GetLoadedMipmapLevelERK9Texture2D
5539:__ZN14SafeBinaryRead22TransferWithTypeStringI7CubemapEEvRT_PKcS5_17TransferMetaFlags
5540:__ZN9Texture2D8TransferI14SafeBinaryReadEEvRT_
5541:__ZN14SafeBinaryRead21TransferSTLStyleArrayINSt3__26vectorI4PPtrI9Texture2DENS1_9allocatorIS5_EEEEEEvRT_17TransferMetaFlags
5542:__Z14resize_trimmedINSt3__26vectorI4PPtrI9Texture2DENS0_9allocatorIS4_EEEEEvRT_j
5543:__ZNSt3__26vectorI4PPtrI9Texture2DENS_9allocatorIS3_EEE6assignINS_11__wrap_iterIPS3_EEEENS_9enable_ifIXaasr21__is_forward_iteratorIT_EE5valuesr16is_constructibleIS3_NS_15iterator_traitsISC_E9referenceEEE5valueEvE4typeESC_SC_
5544:__ZNSt3__26vectorI4PPtrI9Texture2DENS_9allocatorIS3_EEE8__appendEj
5545:__ZN9Texture2D8TransferI24GenerateTypeTreeTransferEEvRT_
5546:__ZN7Cubemap8TransferI18StreamedBinaryReadEEvRT_
5547:__ZN9Texture2D8TransferI18StreamedBinaryReadEEvRT_
5548:__ZN7Cubemap8TransferI19StreamedBinaryWriteEEvRT_
5549:__ZN9Texture2D8TransferI19StreamedBinaryWriteEEvRT_
5550:__ZNK23TextureStreamingManager17IsCalculatingMipsEv
5551:__ZN23TextureStreamingManager36GetStreamingMipmapsMaxLevelReductionEv
5552:__ZN9Texture2DD2Ev
5553:__ZN9Texture2D15ThreadedCleanupEv
5554:__ZN9Texture2DD0Ev
5555:__ZNK9Texture2D22GetTypeVirtualInternalEv
5556:__ZN9Texture2D23VirtualRedirectTransferER19StreamedBinaryWrite
5557:__ZN9Texture2D23VirtualRedirectTransferER18StreamedBinaryRead
5558:__ZN9Texture2D23VirtualRedirectTransferER17RemapPPtrTransfer
5559:__ZN9Texture2D23VirtualRedirectTransferER24GenerateTypeTreeTransfer
5560:__ZN9Texture2D23VirtualRedirectTransferER14SafeBinaryRead
5561:__ZN9Texture2D34UpdateFileTextureUploadInstructionEP24TextureUploadInstructionj
5562:__ZN9Texture2D13UploadTextureEi
5563:__ZN9Texture2D13RebuildMipMapEv
5564:__ZN9Texture2D25CreateScaledAndPaddedDataEPP17SharedTextureDataS2_
5565:__ZN9Texture2D26AllocateScaledOrPaddedDataE13TextureFormat
5566:__ZN17SharedTextureData17GetImageReferenceEii
5567:__ZN9TextureOpI17SharedTextureDataE15ExtractMipLevelEPS0_S2_iibb
5568:__ZN9TextureOpI17SharedTextureDataE22ExtractCompressedImageEPS0_Phiii
5569:__ZN17SharedTextureData17GetImageReferenceEP14ImageReferenceii
5570:__ZN15QualitySettingsD2Ev
5571:__ZN15QualitySettingsD0Ev
5572:__ZN15QualitySettings13AwakeFromLoadE17AwakeFromLoadMode
5573:__ZN15QualitySettings16CheckConsistencyEv
5574:__ZN15QualitySettings5ResetEv
5575:__ZNK15QualitySettings22GetTypeVirtualInternalEv
5576:__ZN15QualitySettings23VirtualRedirectTransferER19StreamedBinaryWrite
5577:__ZN15QualitySettings23VirtualRedirectTransferER18StreamedBinaryRead
5578:__ZN15QualitySettings23VirtualRedirectTransferER24GenerateTypeTreeTransfer
5579:__ZN15QualitySettings23VirtualRedirectTransferER14SafeBinaryRead
5580:__ZN15QualitySettings8TransferI14SafeBinaryReadEEvRT_
5581:__ZN14SafeBinaryRead21TransferSTLStyleArrayINSt3__26vectorIN15QualitySettings14QualitySettingENS1_9allocatorIS4_EEEEEEvRT_17TransferMetaFlags
5582:__ZL32InitializeDefaultQualitySettingsPN15QualitySettings14QualitySettingE
5583:__ZN15QualitySettings14QualitySetting8TransferI14SafeBinaryReadEEvRT_
5584:__ZNSt3__26vectorIN15QualitySettings14QualitySettingENS_9allocatorIS2_EEE6assignIPS2_EENS_9enable_ifIXaasr21__is_forward_iteratorIT_EE5valuesr16is_constructibleIS2_NS_15iterator_traitsIS9_E9referenceEEE5valueEvE4typeES9_S9_
5585:__Z14resize_trimmedINSt3__26vectorIN15QualitySettings14QualitySettingENS0_9allocatorIS3_EEEEEvRT_j
5586:__ZNSt3__26vectorIN15QualitySettings14QualitySettingENS_9allocatorIS2_EEE7reserveEj
5587:__ZNSt3__26vectorIN15QualitySettings14QualitySettingENS_9allocatorIS2_EEE6assignINS_11__wrap_iterIPS2_EEEENS_9enable_ifIXaasr21__is_forward_iteratorIT_EE5valuesr16is_constructibleIS2_NS_15iterator_traitsISB_E9referenceEEE5valueEvE4typeESB_SB_
5588:__ZNSt3__26vectorIN15QualitySettings14QualitySettingENS_9allocatorIS2_EEE8__appendEj
5589:__ZNSt3__26vectorIN15QualitySettings14QualitySettingENS_9allocatorIS2_EEEC2INS_11__wrap_iterIPS2_EEEET_SA_RKS4_PNS_9enable_ifIXaasr21__is_forward_iteratorISA_EE5valuesr16is_constructibleIS2_NS_15iterator_traitsISA_E9referenceEEE5valueEvE4typeE
5590:__ZN15QualitySettings8TransferI24GenerateTypeTreeTransferEEvRT_
5591:__ZN24GenerateTypeTreeTransfer21TransferSTLStyleArrayINSt3__26vectorIN15QualitySettings14QualitySettingENS1_9allocatorIS4_EEEEEEvRT_17TransferMetaFlags
5592:__ZN15QualitySettings14QualitySetting8TransferI24GenerateTypeTreeTransferEEvRT_
5593:__ZN15QualitySettings8TransferI18StreamedBinaryReadEEvRT_
5594:__ZN15QualitySettings14QualitySetting8TransferI18StreamedBinaryReadEEvRT_
5595:__ZN15QualitySettings8TransferI19StreamedBinaryWriteEEvRT_
5596:__ZN15QualitySettings14QualitySetting8TransferI19StreamedBinaryWriteEEvRT_
5597:__ZNSt3__26vectorIN15QualitySettings14QualitySettingENS_9allocatorIS2_EEE21__push_back_slow_pathIRKS2_EEvOT_
5598:__ZN11PlayerPrefs6GetIntERKN4core12basic_stringIcNS0_20StringStorageDefaultIcEEEEi
5599:__ZN15QualitySettings13ApplySettingsEib
5600:__ZN7Texture21SetMasterTextureLimitEib
5601:__ZN23TextureStreamingManager17SetFeatureEnabledEb
5602:__ZN23TextureStreamingManager15SetMemoryBudgetEf
5603:__ZN23TextureStreamingManager20SetRendererBatchSizeEi
5604:__ZN23TextureStreamingResults25UpdateWorkingBufferMemoryEv
5605:__ZN13dynamic_arrayIS_I24StreamingTextureMipLevelLj0EELj0EE12emplace_backEv
5606:__ZN23TextureStreamingResults15ReserveTexturesEj
5607:__ZN13dynamic_arrayI24StreamingTextureMipLevelLj0EE18resize_initializedEjRKS0_12ResizePolicy
5608:__ZN23TextureStreamingManager17RescanTextureDataEv
5609:__ZN23TextureStreamingManager15AddRendererDataER8Renderer
5610:__ZN23TextureStreamingResults6ResizeEii
5611:__ZN13dynamic_arrayIS_I24StreamingTextureMipLevelLj0EELj0EE18resize_initializedEj12ResizePolicy
5612:__ZN13dynamic_arrayIiLj0EE18resize_initializedEjRKi12ResizePolicy
5613:__ZN23TextureStreamingManager7CompactEf
5614:__ZN20TextureStreamingData11AddRendererEv
5615:__ZN20TextureStreamingData7CompactEPS_
5616:__ZN23TextureStreamingResults7CompactEPS_
5617:__ZN23TextureStreamingResultsD2Ev
5618:__ZN20TextureStreamingDataD2Ev
5619:__ZN20TextureStreamingData19AllocateTextureInfoEP17StreamingRendererj
5620:__Z16ReloadAllSpritesv
5621:__ZL21SetAnisoLimitEnumImplN7Texture20AnisotropicFilteringEb
5622:__ZN15TextureSettings14SetAnisoLimitsEii
5623:__ZL18InitializeIfNeededv
5624:__ZNSt3__26__treeINS_12__value_typeIN4core12basic_stringIcNS2_20StringStorageDefaultIcEEEE9PrefValueEENS_19__map_value_compareIS6_S8_NS_4lessIS6_EELb1EEENS_9allocatorIS8_EEE25__emplace_unique_key_argsIS6_JRKNS_21piecewise_construct_tENS_5tupleIJRKS6_EEENSK_IJEEEEEENS_4pairINS_15__tree_iteratorIS8_PNS_11__tree_nodeIS8_PvEEiEEbEERKT_DpOT0_
5625:__ZL15GetPrefFilePathb
5626:__Z18ReadStringFromFilePN4core17string_with_labelILi1EEERKNS_12basic_stringIcNS_20StringStorageDefaultIcEEEE
5627:__ZL11DecodeValuePPKcS0_
5628:__ZN12FileAccessor4ReadEyPvPy
5629:__Z14AppendPathNameRKN4core12basic_stringIcNS_20StringStorageDefaultIcEEEES5_
5630:__ZL18AppendPathNameImplRKN4core12basic_stringIcNS_20StringStorageDefaultIcEEEES5_cRS3_
5631:__ZN9Texture3DD2Ev
5632:__ZN9Texture3DD0Ev
5633:__ZN9Texture3D13AwakeFromLoadE17AwakeFromLoadMode
5634:__ZNK9Texture3D22GetTypeVirtualInternalEv
5635:__ZNK9Texture3D20GetRuntimeMemorySizeEv
5636:__ZN9Texture3D23VirtualRedirectTransferER19StreamedBinaryWrite
5637:__ZN9Texture3D23VirtualRedirectTransferER18StreamedBinaryRead
5638:__ZN9Texture3D23VirtualRedirectTransferER24GenerateTypeTreeTransfer
5639:__ZN9Texture3D23VirtualRedirectTransferER14SafeBinaryRead
5640:__ZNK9Texture3D26CanReuploadDataToGfxDeviceEv
5641:__ZNK9Texture3D12GetDimensionEv
5642:__ZN9Texture3D34UpdateFileTextureUploadInstructionEP24TextureUploadInstructionj
5643:__ZN9Texture3D17UploadToGfxDeviceEv
5644:__ZNK9Texture3D16ExtractImageImplEP14ImageReference13ImageBlitModebi
5645:__ZN9Texture3D13UploadTextureEi
5646:__ZN9Texture3D8TransferI14SafeBinaryReadEEvRT_
5647:__ZN9Texture3D8TransferI24GenerateTypeTreeTransferEEvRT_
5648:__ZN9Texture3D8TransferI18StreamedBinaryReadEEvRT_
5649:__ZN9Texture3D8TransferI19StreamedBinaryWriteEEvRT_
5650:__ZN13ScreenManager17RequestResolutionEii14FullscreenModei
5651:__ZN13ScreenManager22SetRequestedResolutionEv
5652:__ZN13ScreenManager14GetResolutionsER13dynamic_arrayI10ResolutionLj0EE
5653:__ZNK13ScreenManager19GetSystemResolutionEv
5654:__ZNK13ScreenManager20GetCurrentResolutionEv
5655:__ZNK13ScreenManager16GetScreenTimeoutEv
5656:__ZNK13ScreenManager21GetCursorInsideWindowEv
5657:__ZN13ScreenManager21SetCursorInsideWindowEb
5658:__ZNK13ScreenManager11GetSafeAreaEv
5659:__ZN13ScreenManager26ReapplyRequestedResolutionEv
5660:__ZNK13ScreenManager6GetDPIEv
5661:__ZNK13ScreenManager17GetFullscreenModeEv
5662:__ZN13ScreenManager18RequestOrientationE17ScreenOrientation
5663:__ZNK13ScreenManager20GetScreenOrientationEv
5664:__ZN13ScreenManager23SetIsOrientationEnabledE18EnabledOrientationb
5665:__ZN14Texture2DArrayD2Ev
5666:__ZN14Texture2DArrayD0Ev
5667:__ZN14Texture2DArray17MainThreadCleanupEv
5668:__ZN14Texture2DArray13AwakeFromLoadE17AwakeFromLoadMode
5669:__ZNK14Texture2DArray22GetTypeVirtualInternalEv
5670:__ZN14Texture2DArray23VirtualRedirectTransferER19StreamedBinaryWrite
5671:__ZN14Texture2DArray23VirtualRedirectTransferER18StreamedBinaryRead
5672:__ZN14Texture2DArray23VirtualRedirectTransferER24GenerateTypeTreeTransfer
5673:__ZN14Texture2DArray23VirtualRedirectTransferER14SafeBinaryRead
5674:__ZNK14Texture2DArray12GetDimensionEv
5675:__ZN14Texture2DArray34UpdateFileTextureUploadInstructionEP24TextureUploadInstructionj
5676:__ZNK14Texture2DArray13GetIsReadableEv
5677:__ZN14Texture2DArray19UnloadFromGfxDeviceEb
5678:__ZN14Texture2DArray17UploadToGfxDeviceEv
5679:__ZN14Texture2DArray13UploadTextureEv
5680:__ZN14Texture2DArray8TransferI14SafeBinaryReadEEvRT_
5681:__ZN14Texture2DArray8TransferI24GenerateTypeTreeTransferEEvRT_
5682:__ZN14Texture2DArray8TransferI18StreamedBinaryReadEEvRT_
5683:__ZN14Texture2DArray8TransferI19StreamedBinaryWriteEEvRT_
5684:__ZN16LightmapSettingsD2Ev
5685:__ZN16LightmapSettingsD0Ev
5686:__ZN16LightmapSettings13AwakeFromLoadE17AwakeFromLoadMode
5687:__ZN16LightmapSettings5ResetEv
5688:__ZNK16LightmapSettings22GetTypeVirtualInternalEv
5689:__ZN16LightmapSettings23VirtualRedirectTransferER19StreamedBinaryWrite
5690:__ZN16LightmapSettings23VirtualRedirectTransferER18StreamedBinaryRead
5691:__ZN16LightmapSettings23VirtualRedirectTransferER17RemapPPtrTransfer
5692:__ZN16LightmapSettings23VirtualRedirectTransferER24GenerateTypeTreeTransfer
5693:__ZN16LightmapSettings23VirtualRedirectTransferER14SafeBinaryRead
5694:__ZN16LightmapSettings8TransferI14SafeBinaryReadEEvRT_
5695:__ZN21EnlightenSceneMapping8TransferI14SafeBinaryReadEEvRT_
5696:__ZN14SafeBinaryRead21TransferSTLStyleArrayI13dynamic_arrayI12LightmapDataLj0EEEEvRT_17TransferMetaFlags
5697:__ZN10GISettings8TransferI14SafeBinaryReadEEvRT_
5698:__ZN16LightmapSettings18TransferDeprecatedI14SafeBinaryReadEEvRT_
5699:__ZN13dynamic_arrayI12LightmapDataLj0EE18resize_initializedEj12ResizePolicy
5700:__ZN12LightmapData8TransferI14SafeBinaryReadEEvRT_
5701:__ZN14SafeBinaryRead21TransferSTLStyleArrayI13dynamic_arrayI28EnlightenRendererInformationLj0EEEEvRT_17TransferMetaFlags
5702:__ZN14SafeBinaryRead21TransferSTLStyleArrayI13dynamic_arrayI26EnlightenSystemInformationLj0EEEEvRT_17TransferMetaFlags
5703:__ZN14SafeBinaryRead21TransferSTLStyleArrayI13dynamic_arrayI7Hash128Lj0EEEEvRT_17TransferMetaFlags
5704:__ZN14SafeBinaryRead21TransferSTLStyleArrayI13dynamic_arrayI31EnlightenSystemAtlasInformationLj0EEEEvRT_17TransferMetaFlags
5705:__ZN14SafeBinaryRead21TransferSTLStyleArrayI13dynamic_arrayI33EnlightenTerrainChunksInformationLj0EEEEvRT_17TransferMetaFlags
5706:__ZN21EnlightenSceneMapping16BuildRemapTablesEv
5707:__ZN15SerializeTraitsI33EnlightenTerrainChunksInformationE8TransferI14SafeBinaryReadEEvRS0_RT_
5708:__ZN15SerializeTraitsI31EnlightenSystemAtlasInformationE8TransferI14SafeBinaryReadEEvRS0_RT_
5709:__ZN26EnlightenSystemInformation8TransferI14SafeBinaryReadEEvRT_
5710:__ZN28EnlightenRendererInformation8TransferI14SafeBinaryReadEEvRT_
5711:__ZN16LightmapSettings8TransferI24GenerateTypeTreeTransferEEvRT_
5712:__ZN21EnlightenSceneMapping8TransferI24GenerateTypeTreeTransferEEvRT_
5713:__ZN15SerializeTraitsI12LightmapDataE8TransferI24GenerateTypeTreeTransferEEvRS0_RT_
5714:__ZN10GISettings8TransferI24GenerateTypeTreeTransferEEvRT_
5715:__ZN28EnlightenRendererInformation8TransferI24GenerateTypeTreeTransferEEvRT_
5716:__ZN26EnlightenSystemInformation8TransferI24GenerateTypeTreeTransferEEvRT_
5717:__ZN24GenerateTypeTreeTransfer8TransferI13dynamic_arrayI33EnlightenTerrainChunksInformationLj0EEEEvRT_PKc17TransferMetaFlags
5718:__ZN16LightmapSettings8TransferI17RemapPPtrTransferEEvRT_
5719:__ZN16LightmapSettings8TransferI18StreamedBinaryReadEEvRT_
5720:__ZN21EnlightenSceneMapping8TransferI18StreamedBinaryReadEEvRT_
5721:__ZN18StreamedBinaryRead8TransferI13dynamic_arrayI12LightmapDataLj0EEEEvRT_PKc17TransferMetaFlags
5722:__ZN10GISettings8TransferI18StreamedBinaryReadEEvRT_
5723:__ZN18StreamedBinaryRead21TransferSTLStyleArrayI13dynamic_arrayI28EnlightenRendererInformationLj0EEEEvRT_17TransferMetaFlags
5724:__ZN18StreamedBinaryRead21TransferSTLStyleArrayI13dynamic_arrayI26EnlightenSystemInformationLj0EEEEvRT_17TransferMetaFlags
5725:__ZN18StreamedBinaryRead21TransferSTLStyleArrayI13dynamic_arrayI7Hash128Lj0EEEEvRT_17TransferMetaFlags
5726:__ZN18StreamedBinaryRead21TransferSTLStyleArrayI13dynamic_arrayI31EnlightenSystemAtlasInformationLj0EEEEvRT_17TransferMetaFlags
5727:__ZN18StreamedBinaryRead21TransferSTLStyleArrayI13dynamic_arrayI33EnlightenTerrainChunksInformationLj0EEEEvRT_17TransferMetaFlags
5728:__ZN26EnlightenSystemInformation8TransferI18StreamedBinaryReadEEvRT_
5729:__ZN16LightmapSettings8TransferI19StreamedBinaryWriteEEvRT_
5730:__ZN21EnlightenSceneMapping8TransferI19StreamedBinaryWriteEEvRT_
5731:__ZN10GISettings8TransferI19StreamedBinaryWriteEEvRT_
5732:__ZN19StreamedBinaryWrite21TransferSTLStyleArrayI13dynamic_arrayI28EnlightenRendererInformationLj0EEEEvRT_17TransferMetaFlags
5733:__ZN26EnlightenSystemInformation8TransferI19StreamedBinaryWriteEEvRT_
5734:__ZN15SerializeTraitsI13dynamic_arrayI31EnlightenSystemAtlasInformationLj0EEE8TransferI19StreamedBinaryWriteEEvRS2_RT_
5735:__ZN10GISettings5ResetEv
5736:__ZN21EnlightenSceneMappingD2Ev
5737:__Z29GetCustomRenderTextureManagerv
5738:__ZN13RenderTexture14SetDepthFormatE17DepthBufferFormat
5739:__ZN8Material14SetVectorArrayEN9ShaderLab16FastPropertyNameEPK8Vector4fj
5740:__ZN8Material13SetFloatArrayEN9ShaderLab16FastPropertyNameEPKfj
5741:__ZN19ShaderPropertySheet16SetArrayPropertyEN9ShaderLab16FastPropertyNameENS_12PropertyTypeEPKvj
5742:__ZN19CustomRenderTexture22ClearChildDependenciesEv
5743:__ZNSt3__26__treeI4PPtrI19CustomRenderTextureENS_4lessIS3_EENS_9allocatorIS3_EEE7destroyEPNS_11__tree_nodeIS3_PvEE
5744:__ZN8RendererD2Ev
5745:__ZN8RendererD0Ev
5746:__ZN8Renderer17MainThreadCleanupEv
5747:__ZN8Renderer13AwakeFromLoadE17AwakeFromLoadMode
5748:__ZN8Renderer16CheckConsistencyEv
5749:__ZN8Renderer10SmartResetEv
5750:__ZNK8Renderer22GetTypeVirtualInternalEv
5751:__ZN8Renderer23VirtualRedirectTransferER19StreamedBinaryWrite
5752:__ZN8Renderer23VirtualRedirectTransferER18StreamedBinaryRead
5753:__ZN8Renderer23VirtualRedirectTransferER17RemapPPtrTransfer
5754:__ZN8Renderer23VirtualRedirectTransferER24GenerateTypeTreeTransfer
5755:__ZN8Renderer23VirtualRedirectTransferER14SafeBinaryRead
5756:__ZN8Renderer26SupportedMessagesDidChangeEj
5757:__ZN8Renderer10DeactivateE19DeactivateOperation
5758:__ZNK8Renderer10GetEnabledEv
5759:__ZN8Renderer10SetEnabledEb
5760:__ZN8Renderer21RendererBecameVisibleEv
5761:__ZN8Renderer23RendererBecameInvisibleEv
5762:__ZN8Renderer20RendererAddedToSceneEv
5763:__ZN8Renderer24RendererRemovedFromSceneEv
5764:__ZN8Renderer15AddAsRenderNodeER15RenderNodeQueueRK20DeprecatedSourceData
5765:__ZNK8Renderer8GetLayerEv
5766:__ZNK8Renderer16GetMaterialCountEv
5767:__ZNK8Renderer11GetMaterialEi
5768:__ZN8Renderer15SetIsRenderableEb
5769:__ZN8Renderer23UpdatePreviousFrameDataEv
5770:__ZN8Renderer20SetupSortingOverrideEv
5771:__ZThn32_N8RendererD1Ev
5772:__ZThn32_N8RendererD0Ev
5773:__ZThn32_N8Renderer15AddAsRenderNodeER15RenderNodeQueueRK20DeprecatedSourceData
5774:__ZThn32_NK8Renderer8GetLayerEv
5775:__ZThn32_NK8Renderer16GetMaterialCountEv
5776:__ZThn32_NK8Renderer11GetMaterialEi
5777:__Z35UpdateSortingGroupStatusForRendererP8Renderer
5778:__ZN8Renderer10AddToSceneEv
5779:__ZN8Renderer15RemoveFromSceneEv
5780:__ZN23TextureStreamingManager14RemoveRendererER8Renderer
5781:__ZN21RendererUpdateManager14RemoveRendererER8Renderer
5782:__ZN20TextureStreamingData14RemoveRendererEi
5783:__ZN13RendererScene11AddRendererEP8Renderer
5784:__ZN8LODGroup23GetLODGroupIndexAndMaskEPK8RendererPjPh
5785:__ZN21RendererUpdateManager11AddRendererER8Renderer
5786:__ZN13RendererScene19AddRendererInternalEP8Rendereri
5787:__ZNK8Renderer29FlattenPerMaterialCustomPropsER22PerThreadPageAllocatorR10RenderNode
5788:__Z30GetLightProbeProxyVolumeHandleRK28LightProbeProxyVolumeContextRK8Renderer
5789:__ZN28ReflectionProbeAnchorManager18RemoveCachedAnchorERK4PPtrI9TransformE
5790:__ZN28ReflectionProbeAnchorManager15AddCachedAnchorERK4PPtrI9TransformE
5791:__ZN4core8hash_mapIiN28ReflectionProbeAnchorManager16CachedAnchorDataENS_4hashIiEENSt3__28equal_toIiEEEixERKi
5792:__ZN4core8hash_setIiNS_4hashIiEENSt3__28equal_toIiEEE6insertERKi
5793:__ZN6Object11InvokeEventEi
5794:__ZN13RendererScene30RemoveRendererFromPendingNodesEP8Renderer
5795:__ZN8Renderer8TransferI14SafeBinaryReadEEvRT_
5796:__ZN14SafeBinaryRead21TransferSTLStyleArrayI13dynamic_arrayI4PPtrI8MaterialELj0EEEEvRT_17TransferMetaFlags
5797:__ZN15StaticBatchInfo8TransferI14SafeBinaryReadEEvRT_
5798:__ZN8Renderer8TransferI24GenerateTypeTreeTransferEEvRT_
5799:__ZN8Renderer8TransferI17RemapPPtrTransferEEvRT_
5800:__ZN8Renderer8TransferI18StreamedBinaryReadEEvRT_
5801:__ZN8Renderer8TransferI19StreamedBinaryWriteEEvRT_
5802:__ZN8Renderer16SetMaterialCountEi
5803:__ZN21RendererUpdateManager19DirtyDispatchUpdateER8Renderer
5804:__ZN8Renderer24SetupNewRendererForSceneEv
5805:__ZN8LODGroup25RemoveFromCachedRenderersEP8Renderer
5806:__ZN8Renderer15ThreadedCleanupEv
5807:__ZN14SafeBinaryRead21TransferSTLStyleArrayI13dynamic_arrayI8Vector4fLj0EEEEvRT_17TransferMetaFlags
5808:__ZN18StreamedBinaryRead21TransferSTLStyleArrayI13dynamic_arrayI8Vector4fLj0EEEEvRT_17TransferMetaFlags
5809:__ZN18StreamedBinaryRead21TransferSTLStyleArrayI13dynamic_arrayItLj0EEEEvRT_17TransferMetaFlags
5810:__ZN8Renderer13BoundsChangedEv
5811:__ZN19ShaderPropertySheet20ReservePropertyCountEj
5812:__ZN13RenderTexture9SetActiveEPS_i11CubemapFaceiNS_14SetActiveFlagsE
5813:__Z25LoadFullScreenOrthoMatrixffR9GfxDevice
5814:__ZN8Material8SetFloatEN9ShaderLab16FastPropertyNameEf
5815:__ZN12ImageFilters4BlitER17ShaderPassContextP7TextureP13RenderTextureiP8MaterialiNS_9BlitFlagsE11CubemapFaceRK8Vector2fSC_
5816:__ZN8Material11HasPropertyEN9ShaderLab16FastPropertyNameE
5817:__ZN12ImageFilters4BlitER17ShaderPassContextP7TextureP13RenderTextureiPK18SharedMaterialDataPKcP6ShaderiNS_9BlitFlagsE11CubemapFaceRK8Vector2fSH_
5818:__ZN16BlitStereoHelperC2ER9GfxDeviceR17ShaderPassContextP13RenderTexture
5819:__ZL22SetCurrentRenderTargetP13RenderTextureiNS_14SetActiveFlagsE11CubemapFace
5820:__ZN19ShaderPropertySheet18ReserveValueBufferEj
5821:__ZN14GraphicsHelper15CreateQuadChunkER9GfxDevicebRK5RectTIfEP21DynamicVBOChunkHandle
5822:__ZN16BlitStereoHelper16PrepareEyeRenderEiRK19ShaderPropertySheetRS0_bRK8Vector2fS6_14VRTextureUsage
5823:__ZN14GraphicsHelper15RenderQuadChunkER9GfxDevice16VertexInputMasksRK21DynamicVBOChunkHandle
5824:__ZN13RenderTexture9SetActiveEiP12ObjectHandleI17RenderSurface_TagP17RenderSurfaceBaseES4_PPS_i11CubemapFaceiNS_14SetActiveFlagsE
5825:__ZNK19ShaderPropertySheet11HasPropertyERKN9ShaderLab16FastPropertyNameE
5826:__ZN13RenderTexture21MakeRenderTargetSetupEPS_i11CubemapFaceiNS_14SetActiveFlagsE
5827:__ZN12ImageFilters4BlitER17ShaderPassContextP7TextureP13RenderTextureiRK8Vector2fS8_NS_9BlitFlagsE
5828:__ZNK6Camera18GetRenderRectangleEv
5829:__ZN12ImageFilters19GetBlitCopyMaterialENS_12BlitCopyModeE
5830:__Z29PluginsIssueRenderingExtQuery26UnityRenderingExtQueryType32GfxDeviceRenderingExtQueryMethod
5831:__ZNK9Transform14TransformPointERK8Vector3f
5832:__ZN15LODGroupManager24UpdateLODGroupParametersEjR8LODGroupRK8Vector3ff
5833:__Z14TransformPoint23TransformAccessReadOnlyRKN4math7_float3E
5834:__ZN10DynamicVBOD2Ev
5835:__ZN10DynamicVBO8GetChunkEjjjj16GfxPrimitiveTypeP21DynamicVBOChunkHandle
5836:__ZN10DynamicVBO12ReleaseChunkER21DynamicVBOChunkHandlejj
5837:__ZN10DynamicVBO9DrawChunkERK21DynamicVBOChunkHandleP17VertexDeclarationPKNS_10DrawParamsEi
5838:__ZN10DynamicVBO11SwapBuffersEj
5839:__ZN10DynamicVBO13HandleToChunkERK21DynamicVBOChunkHandleb
5840:__ZN16GeometryJobTasks29PutDynamicVBOGeometryJobFenceER9GfxDevice
5841:__ZNK10DynamicVBO13IsHandleValidERK21DynamicVBOChunkHandle
5842:__ZN10DynamicVBO19FillQuadIndexBufferER21DynamicVBOChunkHandle
5843:__ZN17GenericDynamicVBOD2Ev
5844:__ZN17GenericDynamicVBOD0Ev
5845:__ZN17GenericDynamicVBO11SwapBuffersEj
5846:__ZN17GenericDynamicVBO13HandleToChunkERK21DynamicVBOChunkHandleb
5847:__ZN17GenericDynamicVBO10AllocateVBEjR21DynamicVBOChunkHandle
5848:__ZN17GenericDynamicVBO10AllocateIBEjR21DynamicVBOChunkHandle
5849:__ZN17GenericDynamicVBO17DrawChunkInternalERK21DynamicVBOChunkHandleP17VertexDeclarationPK16DrawBuffersRangeijj
5850:__ZN17GenericDynamicVBO20ReleaseChunkInternalERK21DynamicVBOChunkHandlejj
5851:__ZN17GenericDynamicVBO12EnsureBufferEjj15GfxBufferTargetR13dynamic_arrayIP9GfxBufferLj0EE
5852:__ZN10MeshFilterD0Ev
5853:__ZN10MeshFilter13AwakeFromLoadE17AwakeFromLoadMode
5854:__ZNK10MeshFilter22GetTypeVirtualInternalEv
5855:__ZN10MeshFilter23VirtualRedirectTransferER19StreamedBinaryWrite
5856:__ZN10MeshFilter23VirtualRedirectTransferER18StreamedBinaryRead
5857:__ZN10MeshFilter23VirtualRedirectTransferER17RemapPPtrTransfer
5858:__ZN10MeshFilter23VirtualRedirectTransferER24GenerateTypeTreeTransfer
5859:__ZN10MeshFilter23VirtualRedirectTransferER14SafeBinaryRead
5860:__ZN10MeshFilter20WillDestroyComponentEv
5861:__ZN12MeshRenderer13SetSharedMeshE4PPtrI4MeshE
5862:__ZN12MeshRenderer16UpdateCachedMeshEv
5863:__ZN12MeshRenderer18CalculateLocalAABBER4AABBRKS_RK4Mesh
5864:__ZN14SafeBinaryRead8TransferI10MeshFilterEEvRT_PKc17TransferMetaFlags
5865:__ZNK6Sprite9GetBoundsEbbb
5866:__ZN16SpriteRenderDataC2Ev
5867:__ZN23SharedMeshRenderingDataC2E10MemLabelId
5868:__ZNK9Transform13GetLocalScaleEv
5869:__ZN9Transform13SetLocalScaleERK8Vector3f
5870:__ZN8Renderer39GetCustomPropertiesRememberToUpdateHashEv
5871:__ZN19ShaderPropertySheet35SetTextureWithNoAuxiliaryPropertiesEN9ShaderLab16FastPropertyNameE9TextureID16TextureDimension14VRTextureUsage
5872:__ZN19ShaderPropertySheet11ComputeHashEv
5873:__ZN24ScriptableRenderPipeline18GetDefaultMaterialENS_22DefaultSRPMaterialTypeE
5874:__Z22FindUnityObjectFromSRPI8MaterialEPT_N4core12basic_stringIcNS3_20StringStorageDefaultIcEEEE
5875:__ZN13MonoBehaviour10FindMethodEPKc
5876:__ZN9Scripting26GetMethodWithSearchOptionsE17ScriptingClassPtrPKcN24ScriptingMethodFiltering18MethodSearchFilterE
5877:__ZN4MeshD2Ev
5878:__ZN4MeshD0Ev
5879:__ZN4Mesh17MainThreadCleanupEv
5880:__ZN4Mesh13AwakeFromLoadE17AwakeFromLoadMode
5881:__ZN4Mesh21AwakeFromLoadThreadedEv
5882:__ZNK4Mesh22GetTypeVirtualInternalEv
5883:__ZN4Mesh23VirtualRedirectTransferER19StreamedBinaryWrite
5884:__ZN4Mesh23VirtualRedirectTransferER18StreamedBinaryRead
5885:__ZN4Mesh23VirtualRedirectTransferER17RemapPPtrTransfer
5886:__ZN4Mesh23VirtualRedirectTransferER24GenerateTypeTreeTransfer
5887:__ZN4Mesh23VirtualRedirectTransferER14SafeBinaryRead
5888:__ZN4Mesh8TransferI14SafeBinaryReadEEvRT_
5889:__ZN14BlendShapeData8TransferI14SafeBinaryReadEEvRT_
5890:__ZN14SafeBinaryRead21TransferSTLStyleArrayI13dynamic_arrayI11ColorRGBA32Lj0EEEEvRT_17TransferMetaFlags
5891:__ZN4Mesh22SetBoneWeightsInternalEPK12BoneWeights4i
5892:__ZN14CompressedMesh8TransferI14SafeBinaryReadEEvRT_
5893:__ZN14CompressedMesh10DecompressER4Mesh
5894:__ZN14CompressedMeshD2Ev
5895:__ZN17CollisionMeshData8TransferI14SafeBinaryReadEEvRT_R4Mesh
5896:__ZN17PackedFloatVector12UnpackFloatsEPfiiii
5897:__ZN14CompressedMeshC2Ev
5898:__ZN13VertexUtility13SwapEndianessERK14VertexDataInfoPh
5899:__ZN14SafeBinaryRead21TransferSTLStyleArrayI13dynamic_arrayI16BlendShapeVertexLj0EEEEvRT_17TransferMetaFlags
5900:__ZN14SafeBinaryRead21TransferSTLStyleArrayI13dynamic_arrayI10BlendShapeLj0EEEEvRT_17TransferMetaFlags
5901:__ZN14SafeBinaryRead21TransferSTLStyleArrayINSt3__26vectorI17BlendShapeChannelNS1_9allocatorIS3_EEEEEEvRT_17TransferMetaFlags
5902:__ZN14SafeBinaryRead21TransferSTLStyleArrayI13dynamic_arrayIfLj0EEEEvRT_17TransferMetaFlags
5903:__Z14resize_trimmedINSt3__26vectorI17BlendShapeChannelNS0_9allocatorIS2_EEEEEvRT_j
5904:__ZN15SerializeTraitsI17BlendShapeChannelE8TransferI14SafeBinaryReadEEvRS0_RT_
5905:__ZNSt3__26vectorI17BlendShapeChannelNS_9allocatorIS1_EEE7reserveEj
5906:__ZNSt3__26vectorI17BlendShapeChannelNS_9allocatorIS1_EEE6assignINS_11__wrap_iterIPS1_EEEENS_9enable_ifIXaasr21__is_forward_iteratorIT_EE5valuesr16is_constructibleIS1_NS_15iterator_traitsISA_E9referenceEEE5valueEvE4typeESA_SA_
5907:__ZNSt3__26vectorI17BlendShapeChannelNS_9allocatorIS1_EEE8__appendEj
5908:__ZN14ConstantString6assignERKS_
5909:__ZN15SerializeTraitsI13dynamic_arrayI10BlendShapeLj0EEE19ResizeSTLStyleArrayERS2_i
5910:__ZN15SerializeTraitsI10BlendShapeE8TransferI14SafeBinaryReadEEvRS0_RT_
5911:__ZN13dynamic_arrayI16BlendShapeVertexLj0EE18resize_initializedEj12ResizePolicy
5912:__ZN16BlendShapeVertex8TransferI14SafeBinaryReadEEvRT_
5913:__ZN4Mesh8TransferI24GenerateTypeTreeTransferEEvRT_
5914:__ZN14BlendShapeData8TransferI24GenerateTypeTreeTransferEEvRT_
5915:__ZN14CompressedMesh8TransferI24GenerateTypeTreeTransferEEvRT_
5916:__ZN17CollisionMeshData8TransferI24GenerateTypeTreeTransferEEvRT_R4Mesh
5917:__ZN10BlendShape8TransferI24GenerateTypeTreeTransferEEvRT_
5918:__ZN17BlendShapeChannel8TransferI24GenerateTypeTreeTransferEEvRT_
5919:__ZN4Mesh8TransferI17RemapPPtrTransferEEvRT_
5920:__ZN4Mesh8TransferI18StreamedBinaryReadEEvRT_
5921:__ZN15SerializeTraitsI13dynamic_arrayI7SubMeshLj0EEE19ResizeSTLStyleArrayERS2_i
5922:__ZN14BlendShapeData8TransferI18StreamedBinaryReadEEvRT_
5923:__ZN14CompressedMesh8TransferI18StreamedBinaryReadEEvRT_
5924:__ZN17CollisionMeshData8TransferI18StreamedBinaryReadEEvRT_R4Mesh
5925:__ZN16BlendShapeVertex8TransferI18StreamedBinaryReadEEvRT_
5926:__ZN10BlendShape8TransferI18StreamedBinaryReadEEvRT_
5927:__ZN17BlendShapeChannel8TransferI18StreamedBinaryReadEEvRT_
5928:__ZN4Mesh8TransferI19StreamedBinaryWriteEEvRT_
5929:__ZN14BlendShapeData8TransferI19StreamedBinaryWriteEEvRT_
5930:__ZN14CompressedMesh8CompressERK4MeshRK21CompressedMeshQuality
5931:__ZN14CompressedMesh8TransferI19StreamedBinaryWriteEEvRT_
5932:__ZN17PackedFloatVector10PackFloatsEPKfiiiib
5933:__ZN15PackedIntVector8PackIntsItEEvPT_i
5934:__ZNK4Mesh14ExtractUvArrayEiPfi
5935:__ZN15PackedIntVector8PackIntsIjEEvPT_i
5936:__ZNK4Mesh17ExtractColorArrayEP10ColorRGBAf
5937:__ZN14SharedMeshData14GetBoneWeightsEi
5938:__ZN14VertexDataInfo18SetAsSingleChannelEj13ShaderChannelRK24VertexFormatAndDimension
5939:__ZN13VertexUtility12CopyChannelsEj17ShaderChannelMaskRK14VertexDataInfoPKhRS1_Ph
5940:__ZN16BlendShapeVertex8TransferI19StreamedBinaryWriteEEvRT_
5941:__ZN10BlendShape8TransferI19StreamedBinaryWriteEEvRT_
5942:__ZN17BlendShapeChannel8TransferI19StreamedBinaryWriteEEvRT_
5943:__ZN17CollisionMeshData21AwakeFromLoadThreadedER4Mesh
5944:__ZN4Mesh14UploadMeshDataEb
5945:__ZN4Mesh18UpdateVertexFormatEv
5946:__ZN13VertexUtility24CalcChannelLayoutForCapsERK12GraphicsCapsRK14VertexDataInfoR20VertexChannelsLayoutR17ShaderChannelMask
5947:__ZN17CollisionMeshData7CleanupEv
5948:__ZN14BlendShapeDataD2Ev
5949:__Z18TransformPoints3x3RK10Matrix4x4fPK8Vector3fjPS2_ji
5950:__Z26CalculateBlendedSkinMatrixILi2EEvRN4math8float4x4EPK10Matrix4x4fPKvj
5951:__Z26CalculateBlendedSkinMatrixILi4EEvRN4math8float4x4EPK10Matrix4x4fPKvj
5952:__ZN12SkinMeshInfo8AllocateEiib
5953:__ZN12SkinMeshInfo10DeallocateEPS_
5954:__ZN19SkinnedMeshRenderer30GetActualRootBoneFromAnyThreadEv
5955:__ZNK9Transform13GetWorldScaleEv
5956:__ZN8Renderer12GetTransformEv
5957:__ZN19SkinnedMeshRenderer22CreateSkinMatricesTaskEP10Matrix4x4fjbb
5958:__Z26ScheduleJobDependsInternalR8JobFencePFvPvES1_RKS_11JobPriority
5959:__ZN26SkinnedMeshRendererManager25CalculateSkinningMatricesER19SkinnedMeshRendererRK10Matrix4x4fPS3_PS2_j
5960:__ZN26SkinnedMeshRendererManager22CalculateAnimatedPosesER19SkinnedMeshRendererP10Matrix4x4fj
5961:__Z33MultiplyMatrixArrayWithBase4x4REFPK10Matrix4x4fS1_S1_PS_j
5962:__ZNK9Transform21GetLocalToWorldMatrixER10Matrix4x4f
5963:__Z21CalculateGlobalMatrix23TransformAccessReadOnly
5964:__ZN19SkinnedMeshRenderer27CreateCachedAnimatorBindingEv
5965:__ZN19SkinnedMeshRenderer24AnimatorModifiedCallbackEPvS0_i
5966:__ZN6Object11RemoveEventEPFvPvS0_iES0_
5967:__ZN26SkinnedMeshRendererManager31HandlePreparationBreakingChangeER19SkinnedMeshRenderer
5968:__Z22CalculateTransformPathRK9TransformPS0_
5969:__ZN6Object8AddEventEPFvPvS0_iES0_
5970:__ZN12EventManager8AddEventEPFvPvS0_iES0_P10EventEntry
5971:__ZN26SkinnedMeshRendererManager18RemovePreparedInfoEi
5972:__ZN12EventManager11RemoveEventEP10EventEntryPFvPvS2_iES2_
5973:__ZN13HandleManager4FreeEi
5974:__ZN13HandleManager8AllocateEv
5975:__ZN12MeshRendererD2Ev
5976:__ZN12MeshRendererD0Ev
5977:__ZN12MeshRenderer17MainThreadCleanupEv
5978:__ZN12MeshRenderer13AwakeFromLoadE17AwakeFromLoadMode
5979:__ZNK12MeshRenderer22GetTypeVirtualInternalEv
5980:__ZN12MeshRenderer23VirtualRedirectTransferER19StreamedBinaryWrite
5981:__ZN12MeshRenderer23VirtualRedirectTransferER18StreamedBinaryRead
5982:__ZN12MeshRenderer23VirtualRedirectTransferER17RemapPPtrTransfer
5983:__ZN12MeshRenderer23VirtualRedirectTransferER24GenerateTypeTreeTransfer
5984:__ZN12MeshRenderer23VirtualRedirectTransferER14SafeBinaryRead
5985:__ZN12MeshRenderer10DeactivateE19DeactivateOperation
5986:__ZN12MeshRenderer20RendererAddedToSceneEv
5987:__ZN12MeshRenderer24RendererRemovedFromSceneEv
5988:__ZN12MeshRenderer15AddAsRenderNodeER15RenderNodeQueueRK20DeprecatedSourceData
5989:__ZNK12MeshRenderer19GetStaticBatchIndexEv
5990:__ZThn32_N12MeshRendererD1Ev
5991:__ZThn32_N12MeshRendererD0Ev
5992:__ZThn32_N12MeshRenderer15AddAsRenderNodeER15RenderNodeQueueRK20DeprecatedSourceData
5993:__ZThn32_NK12MeshRenderer19GetStaticBatchIndexEv
5994:__ZN14SafeBinaryRead8TransferI12MeshRendererEEvRT_PKc17TransferMetaFlags
5995:__ZN11TimeManagerD2Ev
5996:__ZN11TimeManagerD0Ev
5997:__ZN11TimeManager13AwakeFromLoadE17AwakeFromLoadMode
5998:__ZN11TimeManager16CheckConsistencyEv
5999:__ZN11TimeManager5ResetEv
6000:__ZNK11TimeManager22GetTypeVirtualInternalEv
6001:__ZN11TimeManager23VirtualRedirectTransferER19StreamedBinaryWrite
6002:__ZN11TimeManager23VirtualRedirectTransferER18StreamedBinaryRead
6003:__ZN11TimeManager23VirtualRedirectTransferER24GenerateTypeTreeTransfer
6004:__ZN11TimeManager23VirtualRedirectTransferER14SafeBinaryRead
6005:__ZN11TimeManager6UpdateEv
6006:__Z19GetTimeSinceStartupv
6007:__ZN15SerializeTraitsI11TimeManagerE8TransferI14SafeBinaryReadEEvRS0_RT_
6008:__ZN11TimeManager8TransferI24GenerateTypeTreeTransferEEvRT_
6009:__ZN11TimeManager8TransferI18StreamedBinaryReadEEvRT_
6010:__ZN11TimeManager8TransferI19StreamedBinaryWriteEEvRT_
6011:__ZN12InputManagerD2Ev
6012:__ZN12InputManagerD0Ev
6013:__ZN12InputManager16CheckConsistencyEv
6014:__ZN12InputManager5ResetEv
6015:__ZNK12InputManager22GetTypeVirtualInternalEv
6016:__ZN12InputManager23VirtualRedirectTransferER19StreamedBinaryWrite
6017:__ZN12InputManager23VirtualRedirectTransferER18StreamedBinaryRead
6018:__ZN12InputManager23VirtualRedirectTransferER17RemapPPtrTransfer
6019:__ZN12InputManager23VirtualRedirectTransferER24GenerateTypeTreeTransfer
6020:__ZN12InputManager23VirtualRedirectTransferER14SafeBinaryRead
6021:__ZN12InputManager8TransferI14SafeBinaryReadEEvRT_
6022:__ZN14SafeBinaryRead21TransferSTLStyleArrayI13dynamic_arrayI9InputAxisLj0EEEEvRT_17TransferMetaFlags
6023:__Z10AddGUIAxesR13dynamic_arrayI9InputAxisLj0EE
6024:__ZN9InputAxisC2ERKN4core12basic_stringIcNS0_20StringStorageDefaultIcEEEE
6025:__ZN13dynamic_arrayI9InputAxisLj0EE9push_backERKS0_
6026:__Z11StringToKeyRKN4core12basic_stringIcNS_20StringStorageDefaultIcEEEE
6027:__ZN9InputAxisC2ERKS_
6028:__ZN13dynamic_arrayI9InputAxisLj0EE18resize_initializedEj12ResizePolicy
6029:__ZN9InputAxis8TransferI14SafeBinaryReadEEvRT_
6030:__ZN24GenerateTypeTreeTransfer21TransferSTLStyleArrayI13dynamic_arrayI9InputAxisLj0EEEEvRT_17TransferMetaFlags
6031:__ZN9InputAxis8TransferI24GenerateTypeTreeTransferEEvRT_
6032:__ZN9InputAxis8TransferI18StreamedBinaryReadEEvRT_
6033:__ZN9InputAxis8TransferI19StreamedBinaryWriteEEvRT_
6034:__ZN12InputManager11MakeDefaultEv
6035:__ZN12InputManager14ResetInputAxesEv
6036:__ZN14PlayerSettingsD2Ev
6037:__ZN14PlayerSettingsD0Ev
6038:__ZN14PlayerSettings13AwakeFromLoadE17AwakeFromLoadMode
6039:__ZN14PlayerSettings16CheckConsistencyEv
6040:__ZN14PlayerSettings5ResetEv
6041:__ZNK14PlayerSettings22GetTypeVirtualInternalEv
6042:__ZN14PlayerSettings23VirtualRedirectTransferER19StreamedBinaryWrite
6043:__ZN14PlayerSettings23VirtualRedirectTransferER18StreamedBinaryRead
6044:__ZN14PlayerSettings23VirtualRedirectTransferER17RemapPPtrTransfer
6045:__ZN14PlayerSettings23VirtualRedirectTransferER24GenerateTypeTreeTransfer
6046:__ZN14PlayerSettings23VirtualRedirectTransferER14SafeBinaryRead
6047:__ZN14PlayerSettings8TransferI14SafeBinaryReadEEvRT_
6048:__ZN26PlayerSettingsSplashScreen8TransferI14SafeBinaryReadEEvRT_
6049:__ZN15SerializeTraitsI12AspectRatiosE8TransferI14SafeBinaryReadEEvRS0_RT_
6050:__ZN10VRSettings8TransferI14SafeBinaryReadEEvRT_
6051:__ZN10VRSettings9Cardboard8TransferI14SafeBinaryReadEEvRT_
6052:__ZN10VRSettings8Daydream8TransferI14SafeBinaryReadEEvRT_
6053:__ZN10VRSettings8HoloLens8TransferI14SafeBinaryReadEEvRT_
6054:__ZN10VRSettings6Oculus8TransferI14SafeBinaryReadEEvRT_
6055:__ZN14SafeBinaryRead21TransferSTLStyleArrayI13dynamic_arrayI16SplashScreenLogoLj0EEEEvRT_17TransferMetaFlags
6056:__ZN15SerializeTraitsI13dynamic_arrayI16SplashScreenLogoLj0EEE19ResizeSTLStyleArrayERS2_i
6057:__ZN15SerializeTraitsI16SplashScreenLogoE8TransferI14SafeBinaryReadEEvRS0_RT_
6058:__ZN14PlayerSettings8TransferI24GenerateTypeTreeTransferEEvRT_
6059:__ZN26PlayerSettingsSplashScreen8TransferI24GenerateTypeTreeTransferEEvRT_
6060:__ZN12AspectRatios8TransferI24GenerateTypeTreeTransferEEvRT_
6061:__ZN10VRSettings8TransferI24GenerateTypeTreeTransferEEvRT_
6062:__ZN10VRSettings8Daydream8TransferI24GenerateTypeTreeTransferEEvRT_
6063:__ZN14PlayerSettings8TransferI17RemapPPtrTransferEEvRT_
6064:__ZN26PlayerSettingsSplashScreen8TransferI17RemapPPtrTransferEEvRT_
6065:__ZN14PlayerSettings8TransferI18StreamedBinaryReadEEvRT_
6066:__ZN26PlayerSettingsSplashScreen8TransferI18StreamedBinaryReadEEvRT_
6067:__ZN12AspectRatios8TransferI18StreamedBinaryReadEEvRT_
6068:__ZN10VRSettings8TransferI18StreamedBinaryReadEEvRT_
6069:__ZN10VRSettings8Daydream8TransferI18StreamedBinaryReadEEvRT_
6070:__ZN18StreamedBinaryRead21TransferSTLStyleArrayI13dynamic_arrayI16SplashScreenLogoLj0EEEEvRT_17TransferMetaFlags
6071:__ZN14PlayerSettings8TransferI19StreamedBinaryWriteEEvRT_
6072:__ZN26PlayerSettingsSplashScreen8TransferI19StreamedBinaryWriteEEvRT_
6073:__ZN12AspectRatios8TransferI19StreamedBinaryWriteEEvRT_
6074:__ZN10VRSettings8TransferI19StreamedBinaryWriteEEvRT_
6075:__ZN10VRSettings8Daydream8TransferI19StreamedBinaryWriteEEvRT_
6076:__ZN26PlayerSettingsSplashScreen5ResetEv
6077:__ZN26PlayerSettingsSplashScreen16CheckConsistencyEv
6078:__ZN7Cursors17InitializeCursorsEP9Texture2D8Vector2f
6079:__ZN7Cursors9SetCursorEP9Texture2D8Vector2f10CursorMode
6080:__Z13ConvertPixelsPKh13TextureFormatPhS1_j
6081:__ZN14AsyncOperationD2Ev
6082:__ZN14AsyncOperation15InvokeCoroutineEv
6083:__ZN13BuildSettingsD2Ev
6084:__ZN13BuildSettingsD0Ev
6085:__ZN13BuildSettings13AwakeFromLoadE17AwakeFromLoadMode
6086:__ZNK13BuildSettings22GetTypeVirtualInternalEv
6087:__ZN13BuildSettings23VirtualRedirectTransferER19StreamedBinaryWrite
6088:__ZN13BuildSettings23VirtualRedirectTransferER18StreamedBinaryRead
6089:__ZN13BuildSettings23VirtualRedirectTransferER24GenerateTypeTreeTransfer
6090:__ZN13BuildSettings23VirtualRedirectTransferER14SafeBinaryRead
6091:__ZN13BuildSettings8TransferI14SafeBinaryReadEEvRT_
6092:__ZNK12UnityVersionltERKS_
6093:__ZN14SafeBinaryRead21TransferSTLStyleArrayI10vector_mapIPKN5Unity4TypeE7Hash128NSt3__24lessIS5_EENS7_9allocatorINS7_4pairIS5_S6_EEEEEEEvRT_17TransferMetaFlags
6094:__ZNSt3__26__sortIRNS_6__lessINS_4pairIPKN5Unity4TypeE7Hash128EES8_EEPS8_EEvT0_SC_T_
6095:__ZN14SafeBinaryRead21TransferSTLStyleArrayI10vector_mapI7Hash128S2_NSt3__24lessIS2_EENS3_9allocatorINS3_4pairIS2_S2_EEEEEEEvRT_17TransferMetaFlags
6096:__ZNSt3__26vectorINS_4pairI7Hash128S2_EENS_9allocatorIS3_EEE8__appendEj
6097:__ZN15SerializeTraitsINSt3__24pairI7Hash128S2_EEE8TransferI14SafeBinaryReadEEvRS3_RT_
6098:__ZNSt3__27__sort3IRNS_6__lessINS_4pairIPKN5Unity4TypeE7Hash128EES8_EEPS8_EEjT0_SC_SC_T_
6099:__ZNSt3__27__sort4IRNS_6__lessINS_4pairIPKN5Unity4TypeE7Hash128EES8_EEPS8_EEjT0_SC_SC_SC_T_
6100:__ZNSt3__27__sort5IRNS_6__lessINS_4pairIPKN5Unity4TypeE7Hash128EES8_EEPS8_EEjT0_SC_SC_SC_SC_T_
6101:__ZNSt3__218__insertion_sort_3IRNS_6__lessINS_4pairIPKN5Unity4TypeE7Hash128EES8_EEPS8_EEvT0_SC_T_
6102:__ZNSt3__227__insertion_sort_incompleteIRNS_6__lessINS_4pairIPKN5Unity4TypeE7Hash128EES8_EEPS8_EEbT0_SC_T_
6103:__ZNSt3__26vectorINS_4pairIPKN5Unity4TypeE7Hash128EENS_9allocatorIS7_EEE8__appendEj
6104:__ZN15SerializeTraitsINSt3__24pairIPKN5Unity4TypeE7Hash128EEE8TransferI14SafeBinaryReadEEvRS7_RT_
6105:__ZN13BuildSettings8TransferI24GenerateTypeTreeTransferEEvRT_
6106:__ZN24GenerateTypeTreeTransfer8TransferINSt3__26vectorIN4core12basic_stringIcNS3_20StringStorageDefaultIcEEEENS1_9allocatorIS7_EEEEEEvRT_PKc17TransferMetaFlags
6107:__ZN13BuildSettings8TransferI18StreamedBinaryReadEEvRT_
6108:__ZN18StreamedBinaryRead21TransferSTLStyleArrayI10vector_mapIPKN5Unity4TypeE7Hash128NSt3__24lessIS5_EENS7_9allocatorINS7_4pairIS5_S6_EEEEEEEvRT_17TransferMetaFlags
6109:__ZN18StreamedBinaryRead21TransferSTLStyleArrayI10vector_mapI7Hash128S2_NSt3__24lessIS2_EENS3_9allocatorINS3_4pairIS2_S2_EEEEEEEvRT_17TransferMetaFlags
6110:__ZN13BuildSettings8TransferI19StreamedBinaryWriteEEvRT_
6111:__ZNK22GenericPropertyBinding13GetFloatValueERKN11UnityEngine9Animation10BoundCurveE
6112:__ZNK22GenericPropertyBinding13SetFloatValueERKN11UnityEngine9Animation10BoundCurveEf
6113:__ZNK22GenericPropertyBinding15GenerateBindingERKN4core12basic_stringIcNS0_20StringStorageDefaultIcEEEEbRN11UnityEngine9Animation14GenericBindingE
6114:__ZNK22GenericPropertyBinding9BindValueER6ObjectRKN11UnityEngine9Animation14GenericBindingERNS3_10BoundCurveE
6115:__ZN30RuntimeInitializeOnLoadManagerD2Ev
6116:__ZN30RuntimeInitializeOnLoadManagerD0Ev
6117:__ZNK30RuntimeInitializeOnLoadManager22GetTypeVirtualInternalEv
6118:__ZN30RuntimeInitializeOnLoadManager23VirtualRedirectTransferER19StreamedBinaryWrite
6119:__ZN30RuntimeInitializeOnLoadManager23VirtualRedirectTransferER18StreamedBinaryRead
6120:__ZN30RuntimeInitializeOnLoadManager23VirtualRedirectTransferER24GenerateTypeTreeTransfer
6121:__ZN30RuntimeInitializeOnLoadManager23VirtualRedirectTransferER14SafeBinaryRead
6122:__ZN30RuntimeInitializeOnLoadManager8TransferI14SafeBinaryReadEEvRT_
6123:__ZN14SafeBinaryRead21TransferSTLStyleArrayINSt3__26vectorIN4core12basic_stringIcNS3_20StringStorageDefaultIcEEEE13stl_allocatorIS7_L18MemLabelIdentifier13ELi16EEEEEEvRT_17TransferMetaFlags
6124:__ZN14SafeBinaryRead21TransferSTLStyleArrayINSt3__26vectorIN30RuntimeInitializeOnLoadManager9ClassInfoE13stl_allocatorIS4_L18MemLabelIdentifier13ELi16EEEEEEvRT_17TransferMetaFlags
6125:__ZN14SafeBinaryRead21TransferSTLStyleArrayINSt3__26vectorIN30RuntimeInitializeOnLoadManager15ClassMethodInfoE13stl_allocatorIS4_L18MemLabelIdentifier13ELi16EEEEEEvRT_17TransferMetaFlags
6126:__ZN14SafeBinaryRead21TransferSTLStyleArrayINSt3__26vectorIi13stl_allocatorIiL18MemLabelIdentifier13ELi16EEEEEEvRT_17TransferMetaFlags
6127:__Z14resize_trimmedINSt3__26vectorIi13stl_allocatorIiL18MemLabelIdentifier13ELi16EEEEEvRT_j
6128:__ZNSt3__26vectorIi13stl_allocatorIiL18MemLabelIdentifier13ELi16EEE6assignINS_11__wrap_iterIPiEEEENS_9enable_ifIXaasr21__is_forward_iteratorIT_EE5valuesr16is_constructibleIiNS_15iterator_traitsISA_E9referenceEEE5valueEvE4typeESA_SA_
6129:__ZNSt3__26vectorIi13stl_allocatorIiL18MemLabelIdentifier13ELi16EEE8__appendEj
6130:__Z14resize_trimmedINSt3__26vectorIN30RuntimeInitializeOnLoadManager15ClassMethodInfoE13stl_allocatorIS3_L18MemLabelIdentifier13ELi16EEEEEvRT_j
6131:__ZN30RuntimeInitializeOnLoadManager15ClassMethodInfo8TransferI14SafeBinaryReadEEvRT_
6132:__ZNSt3__26vectorIN30RuntimeInitializeOnLoadManager15ClassMethodInfoE13stl_allocatorIS2_L18MemLabelIdentifier13ELi16EEE7reserveEj
6133:__ZNSt3__26vectorIN30RuntimeInitializeOnLoadManager15ClassMethodInfoE13stl_allocatorIS2_L18MemLabelIdentifier13ELi16EEE6assignINS_11__wrap_iterIPS2_EEEENS_9enable_ifIXaasr21__is_forward_iteratorIT_EE5valuesr16is_constructibleIS2_NS_15iterator_traitsISC_E9referenceEEE5valueEvE4typeESC_SC_
6134:__ZNSt3__26vectorIN30RuntimeInitializeOnLoadManager15ClassMethodInfoE13stl_allocatorIS2_L18MemLabelIdentifier13ELi16EEE8__appendEj
6135:__ZNSt3__26vectorIN30RuntimeInitializeOnLoadManager15ClassMethodInfoE13stl_allocatorIS2_L18MemLabelIdentifier13ELi16EEEC2INS_11__wrap_iterIPS2_EEEET_SB_RKS5_PNS_9enable_ifIXaasr21__is_forward_iteratorISB_EE5valuesr16is_constructibleIS2_NS_15iterator_traitsISB_E9referenceEEE5valueEvE4typeE
6136:__Z14resize_trimmedINSt3__26vectorIN30RuntimeInitializeOnLoadManager9ClassInfoE13stl_allocatorIS3_L18MemLabelIdentifier13ELi16EEEEEvRT_j
6137:__ZN30RuntimeInitializeOnLoadManager9ClassInfo8TransferI14SafeBinaryReadEEvRT_
6138:__ZNSt3__26vectorIN30RuntimeInitializeOnLoadManager9ClassInfoE13stl_allocatorIS2_L18MemLabelIdentifier13ELi16EEE7reserveEj
6139:__ZNSt3__26vectorIN30RuntimeInitializeOnLoadManager9ClassInfoE13stl_allocatorIS2_L18MemLabelIdentifier13ELi16EEE6assignINS_11__wrap_iterIPS2_EEEENS_9enable_ifIXaasr21__is_forward_iteratorIT_EE5valuesr16is_constructibleIS2_NS_15iterator_traitsISC_E9referenceEEE5valueEvE4typeESC_SC_
6140:__ZNSt3__26vectorIN30RuntimeInitializeOnLoadManager9ClassInfoE13stl_allocatorIS2_L18MemLabelIdentifier13ELi16EEE8__appendEj
6141:__ZNSt3__26vectorIN30RuntimeInitializeOnLoadManager9ClassInfoE13stl_allocatorIS2_L18MemLabelIdentifier13ELi16EEEC2INS_11__wrap_iterIPS2_EEEET_SB_RKS5_PNS_9enable_ifIXaasr21__is_forward_iteratorISB_EE5valuesr16is_constructibleIS2_NS_15iterator_traitsISB_E9referenceEEE5valueEvE4typeE
6142:__Z14resize_trimmedINSt3__26vectorIN4core12basic_stringIcNS2_20StringStorageDefaultIcEEEE13stl_allocatorIS6_L18MemLabelIdentifier13ELi16EEEEEvRT_j
6143:__ZNSt3__26vectorIN4core12basic_stringIcNS1_20StringStorageDefaultIcEEEE13stl_allocatorIS5_L18MemLabelIdentifier13ELi16EEE7reserveEj
6144:__ZNSt3__26vectorIN4core12basic_stringIcNS1_20StringStorageDefaultIcEEEE13stl_allocatorIS5_L18MemLabelIdentifier13ELi16EEE6assignINS_11__wrap_iterIPS5_EEEENS_9enable_ifIXaasr21__is_forward_iteratorIT_EE5valuesr16is_constructibleIS5_NS_15iterator_traitsISF_E9referenceEEE5valueEvE4typeESF_SF_
6145:__ZNSt3__26vectorIN4core12basic_stringIcNS1_20StringStorageDefaultIcEEEE13stl_allocatorIS5_L18MemLabelIdentifier13ELi16EEE8__appendEj
6146:__ZNSt3__26vectorIN4core12basic_stringIcNS1_20StringStorageDefaultIcEEEE13stl_allocatorIS5_L18MemLabelIdentifier13ELi16EEEC2INS_11__wrap_iterIPS5_EEEET_SE_RKS8_PNS_9enable_ifIXaasr21__is_forward_iteratorISE_EE5valuesr16is_constructibleIS5_NS_15iterator_traitsISE_E9referenceEEE5valueEvE4typeE
6147:__ZN30RuntimeInitializeOnLoadManager8TransferI24GenerateTypeTreeTransferEEvRT_
6148:__ZN15SerializeTraitsINSt3__26vectorIN30RuntimeInitializeOnLoadManager9ClassInfoE13stl_allocatorIS3_L18MemLabelIdentifier13ELi16EEEEE8TransferI24GenerateTypeTreeTransferEEvRS7_RT_
6149:__ZN15SerializeTraitsINSt3__26vectorIN30RuntimeInitializeOnLoadManager15ClassMethodInfoE13stl_allocatorIS3_L18MemLabelIdentifier13ELi16EEEEE8TransferI24GenerateTypeTreeTransferEEvRS7_RT_
6150:__ZN30RuntimeInitializeOnLoadManager15ClassMethodInfo8TransferI24GenerateTypeTreeTransferEEvRT_
6151:__ZN30RuntimeInitializeOnLoadManager9ClassInfo8TransferI24GenerateTypeTreeTransferEEvRT_
6152:__ZN30RuntimeInitializeOnLoadManager8TransferI18StreamedBinaryReadEEvRT_
6153:__ZN30RuntimeInitializeOnLoadManager9ClassInfo8TransferI18StreamedBinaryReadEEvRT_
6154:__ZN30RuntimeInitializeOnLoadManager15ClassMethodInfo8TransferI18StreamedBinaryReadEEvRT_
6155:__ZN30RuntimeInitializeOnLoadManager8TransferI19StreamedBinaryWriteEEvRT_
6156:__ZN30RuntimeInitializeOnLoadManager9ClassInfo8TransferI19StreamedBinaryWriteEEvRT_
6157:__ZN30RuntimeInitializeOnLoadManager15ClassMethodInfo8TransferI19StreamedBinaryWriteEEvRT_
6158:__ZN27GenericSlowGarbageCollector18GenerateInstanceIDEi17TransferMetaFlags
6159:__ZN27GenericSlowGarbageCollector16ProcessReferenceEi
6160:__ZN15ResourceManagerD2Ev
6161:__ZN15ResourceManagerD0Ev
6162:__ZNK15ResourceManager22GetTypeVirtualInternalEv
6163:__ZN15ResourceManager23VirtualRedirectTransferER19StreamedBinaryWrite
6164:__ZN15ResourceManager23VirtualRedirectTransferER18StreamedBinaryRead
6165:__ZN15ResourceManager23VirtualRedirectTransferER17RemapPPtrTransfer
6166:__ZN15ResourceManager23VirtualRedirectTransferER24GenerateTypeTreeTransfer
6167:__ZN15ResourceManager23VirtualRedirectTransferER14SafeBinaryRead
6168:__ZN15ResourceManager8TransferI14SafeBinaryReadEEvRT_
6169:__ZN14SafeBinaryRead19TransferSTLStyleMapINSt3__28multimapIN4core12basic_stringIcNS3_20StringStorageDefaultIcEEEE4PPtrI6ObjectENS1_4lessIS7_EE13stl_allocatorINS1_4pairIKS7_SA_EEL18MemLabelIdentifier52ELi16EEEEEEvRT_17TransferMetaFlags
6170:__ZN14SafeBinaryRead21TransferSTLStyleArrayI13dynamic_arrayIN15ResourceManager10DependencyELj0EEEEvRT_17TransferMetaFlags
6171:__ZNSt3__26__sortIRN15ResourceManager10Dependency6SorterEPS2_EEvT0_S6_T_
6172:__ZNSt3__27__sort3IRN15ResourceManager10Dependency6SorterEPS2_EEjT0_S6_S6_T_
6173:__ZNSt3__27__sort4IRN15ResourceManager10Dependency6SorterEPS2_EEjT0_S6_S6_S6_T_
6174:__ZNSt3__27__sort5IRN15ResourceManager10Dependency6SorterEPS2_EEjT0_S6_S6_S6_S6_T_
6175:__ZNSt3__218__insertion_sort_3IRN15ResourceManager10Dependency6SorterEPS2_EEvT0_S6_T_
6176:__ZNSt3__227__insertion_sort_incompleteIRN15ResourceManager10Dependency6SorterEPS2_EEbT0_S6_T_
6177:__ZN13dynamic_arrayIN15ResourceManager10DependencyELj0EE18resize_initializedEj12ResizePolicy
6178:__ZN15ResourceManager10Dependency8TransferI14SafeBinaryReadEEvRT_
6179:__ZNSt3__26__treeINS_12__value_typeIN4core12basic_stringIcNS2_20StringStorageDefaultIcEEEE4PPtrI6ObjectEEENS_19__map_value_compareIS6_SA_NS_4lessIS6_EELb1EEE13stl_allocatorISA_L18MemLabelIdentifier52ELi16EEE7destroyEPNS_11__tree_nodeISA_PvEE
6180:__ZNSt3__26__treeINS_12__value_typeIN4core12basic_stringIcNS2_20StringStorageDefaultIcEEEE4PPtrI6ObjectEEENS_19__map_value_compareIS6_SA_NS_4lessIS6_EELb1EEE13stl_allocatorISA_L18MemLabelIdentifier52ELi16EEE15__emplace_multiIJRNS_4pairIS6_S9_EEEEENS_15__tree_iteratorISA_PNS_11__tree_nodeISA_PvEEiEEDpOT_
6181:__ZN24GenerateTypeTreeTransfer8TransferINSt3__28multimapIN4core12basic_stringIcNS3_20StringStorageDefaultIcEEEE4PPtrI6ObjectENS1_4lessIS7_EE13stl_allocatorINS1_4pairIKS7_SA_EEL18MemLabelIdentifier52ELi16EEEEEEvRT_PKc17TransferMetaFlags
6182:__ZN15SerializeTraitsI13dynamic_arrayIN15ResourceManager10DependencyELj0EEE8TransferI24GenerateTypeTreeTransferEEvRS3_RT_
6183:__ZN15ResourceManager10Dependency8TransferI24GenerateTypeTreeTransferEEvRT_
6184:__ZN15SerializeTraitsINSt3__24pairIN4core12basic_stringIcNS2_20StringStorageDefaultIcEEEE4PPtrI6ObjectEEEE8TransferI24GenerateTypeTreeTransferEEvRSA_RT_
6185:__ZN15ResourceManager8TransferI17RemapPPtrTransferEEvRT_
6186:__ZN18StreamedBinaryRead19TransferSTLStyleMapINSt3__28multimapIN4core12basic_stringIcNS3_20StringStorageDefaultIcEEEE4PPtrI6ObjectENS1_4lessIS7_EE13stl_allocatorINS1_4pairIKS7_SA_EEL18MemLabelIdentifier52ELi16EEEEEEvRT_17TransferMetaFlags
6187:__ZN18StreamedBinaryRead8TransferI13dynamic_arrayIN15ResourceManager10DependencyELj0EEEEvRT_PKc17TransferMetaFlags
6188:__ZN15ResourceManager8TransferI19StreamedBinaryWriteEEvRT_
6189:__ZN13LoadOperationD2Ev
6190:__ZN13LoadOperationD0Ev
6191:__ZN23PreloadManagerOperation6IsDoneEv
6192:__ZN23PreloadManagerOperation11GetProgressEv
6193:__ZN13LoadOperation7PerformEv
6194:__ZN13LoadOperation19IntegrateTimeSlicedEi
6195:__ZN13LoadOperation19IntegrateMainThreadEv
6196:__ZN27TimeSliceAwakeFromLoadQueue19IntegrateTimeSlicedEi
6197:__ZN23dynamic_ringbuffer_baseIN27TimeSliceAwakeFromLoadQueue13AsyncInstanceEE8read_ptrERj
6198:__ZN17PersistentManager48IntegrateObjectAndUnlockIntegrationMutexInternalEi
6199:__ZN23dynamic_ringbuffer_baseIN27TimeSliceAwakeFromLoadQueue11SyncCommandEE8read_ptrERj
6200:__Z48AddToTimeSliceAwakeFromLoadQueueProgressCallbackR6ObjectPv
6201:__ZN17PersistentManager19LoadObjectsThreadedEPKiiR12LoadProgressb
6202:__ZN17PersistentManager34ExtractTimeSliceAwakeFromLoadQueueER27TimeSliceAwakeFromLoadQueueNS_9LockFlagsE
6203:__ZN23dynamic_ringbuffer_baseIN27TimeSliceAwakeFromLoadQueue11SyncCommandEE9write_ptrERj
6204:__ZN17PersistentManager22CheckInstanceIDsLoadedEPiiNS_9LockFlagsE
6205:__ZN6Object22CheckInstanceIDsLoadedEPii
6206:__ZN18AsyncUploadManager13GetAsyncFenceEP6Object
6207:__ZN23dynamic_ringbuffer_baseIN27TimeSliceAwakeFromLoadQueue13AsyncInstanceEE9write_ptrERj
6208:__ZN18LoadSceneOperationD2Ev
6209:__ZN18LoadSceneOperationD0Ev
6210:__ZN18LoadSceneOperation23GetAllowSceneActivationEv
6211:__ZN18LoadSceneOperation23SetAllowSceneActivationEb
6212:__ZN18LoadSceneOperation14SetFinalTimingEffff
6213:__ZN18LoadSceneOperation7PerformEv
6214:__ZN18LoadSceneOperation19IntegrateTimeSlicedEi
6215:__ZN18LoadSceneOperation19IntegrateMainThreadEv
6216:__ZN18LoadSceneOperation21MustCompleteNextFrameEv
6217:__ZN19RuntimeSceneManager24BeginIntegrateMainThreadEP10UnityScene
6218:__ZN18LoadSceneOperation21PostLoadSceneAdditiveEv
6219:__ZN18LoadSceneOperation25PlayerLoadSceneFromThreadEv
6220:__ZN18LoadSceneOperation22CompleteLoadFirstSceneEv
6221:__ZN19RuntimeSceneManager22EndIntegrateMainThreadEP10UnityScene16SceneLoadingMode
6222:__ZN30RuntimeInitializeOnLoadManager23ExecuteInitializeOnLoadE25RuntimeInitializeLoadType
6223:__ZN18AwakeFromLoadQueue5ClearEv
6224:__ZN30RuntimeInitializeOnLoadManager23ExecuteInitializeOnLoadENSt3__26vectorIi13stl_allocatorIiL18MemLabelIdentifier13ELi16EEEE
6225:__ZN19RuntimeSceneManager31CollectDontDestroyOnLoadObjectsERNSt3__23setIiNS0_4lessIiEENS0_9allocatorIiEEEE
6226:__Z15UnloadGameScenev
6227:__ZN18LoadSceneOperation21CompleteAwakeSequenceEv
6228:__Z16CleanupAfterLoadv
6229:__Z21SendMessageToEveryoneRK17MessageIdentifier11MessageData
6230:__ZNSt3__26__treeI4PPtrI6ObjectENS_4lessIS3_EENS_9allocatorIS3_EEE7destroyEPNS_11__tree_nodeIS3_PvEE
6231:__ZN6Object21FindInstanceIDsOfTypeEPKN5Unity4TypeER13dynamic_arrayIiLj0EEb
6232:__ZL35FindInstanceIDsOfTypeImplementationPN4core8hash_setIP6ObjectNS_4hashIS2_EENSt3__28equal_toIS2_EEEEPKN5Unity4TypeER13dynamic_arrayIiLj0EE
6233:__ZN19RenderBufferManager14GarbageCollectEi
6234:__Z29ClearRepeatingLogMessageStatev
6235:__ZN13RenderManager18UpdateAllRenderersEv
6236:__Z21GetDelayedCallManagerv
6237:__ZN21RendererUpdateManager18OncePerFrameUpdateER13RendererScene
6238:__ZN21RendererUpdateManager9UpdateAllER13RendererScene
6239:__ZN28LightProbeProxyVolumeManager6UpdateEv
6240:__ZN28LightProbeProxyVolumeContext5ResetEv
6241:__ZN28LightProbeProxyVolumeManager17UpdateProxyVolumeER21LightProbeProxyVolumej
6242:__ZN21LightProbeProxyVolume13GetRenderDataER27LightProbeProxyVolumeSample
6243:__ZN21LightProbeProxyVolume21GetWorldToLocalMatrixEv
6244:__ZN27LightProbeProxyVolumeSample10InvalidateEv
6245:__ZN10Matrix4x4f12SetTranslateERK8Vector3f
6246:__ZN28LightProbeProxyVolumeManager17UpdateBoundingBoxER21LightProbeProxyVolume
6247:__ZN28LightProbeProxyVolumeManager16UpdateResolutionER21LightProbeProxyVolume
6248:__ZN28LightProbeProxyVolumeManager27ManageVolumeTextureLifetimeER21LightProbeProxyVolume
6249:__ZN28LightProbeProxyVolumeManager16BlendLightProbesER21LightProbeProxyVolume
6250:__ZN9Texture3D15UpdateImageDataEb
6251:__ZN9Texture3D13RebuildMipMapEv
6252:__ZN17LightProbeContext4InitERK16LightmapSettingsRK14RenderSettings
6253:__ZN26LightProbeProxyVolumeUtilsL20FindTetrahedronIndexER9TransformRi
6254:__ZNK9Transform21GetLocalToWorldMatrixEv
6255:__ZL19BlendLightProbesJobP19BlendProbesJobInputj
6256:__Z27CalculateLightOcclusionMaskRK17LightProbeContextRK29LightProbeSamplingCoordinates
6257:__Z31CalculateLightProbeCoefficientsRK17LightProbeContextRK29LightProbeSamplingCoordinates25LightProbeCoefficientTypeR20SphericalHarmonicsL2
6258:__ZN20SphericalHarmonicsL234GetShaderConstantsFromNormalizedSHERKS_R11fixed_arrayI8Vector4fLj7EE
6259:__ZNK16LightmapSettings19AreLightProbesBakedEv
6260:__ZNK16LightmapSettings23HasLightProbeTetrahedraEv
6261:__ZN28LightProbeProxyVolumeManager30ShouldReallocateVolumeTexturesER21LightProbeProxyVolumeP4PPtrI9Texture3DE
6262:__ZN28LightProbeProxyVolumeManager24AllocateVolumeTextureSetER21LightProbeProxyVolumeP4PPtrI9Texture3DEPKc
6263:__ZN9Texture3D11InitTextureEiii13TextureFormatb
6264:__ZN9Texture3DC2E10MemLabelId18ObjectCreationMode
6265:__ZN26LightProbeProxyVolumeUtilsL28ComputeGlobalAABBOnHierarchyER9TransformR10MinMaxAABB
6266:__Z17TransformAABBSlowRK4AABBRK10Matrix4x4fRS_
6267:__ZN21LightProbeProxyVolume18HasHardwareSupportEv
6268:__ZN13RendererScene23UpdatePreviousFrameDataEii
6269:__ZN19RenderBufferManager8Textures14GarbageCollectEi
6270:__ZN19RenderBufferManager7Buffers14GarbageCollectEi
6271:__ZN10UnityScene24ExtractLevelGameManagersER18AwakeFromLoadQueue
6272:__Z23CollectSceneGameObjectsR13dynamic_arrayIiLj0EE
6273:__ZN19RuntimeSceneManager43UnloadAllScenesWithoutDestroyingGameObjectsEv
6274:__Z12CollectPPtrsRK6ObjectRNSt3__23setIiNS2_4lessIiEENS2_9allocatorIiEEEE
6275:__ZN18IDCollectorFunctor18GenerateInstanceIDEi17TransferMetaFlags
6276:__ZN17RemapPPtrTransferC2E24TransferInstructionFlagsb
6277:__ZN17PersistentManager30GetInstanceIDFromPathAndFileIDERKN4core12basic_stringIcNS0_20StringStorageDefaultIcEEEEx
6278:__ZN17PersistentManager27GetLoadErrorMessageFromPathERKN4core12basic_stringIcNS0_20StringStorageDefaultIcEEEE
6279:__ZN17PersistentManager29GetAllFileIDsAndTypesFromPathERKN4core12basic_stringIcNS0_20StringStorageDefaultIcEEEER13dynamic_arrayIxLj0EERS7_IPKN5Unity4TypeELj0EE
6280:__ZN17PersistentManager17GetSerializedFileERKN4core12basic_stringIcNS0_20StringStorageDefaultIcEEEENS_9LockFlagsE
6281:__ZN17PersistentManager26LoadFileCompletelyThreadedERKN4core12basic_stringIcNS0_20StringStorageDefaultIcEEEEPxPiiNS_9LoadFlagsER12LoadProgressNS_9LockFlagsE
6282:__ZN17PersistentManager25ExtractAwakeFromLoadQueueEPKijR18AwakeFromLoadQueueNS_9LockFlagsE
6283:__ZN17PersistentManager31HasMemoryOrCachedSerializedFileERKN4core12basic_stringIcNS0_20StringStorageDefaultIcEEEE
6284:__ZN17PersistentManager12UnloadStreamERKN4core12basic_stringIcNS0_20StringStorageDefaultIcEEEEb
6285:__ZN17PersistentManager13GetAllFileIDsERKN4core12basic_stringIcNS0_20StringStorageDefaultIcEEEER13dynamic_arrayIxLj0EE
6286:__ZNK14SerializedFile13GetAllFileIDsER13dynamic_arrayIxLj0EE
6287:__ZN10UnitySceneD2Ev
6288:__ZN11PreloadDataD2Ev
6289:__ZN11PreloadDataD0Ev
6290:__ZNK11PreloadData22GetTypeVirtualInternalEv
6291:__ZN11PreloadData23VirtualRedirectTransferER19StreamedBinaryWrite
6292:__ZN11PreloadData23VirtualRedirectTransferER18StreamedBinaryRead
6293:__ZN11PreloadData23VirtualRedirectTransferER17RemapPPtrTransfer
6294:__ZN11PreloadData23VirtualRedirectTransferER24GenerateTypeTreeTransfer
6295:__ZN11PreloadData23VirtualRedirectTransferER14SafeBinaryRead
6296:__ZN11PreloadData8TransferI14SafeBinaryReadEEvRT_
6297:__ZN11PreloadData8TransferI24GenerateTypeTreeTransferEEvRT_
6298:__ZN11PreloadData8TransferI19StreamedBinaryWriteEEvRT_
6299:__ZN27UnloadUnusedAssetsOperationD0Ev
6300:__ZN27UnloadUnusedAssetsOperation7PerformEv
6301:__ZN27UnloadUnusedAssetsOperation19IntegrateMainThreadEv
6302:__Z26GarbageCollectSharedAssetsbb
6303:__Z20MarkInstanceIDAsRootiR21GarbageCollectorState
6304:__ZL30RegisterFilteredObjectCallbackPP12Il2CppObjectiPv
6305:__ZL14OnWorldStartedv
6306:__Z16MarkDependenciesR27GarbageCollectorThreadStatej
6307:__Z25BatchDeleteObjectInternalPKii
6308:__ZN13MonoBehaviour26WillUnloadScriptableObjectEv
6309:__ZN19ScriptingInvocation28AdjustArgumentsToMatchMethodEv
6310:__ZN19ScriptingInvocation13InvokeCheckedEP21ScriptingExceptionPtr
6311:__ZN18ScriptingArguments27CheckArgumentsAgainstMethodE18ScriptingMethodPtr
6312:__ZN18ScriptingArguments28AdjustArgumentsToMatchMethodE18ScriptingMethodPtr
6313:__ZNK10GameObject38MarkGameObjectAndComponentDependenciesER27GarbageCollectorThreadState
6314:__ZNK5Unity9Component38MarkGameObjectAndComponentDependenciesER27GarbageCollectorThreadState
6315:__ZNK8Material16MarkDependenciesER27GarbageCollectorThreadState
6316:__Z40scripting_liveness_calculation_from_root18ScriptingObjectPtrPv
6317:__ZN9Scripting16GetInstanceIDForE18ScriptingObjectPtr
6318:__ZN17PersistentManager21UnloadNonDirtyStreamsEv
6319:__ZN22MemoryCacherReadBlocks14LockCacheBlockEjPPhS1_
6320:__ZN22MemoryCacherReadBlocks11GetPathNameEv
6321:__ZN22MemoryCacherReadBlocks18GetAddressOfMemoryEv
6322:__ZN15CacheWriterBase23WriteHeaderAndCloseFileEPvjj
6323:__ZN15CacheWriterBase18GetAddressOfMemoryEv
6324:__ZN19ComputeShaderKernelD2Ev
6325:__ZN13ComputeShader20GetCompatibleVariantE17GfxDeviceRendereri
6326:__ZN13dynamic_arrayI20ComputeShaderVariantLj0EE9push_backERKS0_
6327:__ZN13dynamic_arrayI19ComputeShaderKernelLj0EE6assignEPKS0_S3_
6328:__ZN13dynamic_arrayI15ComputeShaderCBLj0EE6assignEPKS0_S3_
6329:__ZN19ComputeShaderKernelC2ERKS_
6330:__ZN12ScriptMapperD2Ev
6331:__ZN12ScriptMapperD0Ev
6332:__ZNK12ScriptMapper22GetTypeVirtualInternalEv
6333:__ZN12ScriptMapper23VirtualRedirectTransferER19StreamedBinaryWrite
6334:__ZN12ScriptMapper23VirtualRedirectTransferER18StreamedBinaryRead
6335:__ZN12ScriptMapper23VirtualRedirectTransferER17RemapPPtrTransfer
6336:__ZN12ScriptMapper23VirtualRedirectTransferER24GenerateTypeTreeTransfer
6337:__ZN12ScriptMapper23VirtualRedirectTransferER14SafeBinaryRead
6338:__ZN14SafeBinaryRead22TransferWithTypeStringI12ScriptMapperEEvRT_PKcS5_17TransferMetaFlags
6339:__ZN14SafeBinaryRead8TransferI15NameToObjectMapI6ShaderNSt3__23mapI4PPtrIS2_EN4core12basic_stringIcNS7_20StringStorageDefaultIcEEEENS3_4lessIS6_EENS3_9allocatorINS3_4pairIKS6_SB_EEEEEENS3_8multimapISB_S6_NSC_ISB_EENSE_INSF_IKSB_S6_EEEEEEEEEvRT_PKc17TransferMetaFlags
6340:__ZN14SafeBinaryRead19TransferSTLStyleMapINSt3__23mapI4PPtrI6ShaderEN4core12basic_stringIcNS6_20StringStorageDefaultIcEEEENS1_4lessIS5_EENS1_9allocatorINS1_4pairIKS5_SA_EEEEEEEEvRT_17TransferMetaFlags
6341:__ZN15NameToObjectMapI6ShaderNSt3__23mapI4PPtrIS0_EN4core12basic_stringIcNS5_20StringStorageDefaultIcEEEENS1_4lessIS4_EENS1_9allocatorINS1_4pairIKS4_S9_EEEEEENS1_8multimapIS9_S4_NSA_IS9_EENSC_INSD_IKS9_S4_EEEEEEE7RebuildEv
6342:__ZNSt3__26__treeINS_12__value_typeIN4core12basic_stringIcNS2_20StringStorageDefaultIcEEEE4PPtrI6ShaderEEENS_19__map_value_compareIS6_SA_NS_4lessIS6_EELb1EEENS_9allocatorISA_EEE7destroyEPNS_11__tree_nodeISA_PvEE
6343:__ZNSt3__26__treeINS_12__value_typeIN4core12basic_stringIcNS2_20StringStorageDefaultIcEEEE4PPtrI6ShaderEEENS_19__map_value_compareIS6_SA_NS_4lessIS6_EELb1EEENS_9allocatorISA_EEE15__emplace_multiIJNS_4pairIS6_S9_EEEEENS_15__tree_iteratorISA_PNS_11__tree_nodeISA_PvEEiEEDpOT_
6344:__ZNSt3__26__treeINS_12__value_typeI4PPtrI6ShaderEN4core12basic_stringIcNS5_20StringStorageDefaultIcEEEEEENS_19__map_value_compareIS4_SA_NS_4lessIS4_EELb1EEENS_9allocatorISA_EEE7destroyEPNS_11__tree_nodeISA_PvEE
6345:__ZN15SerializeTraitsINSt3__24pairI4PPtrI6ShaderEN4core12basic_stringIcNS5_20StringStorageDefaultIcEEEEEEE8TransferI14SafeBinaryReadEEvRSA_RT_
6346:__ZNSt3__26__treeINS_12__value_typeI4PPtrI6ShaderEN4core12basic_stringIcNS5_20StringStorageDefaultIcEEEEEENS_19__map_value_compareIS4_SA_NS_4lessIS4_EELb1EEENS_9allocatorISA_EEE25__emplace_unique_key_argsIS4_JRNS_4pairIS4_S9_EEEEENSJ_INS_15__tree_iteratorISA_PNS_11__tree_nodeISA_PvEEiEEbEERKT_DpOT0_
6347:__ZN12ScriptMapper8TransferI24GenerateTypeTreeTransferEEvRT_
6348:__ZN24GenerateTypeTreeTransfer8TransferINSt3__23mapI4PPtrI6ShaderEN4core12basic_stringIcNS6_20StringStorageDefaultIcEEEENS1_4lessIS5_EENS1_9allocatorINS1_4pairIKS5_SA_EEEEEEEEvRT_PKc17TransferMetaFlags
6349:__ZN15SerializeTraitsINSt3__24pairI4PPtrI6ShaderEN4core12basic_stringIcNS5_20StringStorageDefaultIcEEEEEEE8TransferI24GenerateTypeTreeTransferEEvRSA_RT_
6350:__ZN18StreamedBinaryRead19TransferSTLStyleMapINSt3__23mapI4PPtrI6ShaderEN4core12basic_stringIcNS6_20StringStorageDefaultIcEEEENS1_4lessIS5_EENS1_9allocatorINS1_4pairIKS5_SA_EEEEEEEEvRT_17TransferMetaFlags
6351:__ZN8keywords18KeywordSetToStringERK16ShaderKeywordSetRN4core12basic_stringIcNS3_20StringStorageDefaultIcEEEE
6352:__ZN8keywords24KeywordSetToKeywordNamesERK16ShaderKeywordSetRNSt3__26vectorIN4core12basic_stringIcNS5_20StringStorageDefaultIcEEEENS3_9allocatorIS9_EEEE
6353:__ZL26KeywordSetToStringDontSortRKNSt3__26vectorIN4core12basic_stringIcNS1_20StringStorageDefaultIcEEEENS_9allocatorIS5_EEEERS5_
6354:__ZN2UI13RectTransformD2Ev
6355:__ZN2UI13RectTransformD0Ev
6356:__ZN9Transform17MainThreadCleanupEv
6357:__ZN2UI13RectTransform13AwakeFromLoadE17AwakeFromLoadMode
6358:__ZN9Transform16CheckConsistencyEv
6359:__ZN2UI13RectTransform5ResetEv
6360:__ZN2UI13RectTransform10SmartResetEv
6361:__ZNK2UI13RectTransform22GetTypeVirtualInternalEv
6362:__ZN2UI13RectTransform23VirtualRedirectTransferER19StreamedBinaryWrite
6363:__ZN2UI13RectTransform23VirtualRedirectTransferER18StreamedBinaryRead
6364:__ZN2UI13RectTransform23VirtualRedirectTransferER17RemapPPtrTransfer
6365:__ZN2UI13RectTransform23VirtualRedirectTransferER24GenerateTypeTreeTransfer
6366:__ZN2UI13RectTransform23VirtualRedirectTransferER14SafeBinaryRead
6367:__ZN2UI13RectTransform10DeactivateE19DeactivateOperation
6368:__ZN2UI13RectTransform16ResetReplacementEv
6369:__ZN9Transform19BroadcastMessageAnyERK17MessageIdentifierR11MessageData
6370:__ZN2UI13RectTransform8TransferI14SafeBinaryReadEEvRT_
6371:__ZN9Transform8TransferI14SafeBinaryReadEEvRT_
6372:__ZN9Transform25CompleteTransformTransferI14SafeBinaryReadEEvRT_
6373:__ZN14SafeBinaryRead21TransferSTLStyleArrayI13dynamic_arrayI12ImmediatePtrI9TransformELj0EEEEvRT_17TransferMetaFlags
6374:__ZN12ImmediatePtrI9TransformE8TransferI14SafeBinaryReadEEvRT_
6375:__ZN2UI13RectTransform8TransferI24GenerateTypeTreeTransferEEvRT_
6376:__ZN9Transform8TransferI24GenerateTypeTreeTransferEEvRT_
6377:__ZN9Transform25CompleteTransformTransferI24GenerateTypeTreeTransferEEvRT_
6378:__ZN9Transform25CompleteTransformTransferI17RemapPPtrTransferEEvRT_
6379:__ZN2UI13RectTransform8TransferI18StreamedBinaryReadEEvRT_
6380:__ZN9Transform8TransferI18StreamedBinaryReadEEvRT_
6381:__ZN18StreamedBinaryRead21TransferSTLStyleArrayI13dynamic_arrayI12ImmediatePtrI9TransformELj0EEEEvRT_17TransferMetaFlags
6382:__ZN12ImmediatePtrI9TransformE8TransferI18StreamedBinaryReadEEvRT_
6383:__ZN2UI13RectTransform8TransferI19StreamedBinaryWriteEEvRT_
6384:__ZN9Transform28ApplyRuntimeToSerializedDataEv
6385:__ZN9Transform8TransferI19StreamedBinaryWriteEEvRT_
6386:__ZN2UI13RectTransform12SetSizeDeltaERK8Vector2f
6387:__ZN2UI13RectTransform8SetPivotERK8Vector2f
6388:__ZN2UI13RectTransform38UpdateAnchorPositionIfTransformChangedEb
6389:__ZN2UI13RectTransform25UpdatePosAndRectRecursiveEbPK5RectTIfE
6390:__ZN2UI13RectTransform16UpdatePosAndRectEb
6391:__ZNK9Transform16GetLocalPositionEv
6392:__ZNK2UI13RectTransform23CalculateLocalPosition2Ev
6393:__ZN9Transform39SetLocalPositionIgnoringSpecificSystemsERKN4math7_float3Ey
6394:__ZN9Transform12QueueChangesEv
6395:__ZNK2UI13RectTransform26CalculateRectInParentSpaceEv
6396:__ZN2UI13RectTransform19UpdateRectTransformEPS0_b
6397:__ZN2UI13RectTransform19SetAnchoredPositionERK8Vector2f
6398:__ZN9Transform5ResetEv
6399:__ZN9Transform13AwakeFromLoadE17AwakeFromLoadMode
6400:__ZNK9Transform22GetTypeVirtualInternalEv
6401:__ZN9Transform23VirtualRedirectTransferER19StreamedBinaryWrite
6402:__ZN9Transform23VirtualRedirectTransferER18StreamedBinaryRead
6403:__ZN9Transform23VirtualRedirectTransferER24GenerateTypeTreeTransfer
6404:__ZN9Transform23VirtualRedirectTransferER14SafeBinaryRead
6405:__Z19UnsignedIntToStringj
6406:__Z30CreateBoxedObjectFromPrimitivei
6407:__Z11StringToIntRKN4core16basic_string_refIcEE
6408:__ZN16DiagnosticSwitchIN4core12basic_stringIcNS0_20StringStorageDefaultIcEEEEE18SetValueFromStringEPKc
6409:__ZN16DiagnosticSwitchIN4core12basic_stringIcNS0_20StringStorageDefaultIcEEEEE20ApplyPersistentValueEv
6410:__ZN16DiagnosticSwitchIN4core12basic_stringIcNS0_20StringStorageDefaultIcEEEEE20CollectScriptingInfoERN20DiagnosticSwitchBase13ScriptingInfoE
6411:__ZN16DiagnosticSwitchIN4core12basic_stringIcNS0_20StringStorageDefaultIcEEEEE24UpdateFromScriptingValueE18ScriptingObjectPtrb
6412:__Z20scripting_string_newPKcj
6413:__ZN11PlayerPrefs9SetStringERKN4core12basic_stringIcNS0_20StringStorageDefaultIcEEEES6_
6414:__ZL12SetPrefValueRKN4core12basic_stringIcNS_20StringStorageDefaultIcEEEERK9PrefValue
6415:__ZN11PlayerPrefs4SyncEv
6416:__ZN4File5WriteEPKvj
6417:__ZL11EncodeValueRK9PrefValue
6418:__ZN4FileD2Ev
6419:__ZN12FileAccessor5WriteEyPKvPy
6420:__ZN4FileC2Ev
6421:__ZN11PlayerPrefs9GetStringERKN4core12basic_stringIcNS0_20StringStorageDefaultIcEEEES6_
6422:__ZNK15Lz4Decompressor16DecompressMemoryEPKvPjPvS2_
6423:__ZNK15Lz4Decompressor16DecompressStreamEPvPKvPjS0_S3_b
6424:_UNITY_LZ4_decompress_safe
6425:__ZN22LocalFileSystemHandler18IsAbsoluteFilePathEPKc
6426:__ZN22LocalFileSystemHandler19InitializeFileEntryER13FileEntryData
6427:__ZN22LocalFileSystemHandler4NameEv
6428:__ZNK17FileSystemHandler10IsReadOnlyERK13FileEntryData
6429:__ZN17FileSystemHandler11MoveToTrashER13FileEntryData
6430:__ZN17FileSystemHandler11SetReadOnlyER13FileEntryDatab
6431:__ZNK17FileSystemHandler12GetAssetGUIDERK13FileEntryData
6432:__ZN22LocalFileSystemHandler9MakeLocalER13FileEntryDatab
6433:__ZNK22LocalFileSystemHandler7ToLocalERK13FileEntryDataRN4core12basic_stringIcNS3_20StringStorageDefaultIcEEEERyS9_
6434:__ZNK17FileSystemHandler31CreateFileWithContentAtomicallyERK13FileEntryDataPKvy
6435:__ZNK22LocalFileSystemHandler13ToLogicalPathERKN4core12basic_stringIcNS0_20StringStorageDefaultIcEEEE
6436:__ZNK22LocalFileSystemHandler17GetExecutablePathEv
6437:__ZN18ScriptingArguments8AddArrayE17ScriptingArrayPtr
6438:__ZN18ScriptingArguments6AddIntEi
6439:__ZN18ScriptingArguments8AddInt64Ex
6440:__ZN12HandlerChainD2Ev
6441:__ZN12HandlerChainD0Ev
6442:__ZN12HandlerChain4OpenER13FileEntryData14FilePermission16FileAutoBehavior
6443:__ZN12HandlerChain4ReadER13FileEntryDatayyPvPy
6444:__ZN12HandlerChain4ReadER13FileEntryDatayPvPy
6445:__ZN12HandlerChain4SeekER13FileEntryDatax10FileOrigin
6446:__ZNK12HandlerChain8PositionERK13FileEntryData
6447:__ZN12HandlerChain9SetLengthER13FileEntryDatay
6448:__ZNK12HandlerChain4SizeERK13FileEntryData
6449:__ZNK12HandlerChain9CanHandleEPKc
6450:__ZN12HandlerChain10ToAbsoluteEPKc
6451:__ZN12HandlerChain18IsAbsoluteFilePathEPKc
6452:__ZN12HandlerChain4NameEv
6453:__ZNK12HandlerChain6ParentERK13FileEntryDataRN4core12basic_stringIcNS3_20StringStorageDefaultIcEEEE
6454:__ZNK12HandlerChain8FilenameERK13FileEntryData
6455:__ZNK12HandlerChain5IsDirERK13FileEntryData
6456:__ZNK12HandlerChain8IsHiddenERK13FileEntryData
6457:__ZNK12HandlerChain9IsSymLinkERK13FileEntryData
6458:__ZNK12HandlerChain12LastModifiedERK13FileEntryData
6459:__ZN12HandlerChain8IsLockedERK13FileEntryData
6460:__ZN12HandlerChain11HasFastHashERK13FileEntryDataR7Hash128
6461:__ZN12HandlerChain8SetFlagsER13FileEntryDatajj
6462:__ZN12HandlerChain12CreateAsFileER13FileEntryData
6463:__ZN12HandlerChain11CreateAsDirER13FileEntryData
6464:__ZN12HandlerChain6DeleteER13FileEntryDatab
6465:__ZN12HandlerChain11MoveToTrashER13FileEntryData
6466:__ZNK12HandlerChain6TargetERK13FileEntryDataR15FileSystemEntry
6467:__ZN12HandlerChain4LockER13FileEntryData12FileLockMode
6468:__ZN12HandlerChain4CopyER13FileEntryDataS1_
6469:__ZN12HandlerChain10AtomicMoveER13FileEntryDataS1_
6470:__ZNK12HandlerChain12GetAssetGUIDERK13FileEntryData
6471:__ZN12HandlerChain9MakeLocalER13FileEntryDatab
6472:__ZNK12HandlerChain7ToLocalERK13FileEntryDataRN4core12basic_stringIcNS3_20StringStorageDefaultIcEEEERyS9_
6473:__ZNK12HandlerChain9EnumerateEPKcP19dynamic_block_arrayI13FileEntryInfoLj32EEbPPv19FileEnumerationFlag
6474:__ZNK12HandlerChain6ExistsERK13FileEntryData
6475:__ZN20LocalFileSystemPosixD2Ev
6476:__ZN20LocalFileSystemPosixD0Ev
6477:__ZN20LocalFileSystemPosix4OpenER13FileEntryData14FilePermission16FileAutoBehavior
6478:__ZN20LocalFileSystemPosix4ReadER13FileEntryDatayyPvPy
6479:__ZN20LocalFileSystemPosix4ReadER13FileEntryDatayPvPy
6480:__ZN20LocalFileSystemPosix5WriteER13FileEntryDatayyPvPy
6481:__ZN20LocalFileSystemPosix5WriteER13FileEntryDatayPvPy
6482:__ZN20LocalFileSystemPosix5CloseER13FileEntryData
6483:__ZN20LocalFileSystemPosix4SeekER13FileEntryDatax10FileOrigin
6484:__ZNK20LocalFileSystemPosix8PositionERK13FileEntryData
6485:__ZN20LocalFileSystemPosix9SetLengthER13FileEntryDatay
6486:__ZNK20LocalFileSystemPosix4SizeERK13FileEntryData
6487:__ZN20LocalFileSystemPosix10ToAbsoluteEPKc
6488:__ZNK20LocalFileSystemPosix6ParentERK13FileEntryDataRN4core12basic_stringIcNS3_20StringStorageDefaultIcEEEE
6489:__ZNK20LocalFileSystemPosix8FilenameERK13FileEntryData
6490:__ZNK20LocalFileSystemPosix5IsDirERK13FileEntryData
6491:__ZNK20LocalFileSystemPosix9IsSymLinkERK13FileEntryData
6492:__ZNK20LocalFileSystemPosix10IsReadOnlyERK13FileEntryData
6493:__ZNK20LocalFileSystemPosix12LastModifiedERK13FileEntryData
6494:__ZN20LocalFileSystemPosix8IsLockedERK13FileEntryData
6495:__ZN20LocalFileSystemPosix8SetFlagsER13FileEntryDatajj
6496:__ZN20LocalFileSystemPosix12CreateAsFileER13FileEntryData
6497:__ZN20LocalFileSystemPosix11CreateAsDirER13FileEntryData
6498:__ZN20LocalFileSystemPosix6DeleteER13FileEntryDatab
6499:__ZNK20LocalFileSystemPosix6TargetERK13FileEntryDataR15FileSystemEntry
6500:__ZN20LocalFileSystemPosix4LockER13FileEntryData12FileLockMode
6501:__ZN20LocalFileSystemPosix11SetReadOnlyER13FileEntryDatab
6502:__ZN20LocalFileSystemPosix4CopyER13FileEntryDataS1_
6503:__ZN20LocalFileSystemPosix10AtomicMoveER13FileEntryDataS1_
6504:__ZNK20LocalFileSystemPosix9EnumerateEPKcP19dynamic_block_arrayI13FileEntryInfoLj32EEbPPv19FileEnumerationFlag
6505:__ZN20LocalFileSystemPosix5TouchER13FileEntryData
6506:__ZNK20LocalFileSystemPosix6ExistsERK13FileEntryData
6507:__ZNK20LocalFileSystemPosix18GetApplicationPathEv
6508:__ZNK20LocalFileSystemPosix20GetApplicationFolderEv
6509:__ZNK20LocalFileSystemPosix25GetApplicationManagedPathEv
6510:__ZNK20LocalFileSystemPosix26GetApplicationContentsPathEv
6511:__ZNK20LocalFileSystemPosix21GetUserAppCacheFolderEv
6512:__ZNK20LocalFileSystemPosix20GetUserAppDataFolderEv
6513:__ZNK20LocalFileSystemPosix19GetUserConfigFolderEv
6514:__ZNK20LocalFileSystemPosix21GetAvailableDiskSpaceEPKcRy
6515:__Z18IsDirectoryCreatedRKN4core12basic_stringIcNS_20StringStorageDefaultIcEEEE
6516:__ZNK15FileSystemEntry12FolderExistsEv
6517:__Z15CreateDirectoryRKN4core12basic_stringIcNS_20StringStorageDefaultIcEEEE
6518:__ZNK10FileSystem16CurrentDirectoryEv
6519:__Z27DeleteLastPathNameComponentRKN4core12basic_stringIcNS_20StringStorageDefaultIcEEEE
6520:__ZL31DeleteLastPathNameComponentImplRKN4core12basic_stringIcNS_20StringStorageDefaultIcEEEEPKc
6521:__Z8EndsWithPKcjS0_j
6522:__Z23EndsWithCaseInsensitivePKcjS0_j
6523:__ZN19dynamic_block_arrayI13FileEntryInfoLj32EE4growEj
6524:__ZN12FileAccessor4OpenEPKc14FilePermission16FileAutoBehavior
6525:__ZNK12FileAccessor4SizeEv
6526:__Z23GetFolderContentsAtPathRKN4core12basic_stringIcNS_20StringStorageDefaultIcEEEERNSt3__23setIS3_NS6_4lessIS3_EENS6_9allocatorIS3_EEEE22FolderContentsPathModeS5_
6527:__Z22IsFileOrDirectoryInUseRKN4core12basic_stringIcNS_20StringStorageDefaultIcEEEE
6528:__ZNSt3__26__treeIN4core12basic_stringIcNS1_20StringStorageDefaultIcEEEENS_4lessIS5_EENS_9allocatorIS5_EEE7destroyEPNS_11__tree_nodeIS5_PvEE
6529:__ZN13FileEntryDataC2ERKS_
6530:__Z23GetFolderContentsAtPathRKN4core12basic_stringIcNS_20StringStorageDefaultIcEEEE19FileEnumerationFlagRNSt3__23setIS3_NS7_4lessIS3_EENS7_9allocatorIS3_EEEE22FolderContentsPathModeS5_
6531:__ZNK10FileSystem9EnumerateEPKcP19dynamic_block_arrayI13FileEntryInfoLj32EEb19FileEnumerationFlag
6532:__ZL33FileEntryInfoListToFolderContentsRKN4core12basic_stringIcNS_20StringStorageDefaultIcEEEERK19dynamic_block_arrayI13FileEntryInfoLj32EERNSt3__23setIS3_NSB_4lessIS3_EENSB_9allocatorIS3_EEEE
6533:__ZL41FileEntryInfoListToFolderContentsAbsoluteRK19dynamic_block_arrayI13FileEntryInfoLj32EERNSt3__23setIN4core12basic_stringIcNS6_20StringStorageDefaultIcEEEENS4_4lessISA_EENS4_9allocatorISA_EEEE
6534:__ZNSt3__26__treeIN4core12basic_stringIcNS1_20StringStorageDefaultIcEEEENS_4lessIS5_EENS_9allocatorIS5_EEE25__emplace_unique_key_argsIS5_JS5_EEENS_4pairINS_15__tree_iteratorIS5_PNS_11__tree_nodeIS5_PvEEiEEbEERKT_DpOT0_
6535:__Z14SkipPathPrefixPKcS0_jb
6536:__Z7StrNCmpPKcS0_j
6537:__ZN17ArchiveFileSystemD2Ev
6538:__ZN17ArchiveFileSystemD0Ev
6539:__ZN17ArchiveFileSystem4OpenER13FileEntryData14FilePermission16FileAutoBehavior
6540:__ZN17ArchiveFileSystem4ReadER13FileEntryDatayyPvPy
6541:__ZN17ArchiveFileSystem4ReadER13FileEntryDatayPvPy
6542:__ZN17ArchiveFileSystem5WriteER13FileEntryDatayyPvPy
6543:__ZN17ArchiveFileSystem5WriteER13FileEntryDatayPvPy
6544:__ZN17ArchiveFileSystem5CloseER13FileEntryData
6545:__ZN17ArchiveFileSystem4SeekER13FileEntryDatax10FileOrigin
6546:__ZNK17ArchiveFileSystem8PositionERK13FileEntryData
6547:__ZNK17ArchiveFileSystem4SizeERK13FileEntryData
6548:__ZNK17ArchiveFileSystem9CanHandleEPKc
6549:__ZN17ArchiveFileSystem10ToAbsoluteEPKc
6550:__ZN17ArchiveFileSystem4NameEv
6551:__ZNK17ArchiveFileSystem6ParentERK13FileEntryDataRN4core12basic_stringIcNS3_20StringStorageDefaultIcEEEE
6552:__ZNK17ArchiveFileSystem8FilenameERK13FileEntryData
6553:__ZNK17ArchiveFileSystem5IsDirERK13FileEntryData
6554:__ZNK17ArchiveFileSystem12LastModifiedERK13FileEntryData
6555:__ZNK17ArchiveFileSystem7ToLocalERK13FileEntryDataRN4core12basic_stringIcNS3_20StringStorageDefaultIcEEEERyS9_
6556:__ZNK17ArchiveFileSystem9EnumerateEPKcP19dynamic_block_arrayI13FileEntryInfoLj32EEbPPv19FileEnumerationFlag
6557:__ZNK17ArchiveFileSystem6ExistsERK13FileEntryData
6558:__ZNK17ArchiveFileSystem14FindItemByPathEPKc
6559:__ZN19dynamic_block_arrayI13FileEntryInfoLj32EE26emplace_back_uninitializedEv
6560:__ZNK20ArchiveStorageReader7ToLocalERKN20ArchiveStorageHeader4NodeERN4core12basic_stringIcNS4_20StringStorageDefaultIcEEEERySA_
6561:__ZN20ArchiveStorageReader15MakeStorageUsedEv
6562:__ZN15ArchiveReadFileD2Ev
6563:__ZN15ArchiveReadFileD0Ev
6564:__ZNK15ArchiveReadFile6IsOpenEv
6565:__ZN15ArchiveReadFile5CloseEv
6566:__ZN15ArchiveReadFile4ReadEyyPvPy
6567:__ZN15ArchiveReadFile4ReadEyPvPy
6568:__ZN15ArchiveReadFile5WriteEyyPKvPy
6569:__ZN15ArchiveReadFile5WriteEyPKvPy
6570:__ZN15ArchiveReadFile4SeekEx10FileOrigin
6571:__ZNK15ArchiveReadFile8PositionEv
6572:__ZN15ArchiveReadFile9SetLengthEy
6573:__ZNK15ArchiveReadFile4SizeEv
6574:__ZN20ArchiveStorageReader4ReadEyyPvPy
6575:__ZN20ArchiveStorageReader17ReadCompleteBlockEjPvPy
6576:__ZN20ArchiveStorageReader9ReadBlockEjyyPvPy
6577:__ZN20ArchiveStorageReader31TryToReadDirectoryFromBlockDataEyPKvj
6578:__ZN20ArchiveStorageReader28TryReadDirectoryInfoFromFileEP5IFile
6579:__ZN25MultiBlocksMemoryFileDataC2E10MemLabelIdj
6580:__ZN25MultiBlocksMemoryFileDataD2Ev
6581:__ZN25MultiBlocksMemoryFileDataD0Ev
6582:__ZN25MultiBlocksMemoryFileData4LockEPPv
6583:__ZN25MultiBlocksMemoryFileData6UnlockEPv
6584:__ZNK25MultiBlocksMemoryFileData4ReadEyyPv
6585:__ZN25MultiBlocksMemoryFileData5WriteEyyPKv
6586:__ZN25MultiBlocksMemoryFileData9SetLengthEy
6587:__ZNK25MultiBlocksMemoryFileData4SizeEv
6588:__ZNK25MultiBlocksMemoryFileData5CloneEv
6589:__ZN25MultiBlocksMemoryFileData17AdjustBlocksCountEj
6590:__ZN12FileAccessor4SeekEx10FileOrigin
6591:__ZN20ArchiveStorageHeader17ReadDirectoryInfoER12FileAccessorRKNS_6HeaderERNS_13DirectoryInfoE
6592:__Z37ReadDirectoryInfo_UnityWebAndUnityRawR12FileAccessorRKN20ArchiveStorageHeader6HeaderERNS1_13DirectoryInfoE
6593:__ZNSt3__26vectorIN20ArchiveStorageHeader4NodeE13stl_allocatorIS2_L18MemLabelIdentifier55ELi16EEE8__appendEj
6594:__ZN12_GLOBAL__N_110ReadStringIN4core12basic_stringIcNS1_20StringStorageDefaultIcEEEEEEbR12FileAccessorPT_
6595:__ZNK12FileAccessor8PositionEv
6596:__Z20GetPathNameExtensionRKN4core12basic_stringIcNS_20StringStorageDefaultIcEEEE
6597:__ZN12IFileAdapter4OpenER13FileEntryData14FilePermission16FileAutoBehavior
6598:__ZN12IFileAdapter4ReadER13FileEntryDatayyPvPy
6599:__ZN12IFileAdapter4ReadER13FileEntryDatayPvPy
6600:__ZN12IFileAdapter5WriteER13FileEntryDatayPvPy
6601:__ZN12IFileAdapter5CloseER13FileEntryData
6602:__ZN12IFileAdapter4SeekER13FileEntryDatax10FileOrigin
6603:__ZNK12IFileAdapter8PositionERK13FileEntryData
6604:__ZN12IFileAdapter9SetLengthER13FileEntryDatay
6605:__ZNK12IFileAdapter4SizeERK13FileEntryData
6606:__ZN10MemoryFileC2E10MemLabelIdP14MemoryFileData14FilePermission
6607:__ZN10MemoryFileD2Ev
6608:__ZN10MemoryFileD0Ev
6609:__ZN10MemoryFile5CloseEv
6610:__ZN10MemoryFile4ReadEyyPvPy
6611:__ZN10MemoryFile5WriteEyyPKvPy
6612:__ZN10MemoryFile5WriteEyPKvPy
6613:__ZN10MemoryFile4SeekEx10FileOrigin
6614:__ZN10MemoryFile9SetLengthEy
6615:__ZNK10MemoryFile4SizeEv
6616:__ZN25SingleBlockMemoryFileDataC2E10MemLabelIdPvjb
6617:__ZN25SingleBlockMemoryFileDataD2Ev
6618:__ZN25SingleBlockMemoryFileDataD0Ev
6619:__ZN25SingleBlockMemoryFileData4LockEPPv
6620:__ZNK25SingleBlockMemoryFileData4ReadEyyPv
6621:__ZN25SingleBlockMemoryFileData5WriteEyyPKv
6622:__ZN25SingleBlockMemoryFileData9SetLengthEy
6623:__ZNK25SingleBlockMemoryFileData4SizeEv
6624:__ZNK25SingleBlockMemoryFileData5CloneEv
6625:__ZN20ArchiveStorageReader15ReadFromStorageEyyPvPy
6626:__ZN20ArchiveStorageReader18AcquireCachedBlockEjj
6627:__ZN20ArchiveStorageReader28AcquireAndPrefillUnusedBlockEjPNS_11CacheResultE
6628:__ZN20ArchiveStorageReader21FillStreamCachedBlockEPNS_11CachedBlockEy
6629:__Z18CreateDecompressor15CompressionType10MemLabelId
6630:__ZN20ArchiveStorageReader17ReinitCachedBlockEPNS_11CachedBlockEj
6631:__ZN20ArchiveStorageReader20FillChunkCachedBlockEPNS_11CachedBlockE
6632:__ZN20ArchiveStorageReader17MakeStorageUnusedEv
6633:__ZNSt3__26__treeINS_12__value_typeIN4core12basic_stringIcNS2_20StringStorageDefaultIcEEEEN17ArchiveFileSystem11ArchiveItemEEENS_19__map_value_compareIS6_S9_NS_4lessIS6_EELb1EEE13stl_allocatorIS9_L18MemLabelIdentifier55ELi16EEE7destroyEPNS_11__tree_nodeIS9_PvEE
6634:__ZNSt3__26__treeINS_12__value_typeIPKvNS_4pairIjP20ArchiveStorageReaderEEEENS_19__map_value_compareIS3_S8_NS_4lessIS3_EELb1EEENS_9allocatorIS8_EEE7destroyEPNS_11__tree_nodeIS8_PvEE
6635:__ZN20ArchiveStorageReaderD2Ev
6636:__ZN20ArchiveStorageReaderD0Ev
6637:__ZN16MemoryFileSystemD2Ev
6638:__ZN16MemoryFileSystemD0Ev
6639:__ZN16MemoryFileSystem4OpenER13FileEntryData14FilePermission16FileAutoBehavior
6640:__ZN16MemoryFileSystem5CloseER13FileEntryData
6641:__ZN16MemoryFileSystem9SetLengthER13FileEntryDatay
6642:__ZNK16MemoryFileSystem4SizeERK13FileEntryData
6643:__ZNK16MemoryFileSystem9CanHandleEPKc
6644:__ZN16MemoryFileSystem10ToAbsoluteEPKc
6645:__ZN16MemoryFileSystem18IsAbsoluteFilePathEPKc
6646:__ZN16MemoryFileSystem4NameEv
6647:__ZNK16MemoryFileSystem6ParentERK13FileEntryDataRN4core12basic_stringIcNS3_20StringStorageDefaultIcEEEE
6648:__ZNK16MemoryFileSystem8FilenameERK13FileEntryData
6649:__ZNK16MemoryFileSystem5IsDirERK13FileEntryData
6650:__ZNK16MemoryFileSystem8IsHiddenERK13FileEntryData
6651:__ZNK16MemoryFileSystem12LastModifiedERK13FileEntryData
6652:__ZN16MemoryFileSystem8IsLockedERK13FileEntryData
6653:__ZN16MemoryFileSystem8SetFlagsER13FileEntryDatajj
6654:__ZN16MemoryFileSystem12CreateAsFileER13FileEntryData
6655:__ZN16MemoryFileSystem11CreateAsDirER13FileEntryData
6656:__ZN16MemoryFileSystem6DeleteER13FileEntryDatab
6657:__ZN16MemoryFileSystem4CopyER13FileEntryDataS1_
6658:__ZN16MemoryFileSystem10AtomicMoveER13FileEntryDataS1_
6659:__ZNK16MemoryFileSystem9EnumerateEPKcP19dynamic_block_arrayI13FileEntryInfoLj32EEbPPv19FileEnumerationFlag
6660:__ZNK16MemoryFileSystem6ExistsERK13FileEntryData
6661:__ZNK16MemoryFileSystem8FindNodeEPKc
6662:__ZNK16MemoryFileSystem30GetRelativeCaseInsensitivePathEPKcRN4core12basic_stringIcNS2_20StringStorageDefaultIcEEEE
6663:__Z14StartsWithPathIN4core12basic_stringIcNS0_20StringStorageDefaultIcEEEES4_EbRKT_RKT0_
6664:__ZN16MemoryFileSystem8FindNodeEPKc
6665:__Z22ReplaceDirectoryInPathRKN4core12basic_stringIcNS_20StringStorageDefaultIcEEEES5_S5_
6666:__ZN16MemoryFileSystem16FindNodeOrCreateEPKcb
6667:__ZNSt3__26__treeINS_12__value_typeIN4core12basic_stringIcNS2_20StringStorageDefaultIcEEEEPN16MemoryFileSystem4NodeEEENS_19__map_value_compareIS6_SA_NS_4lessIS6_EELb1EEE13stl_allocatorISA_L18MemLabelIdentifier55ELi16EEE25__emplace_unique_key_argsIS6_JNS_4pairIKS6_S9_EEEEENSK_INS_15__tree_iteratorISA_PNS_11__tree_nodeISA_PvEEiEEbEERKT_DpOT0_
6668:__Z19StandardizePathNameRKN4core12basic_stringIcNS_20StringStorageDefaultIcEEEE
6669:__ZNSt3__26__treeINS_12__value_typeIN4core12basic_stringIcNS2_20StringStorageDefaultIcEEEEPN16MemoryFileSystem4NodeEEENS_19__map_value_compareIS6_SA_NS_4lessIS6_EELb1EEE13stl_allocatorISA_L18MemLabelIdentifier55ELi16EEE7destroyEPNS_11__tree_nodeISA_PvEE
6670:__ZNK10GpuProgram11IsSupportedEv
6671:__ZN22VertexDeclarationCacheD2Ev
6672:__ZNSt3__26__treeINS_12__value_typeI18VertexChannelsInfoP17VertexDeclarationEENS_19__map_value_compareIS2_S5_NS_4lessIS2_EELb1EEE13stl_allocatorIS5_L18MemLabelIdentifier15ELi16EEE7destroyEPNS_11__tree_nodeIS5_PvEE
6673:__ZN9GfxDeviceD2Ev
6674:__ZN9GfxDevice15InvalidateStateEv
6675:__ZN9GfxDevice18BeforePluginRenderEv
6676:__ZN9GfxDevice13SetActiveTierE12GraphicsTier
6677:__ZN9GfxDevice20SetMaxBufferedFramesEi
6678:__ZN9GfxDevice25SetInvertProjectionMatrixEb
6679:__ZN9GfxDevice29GetMinimumNodesPerGraphicsJobEv
6680:__ZN9GfxDevice34SetStencilRefWhenStencilWasSkippedEi
6681:__ZN9GfxDevice21SetWorldMatrixAndTypeERK10Matrix4x4f13TransformType
6682:__ZN9GfxDevice14SetWorldMatrixERK10Matrix4x4f
6683:__ZN9GfxDevice13SetViewMatrixERK10Matrix4x4f
6684:__ZN9GfxDevice19SetProjectionMatrixERK10Matrix4x4f
6685:__ZN9GfxDevice26UpdateViewProjectionMatrixEv
6686:__ZN9GfxDevice32UpdateStereoViewProjectionMatrixE21MonoOrStereoscopicEye
6687:__ZN9GfxDevice15SetStereoMatrixE21MonoOrStereoscopicEye24BuiltinShaderMatrixParamRK10Matrix4x4f
6688:__ZN9GfxDevice15GetStereoMatrixE21MonoOrStereoscopicEye24BuiltinShaderMatrixParamR10Matrix4x4f
6689:__ZN9GfxDevice17SetStereoViewportE15StereoscopicEyeRK5RectTIiE
6690:__ZN9GfxDevice21SetStereoScissorRectsEPK5RectTIiE
6691:__ZN9GfxDevice26SetSinglePassStereoEyeMaskE13TargetEyeMask
6692:__ZN9GfxDevice19SaveStereoConstantsEv
6693:__ZN9GfxDevice22RestoreStereoConstantsEv
6694:__ZNK9GfxDevice18GetWorldViewMatrixEv
6695:__ZNK9GfxDevice14GetWorldMatrixEv
6696:__ZNK9GfxDevice13GetViewMatrixEv
6697:__ZNK9GfxDevice19GetProjectionMatrixEv
6698:__ZNK9GfxDevice25GetDeviceProjectionMatrixEv
6699:__ZNK9GfxDevice31CalculateDeviceProjectionMatrixER10Matrix4x4fbb
6700:__ZNK9GfxDevice27GetPlatformAdjustedViewportEv
6701:__ZN9GfxDevice25SetShaderPropertiesSharedERK19ShaderPropertySheet
6702:__ZN9GfxDevice16CreateGpuProgramE20ShaderGpuProgramTypeRK13dynamic_arrayIhLj0EER22CreateGpuProgramOutput
6703:__ZN9GfxDevice18MapConstantBuffersEPPvPK5CbKeyPjj
6704:__ZN9GfxDevice20UnmapConstantBuffersER8JobFencePPvPK5CbKeyPjj
6705:__ZN9GfxDevice22GetDefaultVertexBufferE26GfxDefaultVertexBufferTypej
6706:__ZN9GfxDevice11DrawBuffersEP9GfxBufferiPK18VertexStreamSourceiPK16DrawBuffersRangeiP17VertexDeclaration
6707:__ZN9GfxDevice28ScheduleGeometryJobsInternalEPFvP15GeometryJobDataEPK22GeometryJobInstructionj
6708:__ZN9GfxDevice33ScheduleComputeBufferJobsInternalEPFvP20ComputeBufferJobDataEPFvRK8JobFenceEPK27ComputeBufferJobInstructionj
6709:__ZN9GfxDevice38ScheduleDynamicVBOGeometryJobsInternalEPFvP25DynamicVBOGeometryJobDatajEPFvS1_EPFvRK8JobFenceES1_j16GfxPrimitiveTypeP21DynamicVBOChunkHandle
6710:__ZN9GfxDevice19PutGeometryJobFenceE13UniqueSmallID
6711:__ZN9GfxDevice19EndGeometryJobFrameEv
6712:__ZN9GfxDevice16EndAsyncJobFrameEv
6713:__ZN9GfxDevice20BeginDynamicBatchingE17ShaderChannelMaskS0_jP17VertexDeclarationjj16GfxPrimitiveType
6714:__ZN9GfxDevice16DynamicBatchMeshERK10Matrix4x4fPKhjjPKtj26GfxTransformVerticesParams25GfxTransformVerticesFlagsj
6715:__ZN9GfxDevice18EndDynamicBatchingE13TransformType
6716:__ZN9GfxDevice14AddSetPassStatEv
6717:__ZN9GfxDevice21ReleaseSharedMeshDataEP14SharedMeshData
6718:__ZN9GfxDevice24ReleaseSharedTextureDataEP17SharedTextureData
6719:__ZN9GfxDevice25ReleaseAsyncCommandHeaderEPN21GfxDeviceAsyncCommand3ArgE
6720:__ZN9GfxDevice23CreateGPUSkinPoseBufferEv
6721:__ZN9GfxDevice9SkinOnGPUEPK18VertexStreamSourceiP17GPUSkinPoseBufferP9GfxBufferiiP17VertexDeclaration17ShaderChannelMaskb
6722:__ZN9GfxDevice15ComputeSkinningEPK18VertexStreamSourceiP9GfxBufferS4_ii17ShaderChannelMask
6723:__ZN9GfxDevice27UpdateComputeSkinPoseBufferEP9GfxBufferP20MatrixArrayJobOutput
6724:__ZN9GfxDevice24CreateRenderColorSurfaceE9TextureIDiiii16TextureDimension19RenderTextureFormat18SurfaceCreateFlags
6725:__ZN9GfxDevice24CreateRenderDepthSurfaceE9TextureIDiiii16TextureDimension17DepthBufferFormat18SurfaceCreateFlags
6726:__ZN9GfxDevice20DestroyRenderSurfaceER12ObjectHandleI17RenderSurface_TagP17RenderSurfaceBaseE
6727:__ZNK9GfxDevice22GetActiveRenderTargetsERA8_12ObjectHandleI17RenderSurface_TagP17RenderSurfaceBaseERS4_
6728:__ZNK9GfxDevice27GetActiveRenderSurfaceWidthEv
6729:__ZNK9GfxDevice28GetActiveRenderSurfaceHeightEv
6730:__ZNK9GfxDevice23IsRenderingToBackBufferEv
6731:__ZN9GfxDevice25GetBackBufferColorSurfaceEv
6732:__ZN9GfxDevice25GetBackBufferDepthSurfaceEv
6733:__ZN9GfxDevice30SetBackBufferColorDepthSurfaceEP17RenderSurfaceBaseS1_
6734:__ZN9GfxDevice18AllocRenderSurfaceEb
6735:__ZN9GfxDevice20DeallocRenderSurfaceEP17RenderSurfaceBase
6736:__ZN9GfxDevice46SwitchColorRenderSurfaceIntoFastMemoryPlatformEP17RenderSurfaceBase12SurfaceUsage15FastMemoryFlagsbf
6737:__ZN9GfxDevice46SwitchDepthRenderSurfaceIntoFastMemoryPlatformEP17RenderSurfaceBaseb12SurfaceUsage15FastMemoryFlagsbf
6738:__ZN9GfxDevice19ResizeRenderSurfaceEP17RenderSurfaceBaseff
6739:__ZN9GfxDevice21CopyRenderSurfaceDescEP17RenderSurfaceBasePKS0_
6740:__ZN9GfxDevice25IsRenderTargetConfigValidEjj19RenderTextureFormat17DepthBufferFormat
6741:__ZN9GfxDevice15CreateTextureIDEv
6742:__ZN9GfxDevice13FreeTextureIDE9TextureID
6743:__ZN9GfxDevice21RegisterNativeTextureE9TextureIDi16TextureDimension
6744:__ZN9GfxDevice23UnregisterNativeTextureE9TextureID
6745:__ZN9GfxDevice22UploadTextureCubeArrayE9TextureIDPKhjii14GraphicsFormati18TextureUploadFlags
6746:__ZN9GfxDevice11CopyTextureE9TextureIDiiiiiiiS0_iiiii
6747:__ZN9GfxDevice19CreateSparseTextureE9TextureIDii14GraphicsFormati
6748:__ZN9GfxDevice12PresentFrameE17ShaderChannelMask
6749:__ZN9GfxDevice21SwapDynamicVBOBuffersEj
6750:__ZN9GfxDevice15ImmediateVertexEfff
6751:__ZN9GfxDevice15ImmediateNormalEfff
6752:__ZN9GfxDevice14ImmediateColorEffff
6753:__ZN9GfxDevice20ImmediateTexCoordAllEfff
6754:__ZN9GfxDevice17ImmediateTexCoordEifff
6755:__ZN9GfxDevice14ImmediateBeginE16GfxPrimitiveType16VertexInputMasks
6756:__ZN9GfxDevice12ImmediateEndEv
6757:__ZN9GfxDevice15ResetFrameStatsEv
6758:__ZN9GfxDevice15BeginFrameStatsEv
6759:__ZN9GfxDevice13EndFrameStatsEv
6760:__ZN9GfxDevice13SaveDrawStatsEv
6761:__ZN9GfxDevice16RestoreDrawStatsEv
6762:__ZN9GfxDevice18SetGlobalDepthBiasEff
6763:__ZNK9GfxDevice18GetGlobalDepthBiasERfS0_
6764:__ZNK9GfxDevice18GetDefaultRTFormatEv
6765:__ZNK9GfxDevice21GetDefaultHDRRTFormatEv
6766:__ZN9GfxDevice33InsertCustomMarkerCallbackAndDataEPFviPvEiS0_j
6767:__ZN9GfxDevice31InsertCustomBlitCallbackAndDataEPFviPvER33UnityRenderingExtCustomBlitParams
6768:__ZN9GfxDevice18InsertCustomMarkerEi
6769:__ZN9GfxDevice26InsertCustomMarkerCallbackEPFviEi
6770:__ZN9GfxDevice21CreateComputeBufferIDEv
6771:__ZN9GfxDevice23CreateAsyncReadbackDataEv
6772:__ZN9GfxDevice23DeleteAsyncReadbackDataEP20GfxAsyncReadbackData
6773:__ZN9GfxDevice24RequestAsyncReadbackDataEP20GfxAsyncReadbackDataRK27GfxAsyncReadbackRequestDesc
6774:__ZN9GfxDevice30ResolveComputeProgramResourcesE12ObjectHandleI18ComputeProgram_TagPvER19ComputeShaderKernelR13dynamic_arrayI15ComputeShaderCBLj0EERS6_I18ComputeShaderParamLj0EEb
6775:__ZN9GfxDevice19SetSinglePassStereoE16SinglePassStereo
6776:__ZN9GfxDevice19AsyncResourceUploadEii
6777:__ZN9GfxDevice23SyncAsyncResourceUploadE10AsyncFencei
6778:__ZNK9GfxDevice16StoreContextDataEP14GfxContextData
6779:__ZN9GfxDevice16ApplyContextDataEPK14GfxContextData
6780:__ZN9GfxDevice19CopyContextDataFromEPKS_
6781:__ZN9GfxDevice12ExecuteAsyncEiPFvPN21GfxDeviceAsyncCommand10ArgScratchEPKNS0_3ArgEEPS2_S5_RK8JobFence
6782:__ZN9GfxDevice26UpdateRenderSurfaceWrapperER12ObjectHandleI17RenderSurface_TagP17RenderSurfaceBaseES3_17DepthBufferFormat
6783:__ZN9GfxDevice27CleanupRenderSurfaceWrapperER12ObjectHandleI17RenderSurface_TagP17RenderSurfaceBaseE
6784:__ZN9GfxDevice19BeginRenderPassImplERK15RenderPassSetup
6785:__ZN9GfxDevice15NextSubPassImplEv
6786:__ZN9GfxDevice17EndRenderPassImplEv
6787:__ZN7Texture15FindTextureByIDE9TextureID
6788:__ZN19ShaderPropertySheet24SetTextureWithExplicitIDERK23FastTexturePropertyNameP7Texture9TextureID
6789:__ZNSt3__26vectorIN9GfxDevice14SubPassActionsENS_9allocatorIS2_EEE6resizeEj
6790:__ZNSt3__26vectorIN9GfxDevice14SubPassActionsENS_9allocatorIS2_EEE8__appendEj
6791:__ZNSt3__26vectorIN9GfxDevice14SubPassActionsENS_9allocatorIS2_EEE26__swap_out_circular_bufferERNS_14__split_bufferIS2_RS4_EE
6792:__ZN24BuiltinShaderParamValuesC2Ev
6793:__ZN18AsyncUploadManager27AsyncResourceUploadBlockingER9GfxDeviceiiR10AsyncFence
6794:__ZN18AsyncUploadManager19AsyncResourceUploadER9GfxDeviceii
6795:__ZN18AsyncUploadManager23HandleAsyncReadCommandsEv
6796:__ZN18AsyncUploadManager28ManageUploadRingBufferMemoryEi
6797:__ZN18AsyncUploadManager18ScheduleAsyncReadsEv
6798:__ZN18AsyncUploadManager17ScheduleAsyncReadEP10AtomicNodeP16AsyncReadCommand
6799:__Z19PluginsRenderMarkeri
6800:__ZN14GfxDeviceStats16CopyAllDrawStatsERKS_
6801:__ZN14GfxDeviceStats15CopyClientStatsERKS_
6802:__ZN14GfxDeviceStats19EndClientFrameStatsEv
6803:__ZN14GfxDeviceStats10ResetFrameEv
6804:__ZN13DrawImmediate11FlushBufferEv
6805:__ZN13DrawImmediate5BeginE16GfxPrimitiveType16VertexInputMasksNS_9DrawFlagsE
6806:__ZN13DrawImmediate8TexCoordEifff
6807:__ZN13DrawImmediate11TexCoordAllEfff
6808:__ZN13DrawImmediate6VertexEfff
6809:__ZN21ScalableBufferManager23UnregisterRenderSurfaceEP17RenderSurfaceBaseb
6810:__ZN13ComputeShader13SetValueParamERKN9ShaderLab16FastPropertyNameEiPKvb
6811:__ZN13ComputeShader14SetBufferParamEjRKN9ShaderLab16FastPropertyNameE15ComputeBufferIDb
6812:__ZN13ComputeShader21DispatchComputeShaderEjiiiP17ShaderPassContext
6813:__ZN13ComputeShader14BeforeDispatchEjP17ShaderPassContext
6814:__ZN13ComputeShader16ValidateDispatchEj
6815:__ZN13ComputeShader15SetTextureParamEjRKN9ShaderLab16FastPropertyNameE9TextureID16TextureDimensionbb
6816:__ZN12GPUFencePool28ClearCompletedFencesInternalEv
6817:__ZN16GeometryJobTasks19PutGeometryJobFenceER9GfxDevicej
6818:__ZN17UniqueIDGenerator17DestroyAllIndicesEv
6819:__ZN13ComputeBuffer7SetDataER9GfxDevicePKvjj
6820:__ZN17UniqueIDGenerator9DestroyIDE13UniqueSmallID
6821:__ZN16GeometryJobTasks30ScheduleDynamicVBOGeometryJobsER9GfxDevicePFvP25DynamicVBOGeometryJobDatajEPFvS3_EPFvRK8JobFenceES3_j16GfxPrimitiveTypeP21DynamicVBOChunkHandle
6822:__ZN16GeometryJobTasks25ScheduleComputeBufferJobsER9GfxDevicePFvP20ComputeBufferJobDataEPFvRK8JobFenceEPK27ComputeBufferJobInstructionj
6823:__ZN13dynamic_arrayIN16GeometryJobTasks15GeometryJobTaskELj0EE18resize_initializedEjRKS1_12ResizePolicy
6824:__ZN16GeometryJobTasks20ScheduleGeometryJobsER9GfxDevicePFvP15GeometryJobDataEPK22GeometryJobInstructionj
6825:__ZN9GfxDevice25CreateDefaultVertexBufferE26GfxDefaultVertexBufferTypej
6826:__Z16CreateGpuProgram20ShaderGpuProgramTypeRK13dynamic_arrayIhLj0EER22CreateGpuProgramOutput
6827:__ZN18GlslGpuProgramGLESC2ERK13dynamic_arrayIhLj0EER22CreateGpuProgramOutput
6828:__ZN18GlslGpuProgramGLES6CreateERK13dynamic_arrayIhLj0EER17ShaderChannelMask
6829:__ZN22CreateGpuProgramOutput12CreateParamsEv
6830:__ZN4gles14UseGLSLProgramER15DeviceStateGLESjbij
6831:__Z18FillParamsBaseGLESjR20GpuProgramParametersP16PropertyNamesSetP20ActiveUniformIndicesi
6832:__ZN16UniformCacheGLES6CreateERK13dynamic_arrayIN20GpuProgramParameters14ValueParameterELj0EERS0_IiLj0EE
6833:__ZN18GlslGpuProgramGLES5ClearEv
6834:__ZN7ApiGLES13DeleteProgramERj
6835:__ZNSt3__214__split_bufferIN20GpuProgramParameters14ConstantBufferERNS_9allocatorIS2_EEED2Ev
6836:__ZNSt3__26vectorIN20GpuProgramParameters14ConstantBufferENS_9allocatorIS2_EEE21__push_back_slow_pathIRKS2_EEvOT_
6837:__ZN4glsl20IsStructArrayUniformEPKcRN4core12basic_stringIcNS2_20StringStorageDefaultIcEEEES7_RiS7_
6838:__ZNSt3__26vectorIN20GpuProgramParameters15StructParameterENS_9allocatorIS2_EEE21__push_back_slow_pathIS2_EEvOT_
6839:__ZN4glsl22IsShaderParameterArrayEPKciiPb
6840:__ZN20GpuProgramParameters14AddVectorParamEPKcii15ShaderParamTypeiiiP16PropertyNamesSet
6841:__ZN20GpuProgramParameters23AddMatrixParamWithFlagsEPKcii15ShaderParamTypeiiiiNS_14ValueParameter5FlagsEP16PropertyNamesSet
6842:__ZNK13TranslateGLES26GetTextureSamplerDimensionEj
6843:__ZN20GpuProgramParameters14AddBufferParamEPKciP16PropertyNamesSetii
6844:__ZN20GpuProgramParameters15AddTextureParamEPKciib16TextureDimensionP16PropertyNamesSet
6845:__ZN20GpuProgramParameters36UpdatePrepareValuesMaximumBufferSizeEv
6846:__ZNSt3__26__treeINS_12__value_typeIiiEENS_19__map_value_compareIiS2_NS_4lessIiEELb1EEE13stl_allocatorIS2_L18MemLabelIdentifier1ELi16EEE7destroyEPNS_11__tree_nodeIS2_PvEE
6847:__ZNSt3__26__sortIR25ValueParameterArraySorterPN20GpuProgramParameters14ValueParameterEEEvT0_S6_T_
6848:__ZNSt3__27__sort3IR25ValueParameterArraySorterPN20GpuProgramParameters14ValueParameterEEEjT0_S6_S6_T_
6849:__ZNSt3__27__sort4IR25ValueParameterArraySorterPN20GpuProgramParameters14ValueParameterEEEjT0_S6_S6_S6_T_
6850:__ZNSt3__27__sort5IR25ValueParameterArraySorterPN20GpuProgramParameters14ValueParameterEEEjT0_S6_S6_S6_S6_T_
6851:__ZNSt3__218__insertion_sort_3IR25ValueParameterArraySorterPN20GpuProgramParameters14ValueParameterEEEvT0_S6_T_
6852:__ZNSt3__227__insertion_sort_incompleteIR25ValueParameterArraySorterPN20GpuProgramParameters14ValueParameterEEEbT0_S6_T_
6853:__Z27IsShaderInstanceMatrixParamPKcPi
6854:__ZN7ApiGLES11BindProgramEjb
6855:__ZN7ApiGLES16SetPatchVerticesEi
6856:__ZN7ApiGLES16EnableClipPlanesEj
6857:__ZN4glsl18ExtractDefineBlockERKN4core12basic_stringIcNS0_20StringStorageDefaultIcEEEES6_PS4_
6858:__Z4TrimRKN4core12basic_stringIcNS_20StringStorageDefaultIcEEEES5_
6859:__ZN18GlslGpuProgramGLES14CompileProgramERjRKN4core12basic_stringIcNS1_20StringStorageDefaultIcEEEES7_S7_S7_S7_R17ShaderChannelMaski
6860:__ZN18GlslGpuProgramGLES25LoadFromBinaryShaderCacheERjRKN4core12basic_stringIcNS1_20StringStorageDefaultIcEEEER17ShaderChannelMaskPKc
6861:__ZL39PatchShaderSourceForAdrenoES3WorkaroundRKN4core12basic_stringIcNS_20StringStorageDefaultIcEEEEPS3_
6862:__ZL48PatchShaderSourceTransposeRedefinitionWorkaroundRKN4core12basic_stringIcNS_20StringStorageDefaultIcEEEEPS3_
6863:__ZN7ApiGLES12CreateShaderEN2gl11ShaderStageEPKc
6864:__ZL21CompileFragmentShaderRKN4core12basic_stringIcNS_20StringStorageDefaultIcEEEEb
6865:__ZN7ApiGLES11CheckShaderERjbi
6866:__ZN7ApiGLES21CreateGraphicsProgramEjjjjj
6867:__ZL27BindVertexProgramAttributesRKN4core12basic_stringIcNS_20StringStorageDefaultIcEEEEjR17ShaderChannelMask
6868:__ZN7ApiGLES13DetachShadersEjjjjjj
6869:__ZN7ApiGLES12CheckProgramERj
6870:__ZN18GlslGpuProgramGLES24StoreInBinaryShaderCacheEjPKc
6871:__ZN7ApiGLES12DeleteShaderERj
6872:__ZL31SplitSourceIntoHeaderAndProgramPKcPN4core12basic_stringIcNS1_20StringStorageDefaultIcEEEES6_
6873:__ZN18GlslGpuProgramGLESD2Ev
6874:__ZN18GlslGpuProgramGLESD0Ev
6875:__ZN18GlslGpuProgramGLES18ShaderPatchingInfoD2Ev
6876:__ZN26SinglePassStereoSupportExt22RestoreStereoConstantsEv
6877:__ZN26SinglePassStereoSupportExt21SetStereoScissorRectsEPK5RectTIiE
6878:__ZN26SinglePassStereoSupportExt17SetStereoViewportE15StereoscopicEyeRK5RectTIiEb
6879:__ZNK26SinglePassStereoSupportExt17GetStereoViewportE15StereoscopicEye
6880:__ZN26SinglePassStereoSupportExt15GetStereoMatrixE21MonoOrStereoscopicEye24BuiltinShaderMatrixParamR10Matrix4x4f
6881:__ZN26SinglePassStereoSupportExt23SetupStereoMatrixParamsE21MonoOrStereoscopicEye24BuiltinShaderMatrixParamRK10Matrix4x4f
6882:__ZN26SinglePassStereoSupportExt21SetStereoMatrixCommonE21MonoOrStereoscopicEye24BuiltinShaderMatrixParamRK10Matrix4x4f
6883:__ZN26SinglePassStereoSupportExt32UpdateStereoViewProjectionMatrixE21MonoOrStereoscopicEyeb
6884:__ZN13DrawImmediate10InvalidateEv
6885:__ZN9GfxDevice8OnDeleteEv
6886:__ZNSt3__26__treeINS_12__value_typeI9TextureIDjEENS_19__map_value_compareIS2_S3_NS_4lessIS2_EELb1EEENS_9allocatorIS3_EEE7destroyEPNS_11__tree_nodeIS3_PvEE
6887:__ZN15RenderPassSetupD2Ev
6888:__ZNK17InstancingBatcher15RenderInstancesERK19ShaderPropertySheetRKNS_22RenderInstancesConfigsERK11MeshBuffersRK16DrawBuffersRange16VertexInputMasks
6889:__ZN19ShaderPropertySheet9SetMatrixEN9ShaderLab16FastPropertyNameERK10Matrix4x4fNS_8SetFlagsE
6890:__ZN19ShaderPropertySheet16SetComputeBufferEN9ShaderLab16FastPropertyNameE15ComputeBufferIDNS_8SetFlagsE
6891:__ZNK17InstancingBatcher25FillInstanceBufferWithJobIN10Instancing11DrawAPIArgsEEEvR8JobFenceR13dynamic_arrayIPvLj0EEjjRKT_
6892:__ZN10Instancing11DrawAPIArgsaSERKS0_
6893:__ZL17InstanceBufferJobIN10Instancing11DrawAPIArgsEEvP21InstanceBufferJobDataIT_E
6894:__ZNK15InstancingProps35FillInstanceBufferDispatchConstantsIN10Instancing11DrawAPIArgsEEEvPPvjjRK19ShaderPropertySheetRKT_
6895:__ZN10Instancing11DrawAPIArgsC2Ev
6896:__ZN10Instancing11DrawAPIArgsD2Ev
6897:__ZN10Instancing11DrawAPIArgsC2ERK19ShaderPropertySheetPK8Vector4fS6_S6_i
6898:__ZN16ScriptingManagerD2Ev
6899:__ZN16ScriptingManagerD0Ev
6900:__ZNSt3__26__treeINS_12__value_typeIiP15MonoScriptCacheEENS_19__map_value_compareIiS4_NS_4lessIiEELb1EEE13stl_allocatorIS4_L18MemLabelIdentifier79ELi16EEE7destroyEPNS_11__tree_nodeIS4_PvEE
6901:__ZN11MonoManagerD2Ev
6902:__ZN11MonoManagerD0Ev
6903:__ZN11MonoManager13AwakeFromLoadE17AwakeFromLoadMode
6904:__ZNK11MonoManager22GetTypeVirtualInternalEv
6905:__ZN11MonoManager23VirtualRedirectTransferER19StreamedBinaryWrite
6906:__ZN11MonoManager23VirtualRedirectTransferER18StreamedBinaryRead
6907:__ZN11MonoManager23VirtualRedirectTransferER17RemapPPtrTransfer
6908:__ZN11MonoManager23VirtualRedirectTransferER24GenerateTypeTreeTransfer
6909:__ZN11MonoManager23VirtualRedirectTransferER14SafeBinaryRead
6910:__ZN11MonoManager8TransferI14SafeBinaryReadEEvRT_
6911:__ZN14SafeBinaryRead21TransferSTLStyleArrayI10vector_setI4PPtrI10MonoScriptENSt3__24lessIS4_EE13stl_allocatorIS4_L18MemLabelIdentifier79ELi16EEEEEvRT_17TransferMetaFlags
6912:__ZNSt3__26vectorI4PPtrI10MonoScriptE13stl_allocatorIS3_L18MemLabelIdentifier79ELi16EEE8__appendEj
6913:__ZN11MonoManager8TransferI24GenerateTypeTreeTransferEEvRT_
6914:__ZN15SerializeTraitsI11MonoManagerE8TransferI18StreamedBinaryReadEEvRS0_RT_
6915:__ZN11MonoManager8TransferI19StreamedBinaryWriteEEvRT_
6916:__ZN11MonoManager14LoadAssembliesEv
6917:__ZN11MonoManager29RebuildCommonScriptingClassesEv
6918:__ZN16ScriptingManager33RebuildNativeTypeToScriptingClassEv
6919:__Z17ExtractStacktraceRKN4core12basic_stringIcNS_20StringStorageDefaultIcEEEERS3_S6_iS6_Piii
6920:__Z48AddCommonTransferFunctionsToScriptingTraitsCachev
6921:__Z44InitializeTransferFunctionScriptingTraitsForI18StreamedBinaryReadEvR31TransferFunctionScriptingTraits
6922:__Z41AddTransferFunctionScriptingTraitsToCacheRK12TransferTypePK31TransferFunctionScriptingTraits
6923:__Z44InitializeTransferFunctionScriptingTraitsForI19StreamedBinaryWriteEvR31TransferFunctionScriptingTraits
6924:__Z44InitializeTransferFunctionScriptingTraitsForI24GenerateTypeTreeTransferEvR31TransferFunctionScriptingTraits
6925:__Z44InitializeTransferFunctionScriptingTraitsForI17RemapPPtrTransferEvR31TransferFunctionScriptingTraits
6926:__Z44InitializeTransferFunctionScriptingTraitsForI14SafeBinaryReadEvR31TransferFunctionScriptingTraits
6927:__Z18Transfer_BlittableI14SafeBinaryReadLb0EiEvRK29SerializationCommandArgumentsR31RuntimeSerializationCommandInfo
6928:__Z18Transfer_BlittableI14SafeBinaryReadLb1EiEvRK29SerializationCommandArgumentsR31RuntimeSerializationCommandInfo
6929:__Z35Transfer_Blittable_FixedBufferFieldI14SafeBinaryReadiEvRK29SerializationCommandArgumentsR31RuntimeSerializationCommandInfo
6930:__ZN13dynamic_arrayIN31TransferFunctionScriptingTraits12CommandGroupELj0EE9push_backERKS1_
6931:__Z18Transfer_BlittableI14SafeBinaryReadLb0EhEvRK29SerializationCommandArgumentsR31RuntimeSerializationCommandInfo
6932:__Z18Transfer_BlittableI14SafeBinaryReadLb1EhEvRK29SerializationCommandArgumentsR31RuntimeSerializationCommandInfo
6933:__Z35Transfer_Blittable_FixedBufferFieldI14SafeBinaryReadhEvRK29SerializationCommandArgumentsR31RuntimeSerializationCommandInfo
6934:__Z18Transfer_BlittableI14SafeBinaryReadLb0EfEvRK29SerializationCommandArgumentsR31RuntimeSerializationCommandInfo
6935:__Z18Transfer_BlittableI14SafeBinaryReadLb1EfEvRK29SerializationCommandArgumentsR31RuntimeSerializationCommandInfo
6936:__Z35Transfer_Blittable_FixedBufferFieldI14SafeBinaryReadfEvRK29SerializationCommandArgumentsR31RuntimeSerializationCommandInfo
6937:__Z15Transfer_StringI14SafeBinaryReadLb0EEvRK29SerializationCommandArgumentsR31RuntimeSerializationCommandInfo
6938:__Z15Transfer_StringI14SafeBinaryReadLb1EEvRK29SerializationCommandArgumentsR31RuntimeSerializationCommandInfo
6939:__Z18Transfer_BlittableI14SafeBinaryReadLb0E8Vector3fEvRK29SerializationCommandArgumentsR31RuntimeSerializationCommandInfo
6940:__Z18Transfer_BlittableI14SafeBinaryReadLb1E8Vector3fEvRK29SerializationCommandArgumentsR31RuntimeSerializationCommandInfo
6941:__Z18Transfer_BlittableI14SafeBinaryReadLb0EN4math12int3_storageEEvRK29SerializationCommandArgumentsR31RuntimeSerializationCommandInfo
6942:__Z18Transfer_BlittableI14SafeBinaryReadLb1EN4math12int3_storageEEvRK29SerializationCommandArgumentsR31RuntimeSerializationCommandInfo
6943:__Z18Transfer_BlittableI14SafeBinaryReadLb0E8Vector2fEvRK29SerializationCommandArgumentsR31RuntimeSerializationCommandInfo
6944:__Z18Transfer_BlittableI14SafeBinaryReadLb1E8Vector2fEvRK29SerializationCommandArgumentsR31RuntimeSerializationCommandInfo
6945:__Z18Transfer_BlittableI14SafeBinaryReadLb0EN4math12int2_storageEEvRK29SerializationCommandArgumentsR31RuntimeSerializationCommandInfo
6946:__Z18Transfer_BlittableI14SafeBinaryReadLb1EN4math12int2_storageEEvRK29SerializationCommandArgumentsR31RuntimeSerializationCommandInfo
6947:__Z18Transfer_BlittableI14SafeBinaryReadLb0E11QuaternionfEvRK29SerializationCommandArgumentsR31RuntimeSerializationCommandInfo
6948:__Z18Transfer_BlittableI14SafeBinaryReadLb1E11QuaternionfEvRK29SerializationCommandArgumentsR31RuntimeSerializationCommandInfo
6949:__Z18Transfer_BlittableI14SafeBinaryReadLb0E10ColorRGBAfEvRK29SerializationCommandArgumentsR31RuntimeSerializationCommandInfo
6950:__Z18Transfer_BlittableI14SafeBinaryReadLb1E10ColorRGBAfEvRK29SerializationCommandArgumentsR31RuntimeSerializationCommandInfo
6951:__Z18Transfer_BlittableI14SafeBinaryReadLb0E4AABBEvRK29SerializationCommandArgumentsR31RuntimeSerializationCommandInfo
6952:__Z18Transfer_BlittableI14SafeBinaryReadLb1E4AABBEvRK29SerializationCommandArgumentsR31RuntimeSerializationCommandInfo
6953:__Z18Transfer_BlittableI14SafeBinaryReadLb0E9BoundsIntEvRK29SerializationCommandArgumentsR31RuntimeSerializationCommandInfo
6954:__Z18Transfer_BlittableI14SafeBinaryReadLb1E9BoundsIntEvRK29SerializationCommandArgumentsR31RuntimeSerializationCommandInfo
6955:__Z18Transfer_BlittableI14SafeBinaryReadLb0EsEvRK29SerializationCommandArgumentsR31RuntimeSerializationCommandInfo
6956:__Z18Transfer_BlittableI14SafeBinaryReadLb1EsEvRK29SerializationCommandArgumentsR31RuntimeSerializationCommandInfo
6957:__Z35Transfer_Blittable_FixedBufferFieldI14SafeBinaryReadsEvRK29SerializationCommandArgumentsR31RuntimeSerializationCommandInfo
6958:__Z18Transfer_BlittableI14SafeBinaryReadLb0ExEvRK29SerializationCommandArgumentsR31RuntimeSerializationCommandInfo
6959:__Z18Transfer_BlittableI14SafeBinaryReadLb1ExEvRK29SerializationCommandArgumentsR31RuntimeSerializationCommandInfo
6960:__Z35Transfer_Blittable_FixedBufferFieldI14SafeBinaryReadxEvRK29SerializationCommandArgumentsR31RuntimeSerializationCommandInfo
6961:__Z18Transfer_BlittableI14SafeBinaryReadLb0EtEvRK29SerializationCommandArgumentsR31RuntimeSerializationCommandInfo
6962:__Z18Transfer_BlittableI14SafeBinaryReadLb1EtEvRK29SerializationCommandArgumentsR31RuntimeSerializationCommandInfo
6963:__Z35Transfer_Blittable_FixedBufferFieldI14SafeBinaryReadtEvRK29SerializationCommandArgumentsR31RuntimeSerializationCommandInfo
6964:__Z18Transfer_BlittableI14SafeBinaryReadLb0E8Vector4fEvRK29SerializationCommandArgumentsR31RuntimeSerializationCommandInfo
6965:__Z18Transfer_BlittableI14SafeBinaryReadLb1E8Vector4fEvRK29SerializationCommandArgumentsR31RuntimeSerializationCommandInfo
6966:__Z18Transfer_BlittableI14SafeBinaryReadLb0E5RectTIfEEvRK29SerializationCommandArgumentsR31RuntimeSerializationCommandInfo
6967:__Z18Transfer_BlittableI14SafeBinaryReadLb1E5RectTIfEEvRK29SerializationCommandArgumentsR31RuntimeSerializationCommandInfo
6968:__Z18Transfer_BlittableI14SafeBinaryReadLb0E5RectTIiEEvRK29SerializationCommandArgumentsR31RuntimeSerializationCommandInfo
6969:__Z18Transfer_BlittableI14SafeBinaryReadLb1E5RectTIiEEvRK29SerializationCommandArgumentsR31RuntimeSerializationCommandInfo
6970:__Z18Transfer_BlittableI14SafeBinaryReadLb0E10Matrix4x4fEvRK29SerializationCommandArgumentsR31RuntimeSerializationCommandInfo
6971:__Z18Transfer_BlittableI14SafeBinaryReadLb1E10Matrix4x4fEvRK29SerializationCommandArgumentsR31RuntimeSerializationCommandInfo
6972:__Z18Transfer_BlittableI14SafeBinaryReadLb0E11ColorRGBA32EvRK29SerializationCommandArgumentsR31RuntimeSerializationCommandInfo
6973:__Z18Transfer_BlittableI14SafeBinaryReadLb1E11ColorRGBA32EvRK29SerializationCommandArgumentsR31RuntimeSerializationCommandInfo
6974:__Z18Transfer_BlittableI14SafeBinaryReadLb0E8BitFieldEvRK29SerializationCommandArgumentsR31RuntimeSerializationCommandInfo
6975:__Z18Transfer_BlittableI14SafeBinaryReadLb1E8BitFieldEvRK29SerializationCommandArgumentsR31RuntimeSerializationCommandInfo
6976:__Z18Transfer_BlittableI14SafeBinaryReadLb0E12PropertyNameEvRK29SerializationCommandArgumentsR31RuntimeSerializationCommandInfo
6977:__Z18Transfer_BlittableI14SafeBinaryReadLb1E12PropertyNameEvRK29SerializationCommandArgumentsR31RuntimeSerializationCommandInfo
